_init = __main_start + 0x24;
_fini = __main_start + 0x160;
__nnDetailNintendoSdkRuntimeObjectFileRefer = __main_start + 0x1ac;
__nnDetailNintendoSdkRuntimeObjectFile = __main_start + 0x1b0;
_ZN4AABB13ThreadStorageC1Ev = __main_start + 0x1b4;
_ZN4AABB13ThreadStorageD2Ev = __main_start + 0x208;
_ZN4AABB22CreateNewThreadStorageEv = __main_start + 0x218;
_ZN4AABB23UseDefaultThreadStorageEv = __main_start + 0x278;
_ZN4AABB20ReleaseThreadStorageEv = __main_start + 0x294;
_ZN4AABB12newPermanentEdddddd = __main_start + 0x2f0;
_ZN4AABB12newPermanentERK8BlockPos = __main_start + 0x364;
_ZNK5Vec3i4getXEv = __main_start + 0x3fc;
_ZNK5Vec3i4getYEv = __main_start + 0x404;
_ZNK5Vec3i4getZEv = __main_start + 0x40c;
_ZN4AABB12newPermanentERK8BlockPosRK8BlockPos = __main_start + 0x414;
_ZN4AABB12newPermanentEPK4AABB = __main_start + 0x4a4;
_ZN4AABB9resetPoolEv = __main_start + 0x4b4;
_ZN4AABB7newTempEdddddd = __main_start + 0x4b8;
_ZN4AABB3setEdddddd = __main_start + 0x550;
_ZN4AABB7newTempERK8BlockPos = __main_start + 0x5e0;
_ZN4AABB7newTempERK8BlockPosRK8BlockPos = __main_start + 0x678;
_ZN4AABB7newTempEPK4AABB = __main_start + 0x708;
_ZN4AABBC1Edddddd = __main_start + 0x718;
_ZNK4AABB6equalsEPK4AABB = __main_start + 0x7f4;
_ZN4AABB3setEPK4AABB = __main_start + 0x88c;
_ZN4AABB8contractEddd = __main_start + 0x8c0;
_ZNK4AABB6expandEddd = __main_start + 0x91c;
_ZNK4AABB4growEddd = __main_start + 0xb54;
_ZNK4AABB4growEd = __main_start + 0xb88;
_ZNK4AABB10intersectsEPK4AABB = __main_start + 0xf20;
_ZNK4AABB8containsERK8BlockPos = __main_start + 0x1080;
_ZNK4AABB8containsEP4Vec3 = __main_start + 0x10e0;
_ZNK4AABB27containsIncludingLowerBoundEP4Vec3 = __main_start + 0x116c;
_ZNK4AABB7getSizeEv = __main_start + 0x11f8;
_ZNK4AABB6shrinkEddd = __main_start + 0x1224;
_ZNK4AABB6shrinkEd = __main_start + 0x1234;
_ZN9AbilitiesC1Ev = __main_start + 0x1794;
_ZNK9AbilitieseqERKS_ = __main_start + 0x17bc;
_ZN9Abilities11addSaveDataEP11CompoundTag = __main_start + 0x1860;
_ZN9Abilities12loadSaveDataEP11CompoundTag = __main_start + 0x1aa0;
_ZN9Abilities14getFlyingSpeedEv = __main_start + 0x1db8;
_ZN9Abilities14setFlyingSpeedEf = __main_start + 0x1dc0;
_ZN9Abilities15getWalkingSpeedEv = __main_start + 0x1dc8;
_ZN9Abilities15setWalkingSpeedEf = __main_start + 0x1dd0;
_ZN9Abilities5writeEP16DataOutputStream = __main_start + 0x1dd8;
_ZN9Abilities4readEP15DataInputStream = __main_start + 0x1e80;
_GLOBAL__sub_I_UnityWorld2.cpp = __main_start + 0xa2e0;
_ZNK18AbstractBlockState5cycleEPK8Property = __main_start + 0xa878;
_ZNK18AbstractBlockState8toStringEv = __main_start + 0xa91c;
_ZN20AbstractChestedHorse10staticCtorEv = __main_start + 0xab28;
_ZNSt3__110shared_ptrI12ItemInstanceED2Ev = __main_start + 0xb7c4;
_ZN12not_null_ptrI12ItemInstanceEC2ERKS1_ = __main_start + 0xce60;
_ZNSt3__110shared_ptrI9ContainerED2Ev = __main_start + 0xd138;
_ZN12not_null_ptrI12ItemInstanceEC2EOS1_ = __main_start + 0xf0d4;
_ZN13AbstractHorse10staticCtorEv = __main_start + 0x103e4;
_ZN5Block17defaultBlockStateEv = __main_start + 0x11eac;
_ZNK8BlockPos5aboveEv = __main_start + 0x11eb4;
_ZN15AbstractIllager10staticCtorEv = __main_start + 0x14120;
_ZN9Direction4getXEv = __main_start + 0x144cc;
_ZN9Direction4getYEv = __main_start + 0x144d4;
_ZN9Direction4getZEv = __main_start + 0x144dc;
_ZN16AbstractSkeleton10staticCtorEv = __main_start + 0x14610;
_ZNK8BlockPos5aboveEi = __main_start + 0x1615c;
_ZNK8BlockPos6offsetEiii = __main_start + 0x16188;
_ZNK8BlockPos5belowEv = __main_start + 0x16280;
_ZN15DataInputStreamD1Ev = __main_start + 0x16698;
_ZN16DataOutputStreamD1Ev = __main_start + 0x16798;
_ZN17AddDeepOceanLayerC1ExNSt3__110shared_ptrI5LayerEE = __main_start + 0x19990;
_ZN17AddDeepOceanLayerD2Ev = __main_start + 0x19a10;
_ZN17AddDeepOceanLayerD0Ev = __main_start + 0x19a14;
_ZN17AddDeepOceanLayer7getAreaEiiii = __main_start + 0x19a38;
_ZN12AddEdgeLayerC1ExNSt3__110shared_ptrI5LayerEEN12AddEdgeLayer4ModeE = __main_start + 0x19bec;
_ZN12AddEdgeLayerD2Ev = __main_start + 0x19c74;
_ZN12AddEdgeLayerD0Ev = __main_start + 0x19c78;
_ZN12AddEdgeLayer7getAreaEiiii = __main_start + 0x19c9c;
_ZN14AddIslandLayerC1ExNSt3__110shared_ptrI5LayerEE = __main_start + 0x1a170;
_ZN14AddIslandLayer7getAreaEiiii = __main_start + 0x1a1f0;
_ZN22AddMushroomIslandLayerC1ExNSt3__110shared_ptrI5LayerEE = __main_start + 0x1a4e4;
_ZN22AddMushroomIslandLayer7getAreaEiiii = __main_start + 0x1a564;
_ZN12AddSnowLayerC1ExNSt3__110shared_ptrI5LayerEE = __main_start + 0x1a76c;
_ZN12AddSnowLayer7getAreaEiiii = __main_start + 0x1a7ec;
_ZN9AgableMob10staticCtorEv = __main_start + 0x1a98c;
_ZN5BlockC1EP8Material = __main_start + 0x1b49c;
_ZN8AirBlock14getRenderShapeEPK10BlockState = __main_start + 0x1b4e8;
_ZN8AirBlock11getClipAABBEPK10BlockStateP11LevelSourceRK8BlockPos = __main_start + 0x1b4f0;
_ZNK8AirBlock13isSolidRenderEPK10BlockState = __main_start + 0x1b4f8;
_ZN8AirBlock7mayPickEPK10BlockStateb = __main_start + 0x1b500;
_ZN8AirBlock14spawnResourcesEP5LevelRK8BlockPosPK10BlockStatefi = __main_start + 0x1b508;
_ZN8AirBlock19mayReplaceWithPlaceEP11LevelSourceRK8BlockPos = __main_start + 0x1b50c;
_ZN8AirBlock12isCubeShapedEPK10BlockState = __main_start + 0x1b514;
_ZN8AirBlock17getBlockFaceShapeEP11LevelSourcePK10BlockStateRK8BlockPosPK9Direction = __main_start + 0x1b51c;
_ZN7AirItemC1EP5Block = __main_start + 0x1b524;
_ZN6Animal10staticCtorEv = __main_start + 0x1b69c;
_ZN5Block20registerDefaultStateEPK10BlockState = __main_start + 0x1c138;
_ZN20BlockStateDefinition3anyEv = __main_start + 0x1c140;
_ZN10AnvilBlock12isCubeShapedEPK10BlockState = __main_start + 0x1c220;
_ZN10AnvilBlock17getBlockFaceShapeEP11LevelSourcePK10BlockStateRK8BlockPosPK9Direction = __main_start + 0x1c228;
_ZNK10AnvilBlock13isSolidRenderEPK10BlockState = __main_start + 0x1c230;
_ZN10AnvilBlock20getStateForPlacementEP5LevelRK8BlockPosPK9DirectionfffiSt10shared_ptrI12LivingEntityE = __main_start + 0x1c238;
_ZN5Block20getStateForPlacementEP5LevelRK8BlockPosPK9DirectionfffiSt10shared_ptrI12LivingEntityE = __main_start + 0x1c2e0;
_ZN10AnvilBlock3useEP5LevelRK8BlockPosPK10BlockStateSt10shared_ptrI6PlayerEN15InteractionHand16EInteractionHandEPK9Directionfffb = __main_start + 0x1c2f0;
_ZN10AnvilBlock25getSpawnResourcesAuxValueEPK10BlockState = __main_start + 0x1c3ac;
_ZN10AnvilBlock8getShapeEPK10BlockStateP11LevelSourceRK8BlockPos = __main_start + 0x1c3ec;
_ZN10AnvilBlock16shouldRenderFaceEPK10BlockStateP11LevelSourceRK8BlockPosPK9Direction = __main_start + 0x1c474;
_ZN8NameableC2Ev = __main_start + 0x1c494;
_ZN10AnvilBlock13getBlockStateEi = __main_start + 0x1c634;
_ZN10AnvilBlock29convertBlockStateToLegacyDataEPK10BlockState = __main_start + 0x1c694;
_ZN10AnvilBlock18GetInteractTooltipERK22BlockTooltipDataHolder = __main_start + 0x1c6e4;
_ZN5Block18GetInteractTooltipERK22BlockTooltipDataHolder = __main_start + 0x1c70c;
_ZN10AnvilBlock6rotateEPK10BlockStateP8Rotation = __main_start + 0x1c900;
_ZN10AnvilBlock26createBlockStateDefinitionEv = __main_start + 0x1c988;
_ZN10AnvilBlock10getTextureEPK9DirectionPK10BlockState = __main_start + 0x1ca5c;
_ZN10AnvilBlock13registerIconsEP12IconRegister = __main_start + 0x1cabc;
_ZN10AnvilBlock14getRenderShapeEPK10BlockState = __main_start + 0x1cb84;
_ZN15AreaEffectCloud10staticCtorEv = __main_start + 0x1e33c;
_ZN9ArmorItem10staticCtorEv = __main_start + 0x21ac8;
_ZNK8BlockPos8relativeEPK9Direction = __main_start + 0x22004;
_ZN10ArmorStand10staticCtorEv = __main_start + 0x23a04;
_ZN10ArmorStand14addDataWalkersEP14DataFixerUpper = __main_start + 0x241a0;
_ZN5Block13getIdWithDataEPK10BlockState = __main_start + 0x26564;
_ZN5Arrow10staticCtorEv = __main_start + 0x27300;
_ZN5Arrow14addDataWalkersEP14DataFixerUpper = __main_start + 0x294a4;
_ZN7AxeItem10staticCtorEv = __main_start + 0x2ae5c;
_ZN19StandingBannerBlock7getNameEv = __main_start + 0x2b16c;
_ZN19StandingBannerBlock11getClipAABBEPK10BlockStateP11LevelSourceRK8BlockPos = __main_start + 0x2b1b0;
_ZN19StandingBannerBlock12isCubeShapedEPK10BlockState = __main_start + 0x2b1b8;
_ZN19StandingBannerBlock14isPathfindableEP11LevelSourceRK8BlockPos = __main_start + 0x2b1c0;
_ZNK19StandingBannerBlock13isSolidRenderEPK10BlockState = __main_start + 0x2b1c8;
_ZN19StandingBannerBlock25isPossibleToRespawnInThisEv = __main_start + 0x2b1d0;
_ZN19StandingBannerBlock11getResourceEPK10BlockStateP6Randomi = __main_start + 0x2b34c;
_ZN19StandingBannerBlock20getCloneItemInstanceEP5LevelRK8BlockPosPK10BlockState = __main_start + 0x2b4bc;
_ZN19StandingBannerBlock14spawnResourcesEP5LevelRK8BlockPosPK10BlockStatefi = __main_start + 0x2b534;
_ZN5Block14spawnResourcesEP5LevelRK8BlockPosPK10BlockStatefi = __main_start + 0x2b5e4;
_ZN19StandingBannerBlock8mayPlaceEP5LevelRK8BlockPos = __main_start + 0x2b714;
_ZN5Block8mayPlaceEP5LevelRK8BlockPos = __main_start + 0x2b7e4;
_ZN19StandingBannerBlock21getPistonPushReactionEPK10BlockState = __main_start + 0x2b820;
_ZN19StandingBannerBlock13playerDestroyEP5LevelSt10shared_ptrI6PlayerERK8BlockPosPK10BlockStateSt10shared_ptrI11BlockEntityE12not_null_ptrI12ItemInstanceE = __main_start + 0x2b828;
_ZN13WallSignBlock13playerDestroyEP5LevelSt10shared_ptrI6PlayerERK8BlockPosPK10BlockStateSt10shared_ptrI11BlockEntityE12not_null_ptrI12ItemInstanceE = __main_start + 0x2b964;
_ZN19StandingBannerBlock17getBlockFaceShapeEP11LevelSourcePK10BlockStateRK8BlockPosPK9Direction = __main_start + 0x2bb78;
_ZN15WallBannerBlock6rotateEPK10BlockStateP8Rotation = __main_start + 0x2bbec;
_ZN15WallBannerBlock6mirrorEPK10BlockStateP6Mirror = __main_start + 0x2bc44;
_ZN15WallBannerBlock8getShapeEPK10BlockStateP11LevelSourceRK8BlockPos = __main_start + 0x2bcac;
_ZN15WallBannerBlock15neighborChangedEPK10BlockStateP5LevelRK8BlockPosP5BlockRK8BlockPos = __main_start + 0x2bd00;
_ZN5Block15neighborChangedEPK10BlockStateP5LevelRK8BlockPosP5BlockRK8BlockPos = __main_start + 0x2bdd0;
_ZN15WallBannerBlock13getBlockStateEi = __main_start + 0x2bdd4;
_ZN15WallBannerBlock29convertBlockStateToLegacyDataEPK10BlockState = __main_start + 0x2be38;
_ZN15WallBannerBlock26createBlockStateDefinitionEv = __main_start + 0x2be60;
_ZN19StandingBannerBlock8getShapeEPK10BlockStateP11LevelSourceRK8BlockPos = __main_start + 0x2bf84;
_ZN19StandingBannerBlock6rotateEPK10BlockStateP8Rotation = __main_start + 0x2bf94;
_ZN19StandingBannerBlock6mirrorEPK10BlockStateP6Mirror = __main_start + 0x2bfec;
_ZN19StandingBannerBlock15neighborChangedEPK10BlockStateP5LevelRK8BlockPosP5BlockRK8BlockPos = __main_start + 0x2c054;
_ZN19StandingBannerBlock13getBlockStateEi = __main_start + 0x2c108;
_ZN19StandingBannerBlock29convertBlockStateToLegacyDataEPK10BlockState = __main_start + 0x2c138;
_ZN19StandingBannerBlock26createBlockStateDefinitionEv = __main_start + 0x2c150;
_ZN11BlockEntityC1Ev = __main_start + 0x2c298;
_ZN11BlockEntity4saveEP11CompoundTag = __main_start + 0x2c95c;
_ZN11BlockEntity4loadEP11CompoundTag = __main_start + 0x2cb2c;
._ZNSt3__110to_wstringEi = __main_start + 0x2d280;
_ZN13BannerPattern10staticCtorEv = __main_start + 0x2ddd8;
_ZN12BarrierBlock14getRenderShapeEPK10BlockState = __main_start + 0x3152c;
_ZNK12BarrierBlock13isSolidRenderEPK10BlockState = __main_start + 0x31534;
_ZN12BarrierBlock18getShadeBrightnessEPK10BlockState = __main_start + 0x3153c;
_ZN12BarrierBlock14spawnResourcesEP5LevelRK8BlockPosPK10BlockStatefi = __main_start + 0x31544;
_ZN5BlockC1EP8MaterialPK13MaterialColor = __main_start + 0x31db8;
_ZN15EndGatewayBlock14getRenderShapeEPK10BlockState = __main_start + 0x31e40;
_ZN13WallSignBlock8onRemoveEP5LevelRK8BlockPosPK10BlockState = __main_start + 0x31e48;
_ZN5Block8onRemoveEP5LevelRK8BlockPosPK10BlockState = __main_start + 0x31e54;
_ZN5Block13playerDestroyEP5LevelSt10shared_ptrI6PlayerERK8BlockPosPK10BlockStateSt10shared_ptrI11BlockEntityE12not_null_ptrI12ItemInstanceE = __main_start + 0x31e58;
_ZN13WallSignBlock12triggerEventEPK10BlockStateP5LevelRK8BlockPosii = __main_start + 0x320f4;
_ZN5Block12triggerEventEPK10BlockStateP5LevelRK8BlockPosii = __main_start + 0x32168;
_ZN10SkullBlock21getPistonPushReactionEPK10BlockState = __main_start + 0x32170;
_ZN26WeightedPressurePlateBlock8getShapeEPK10BlockStateP11LevelSourceRK8BlockPos = __main_start + 0x33c5c;
_ZN18PressurePlateBlock12getTickDelayEP5Level = __main_start + 0x33ca0;
_ZN26WeightedPressurePlateBlock11getClipAABBEPK10BlockStateP11LevelSourceRK8BlockPos = __main_start + 0x33ca8;
_ZNK26WeightedPressurePlateBlock13isSolidRenderEPK10BlockState = __main_start + 0x33cb0;
_ZN26WeightedPressurePlateBlock12isCubeShapedEPK10BlockState = __main_start + 0x33cc0;
_ZN26WeightedPressurePlateBlock14isPathfindableEP11LevelSourceRK8BlockPos = __main_start + 0x33cc8;
_ZN26WeightedPressurePlateBlock25isPossibleToRespawnInThisEv = __main_start + 0x33cd0;
_ZN26WeightedPressurePlateBlock8mayPlaceEP5LevelRK8BlockPos = __main_start + 0x33cd8;
_ZN26WeightedPressurePlateBlock15neighborChangedEPK10BlockStateP5LevelRK8BlockPosP5BlockRK8BlockPos = __main_start + 0x33dac;
_ZN26WeightedPressurePlateBlock10randomTickEP5LevelRK8BlockPosPK10BlockStateP6Random = __main_start + 0x33ec4;
_ZN26WeightedPressurePlateBlock4tickEP5LevelRK8BlockPosPK10BlockStateP6Random = __main_start + 0x33ec8;
_ZN26WeightedPressurePlateBlock12entityInsideEP5LevelRK8BlockPosPK10BlockStateRKSt10shared_ptrI6EntityE = __main_start + 0x33f58;
_ZN26WeightedPressurePlateBlock8onRemoveEP5LevelRK8BlockPosPK10BlockState = __main_start + 0x34218;
_ZN26WeightedPressurePlateBlock9getSignalEPK10BlockStateP11LevelSourceRK8BlockPosPK9Direction = __main_start + 0x342f8;
_ZN26WeightedPressurePlateBlock15getDirectSignalEPK10BlockStateP11LevelSourceRK8BlockPosPK9Direction = __main_start + 0x34304;
_ZN26WeightedPressurePlateBlock14isSignalSourceEPK10BlockState = __main_start + 0x34334;
_ZN26WeightedPressurePlateBlock21getPistonPushReactionEPK10BlockState = __main_start + 0x3433c;
_ZN26WeightedPressurePlateBlock17getBlockFaceShapeEP11LevelSourcePK10BlockStateRK8BlockPosPK9Direction = __main_start + 0x34344;
_ZN26WeightedPressurePlateBlock13registerIconsEP12IconRegister = __main_start + 0x3434c;
_ZNK8BlockPos5northEv = __main_start + 0x3482c;
_ZNK8BlockPos5southEv = __main_start + 0x34848;
_ZNK8BlockPos4westEv = __main_start + 0x34864;
_ZNK8BlockPos4eastEv = __main_start + 0x34880;
_ZN13BaseRailBlock11getClipAABBEPK10BlockStateP11LevelSourceRK8BlockPos = __main_start + 0x35614;
_ZNK13BaseRailBlock13isSolidRenderEPK10BlockState = __main_start + 0x3561c;
_ZN13BaseRailBlock8getShapeEPK10BlockStateP11LevelSourceRK8BlockPos = __main_start + 0x35624;
_ZN13BaseRailBlock17getBlockFaceShapeEP11LevelSourcePK10BlockStateRK8BlockPosPK9Direction = __main_start + 0x3569c;
_ZN13BaseRailBlock12isCubeShapedEPK10BlockState = __main_start + 0x356a4;
_ZN13BaseRailBlock8mayPlaceEP5LevelRK8BlockPos = __main_start + 0x356ac;
_ZN13BaseRailBlock7onPlaceEP5LevelRK8BlockPosPK10BlockState = __main_start + 0x357b4;
_ZN13BaseRailBlock15neighborChangedEPK10BlockStateP5LevelRK8BlockPosP5BlockRK8BlockPos = __main_start + 0x35834;
_ZN13BaseRailBlock21getPistonPushReactionEPK10BlockState = __main_start + 0x35c2c;
_ZN13BaseRailBlock14getRenderLayerEv = __main_start + 0x35c34;
_ZN13BaseRailBlock8onRemoveEP5LevelRK8BlockPosPK10BlockState = __main_start + 0x35c3c;
_ZN13BaseRailBlock14getRenderShapeEPK10BlockState = __main_start + 0x35cf8;
_ZN3Bat10staticCtorEv = __main_start + 0x35d34;
_ZN3Bat14addDataWalkersEP14DataFixerUpper = __main_start + 0x365a4;
_ZN10BeachBiomeC1EN5Biome9EBiomeIDsEPN5Biome15BiomePropertiesE = __main_start + 0x367c0;
_ZN5BiomeC2ENS_9EBiomeIDsEPNS_15BiomePropertiesE = __main_start + 0x368e4;
_ZN11BeaconBlock3useEP5LevelRK8BlockPosPK10BlockStateSt10shared_ptrI6PlayerEN15InteractionHand16EInteractionHandEPK9Directionfffb = __main_start + 0x3725c;
_ZNK11BeaconBlock13isSolidRenderEPK10BlockState = __main_start + 0x3734c;
_ZN11BeaconBlock12isCubeShapedEPK10BlockState = __main_start + 0x37354;
_ZN11BeaconBlock11setPlacedByEP5LevelRK8BlockPosPK10BlockStateSt10shared_ptrI12LivingEntityE12not_null_ptrI12ItemInstanceE = __main_start + 0x3735c;
_ZN5Block11setPlacedByEP5LevelRK8BlockPosPK10BlockStateSt10shared_ptrI12LivingEntityE12not_null_ptrI12ItemInstanceE = __main_start + 0x37498;
_ZN11BeaconBlock15neighborChangedEPK10BlockStateP5LevelRK8BlockPosP5BlockRK8BlockPos = __main_start + 0x374ac;
_ZN11BeaconBlock7TestUseEv = __main_start + 0x37588;
_ZN11BeaconBlock14getRenderLayerEv = __main_start + 0x375cc;
_ZN11BeaconBlock13registerIconsEP12IconRegister = __main_start + 0x376b0;
_ZN5Block13registerIconsEP12IconRegister = __main_start + 0x376b4;
_ZN11BeaconBlock14getRenderShapeEPK10BlockState = __main_start + 0x37714;
_ZN11BeaconBlock18GetInteractTooltipERK22BlockTooltipDataHolder = __main_start + 0x3771c;
_ZN17BeaconBlockEntity10staticCtorEv = __main_start + 0x378a0;
_ZN17BeaconBlockEntity17BeaconBeamSection8getColorEv = __main_start + 0x387d8;
_ZN11BlockEntity12triggerEventEii = __main_start + 0x39618;
_ZN17BeaconBlockEntity17BeaconBeamSectionC1E15arrayWithLengthIfE = __main_start + 0x39668;
_ZN17BeaconBlockEntity17BeaconBeamSection9getHeightEv = __main_start + 0x396d0;
_ZN8BedBlock11getMapColorEPK10BlockStateP11LevelSourceRK8BlockPos = __main_start + 0x3a4e8;
_ZN8BedBlock7TestUseEP5LevelRK8BlockPosPK10BlockStateSt10shared_ptrI6PlayerE = __main_start + 0x3a604;
_ZN8BedBlock3useEP5LevelRK8BlockPosPK10BlockStateSt10shared_ptrI6PlayerEN15InteractionHand16EInteractionHandEPK9Directionfffb = __main_start + 0x3a748;
_ZNK8BlockPos6equalsERKS_ = __main_start + 0x3abf4;
_ZN8BedBlock12isCubeShapedEPK10BlockState = __main_start + 0x3ac74;
_ZNK8BedBlock13isSolidRenderEPK10BlockState = __main_start + 0x3ac7c;
_ZN8BedBlock6fallOnEP5LevelRK8BlockPosSt10shared_ptrI6EntityEf = __main_start + 0x3ac84;
_ZN5Block6fallOnEP5LevelRK8BlockPosSt10shared_ptrI6EntityEf = __main_start + 0x3acd8;
_ZN8BedBlock23updateEntityAfterFallOnEP5LevelSt10shared_ptrI6EntityE = __main_start + 0x3acec;
_ZN5Block23updateEntityAfterFallOnEP5LevelSt10shared_ptrI6EntityE = __main_start + 0x3ad98;
_ZN8BedBlock15neighborChangedEPK10BlockStateP5LevelRK8BlockPosP5BlockRK8BlockPos = __main_start + 0x3ada4;
_ZNK8BlockPos6equalsEPKS_ = __main_start + 0x3af08;
_ZN8BedBlock11getResourceEPK10BlockStateP6Randomi = __main_start + 0x3af0c;
_ZN8BedBlock8getShapeEPK10BlockStateP11LevelSourceRK8BlockPos = __main_start + 0x3af5c;
_ZN8BedBlock25hasCustomBreakingProgressEPK10BlockState = __main_start + 0x3af6c;
_ZN8BedBlock14spawnResourcesEP5LevelRK8BlockPosPK10BlockStatefi = __main_start + 0x3b348;
_ZN8BedBlock21getPistonPushReactionEPK10BlockState = __main_start + 0x3b470;
_ZN8BedBlock14getRenderLayerEv = __main_start + 0x3b478;
_ZN8BedBlock14getRenderShapeEPK10BlockState = __main_start + 0x3b480;
_ZN8BedBlock20getCloneItemInstanceEP5LevelRK8BlockPosPK10BlockState = __main_start + 0x3b488;
_ZN8BedBlock17playerWillDestroyEP5LevelRK8BlockPosPK10BlockStateSt10shared_ptrI6PlayerE = __main_start + 0x3b5d0;
_ZN8BedBlock13playerDestroyEP5LevelSt10shared_ptrI6PlayerERK8BlockPosPK10BlockStateSt10shared_ptrI11BlockEntityE12not_null_ptrI12ItemInstanceE = __main_start + 0x3b6a0;
_ZN8BedBlock8onRemoveEP5LevelRK8BlockPosPK10BlockState = __main_start + 0x3b84c;
_ZN8BedBlock13getBlockStateEi = __main_start + 0x3b858;
_ZN8BedBlock31fillVirtualBlockStatePropertiesEPK10BlockStateP11LevelSourceRK8BlockPos = __main_start + 0x3b908;
_ZN8BedBlock29convertBlockStateToLegacyDataEPK10BlockState = __main_start + 0x3b9f4;
_ZN8BedBlock18GetInteractTooltipERK22BlockTooltipDataHolder = __main_start + 0x3ba84;
_ZN8BedBlock17getBlockFaceShapeEP11LevelSourcePK10BlockStateRK8BlockPosPK9Direction = __main_start + 0x3bab8;
_ZN8BedBlock6rotateEPK10BlockStateP8Rotation = __main_start + 0x3bac0;
_ZN8BedBlock6mirrorEPK10BlockStateP6Mirror = __main_start + 0x3bb18;
_ZN8BedBlock26createBlockStateDefinitionEv = __main_start + 0x3bb80;
_ZN8BedBlock10getTextureEPK9DirectionPK10BlockState = __main_start + 0x3bdb8;
_ZN8BedBlock13registerIconsEP12IconRegister = __main_start + 0x3bef8;
_ZN15arrayWithLengthIhE3getEj = __main_start + 0x3c854;
_ZN13BeetrootBlock4tickEP5LevelRK8BlockPosPK10BlockStateP6Random = __main_start + 0x3d0d8;
_ZN13BeetrootBlock26createBlockStateDefinitionEv = __main_start + 0x3d190;
_ZN13BeetrootBlock8getShapeEPK10BlockStateP11LevelSourceRK8BlockPos = __main_start + 0x3d204;
_ZN13BeetrootBlock10getTextureEPK9DirectionPK10BlockState = __main_start + 0x3d244;
_ZN13BeetrootBlock13registerIconsEP12IconRegister = __main_start + 0x3d2a0;
_ZN8BlockPosC1Eiii = __main_start + 0x3da88;
_ZN5Biome4byIdEi = __main_start + 0x3efec;
_ZN5Biome10staticCtorEv = __main_start + 0x3effc;
_ZN5Biome15BiomeProperties5depthEf = __main_start + 0x42508;
_ZN5Biome15BiomeProperties5scaleEf = __main_start + 0x42510;
_ZN5Biome15setPreviewColorE16eMinecraftColour = __main_start + 0x42518;
_ZN5Biome21setNameAndDescriptionEii = __main_start + 0x42520;
_ZN5Biome16setWaterSkyColorE16eMinecraftColourS0_ = __main_start + 0x42528;
_ZN5Biome15BiomeProperties11temperatureEf = __main_start + 0x42534;
_ZN5Biome15BiomeProperties8downfallEf = __main_start + 0x4253c;
_ZN5Biome15BiomeProperties3dryEv = __main_start + 0x42544;
_ZN5Biome15BiomeProperties10waterColorEi = __main_start + 0x4254c;
_ZN5Biome15BiomeProperties4snowEv = __main_start + 0x42554;
_ZN5Biome15BiomeProperties7mutatedERKNSt3__112basic_stringIwNS0_11char_traitsIwEENS0_9allocatorIwEEEE = __main_start + 0x42560;
_ZN5Block5getIdEP5Block = __main_start + 0x4258c;
_ZN5Biome15createDecoratorEv = __main_start + 0x425d4;
_ZN5BiomeD0Ev = __main_start + 0x42688;
_ZN5Biome14getTreeFeatureER6Random = __main_start + 0x426ac;
_ZN5Biome15getGrassFeatureER6Random = __main_start + 0x42708;
_ZN5Biome15getRandomFlowerER6RandomPK8BlockPos = __main_start + 0x42740;
_ZN5Biome7getNameEb = __main_start + 0x4277c;
_ZN5Biome14getDescriptionEv = __main_start + 0x427dc;
_ZN5Biome11getSkyColorEf = __main_start + 0x42850;
_ZN5Biome7getMobsEP11MobCategory = __main_start + 0x428ec;
_ZN5Biome7hasSnowEv = __main_start + 0x429cc;
_ZN5Biome7hasRainEv = __main_start + 0x429d8;
_ZN5Biome7isHumidEv = __main_start + 0x42a10;
_ZN5Biome22getCreatureProbabilityEv = __main_start + 0x42a3c;
_ZN5Biome14getTemperatureEPK8BlockPos = __main_start + 0x42a48;
_ZN5Biome8decorateEP5LevelR6RandomPK8BlockPos = __main_start + 0x42b40;
_ZN5Biome13getGrassColorEPK8BlockPos = __main_start + 0x42b60;
_ZN5Biome15getFoliageColorEPK8BlockPos = __main_start + 0x42bcc;
_ZN5Biome13setGrassColorEPK8BlockPosj = __main_start + 0x42c38;
_ZN5Biome15setFoliageColorEPK8BlockPosj = __main_start + 0x42cac;
_ZN5Biome14buildSurfaceAtEP5LevelR6RandomP11ChunkPrimeriid = __main_start + 0x42d20;
_ZN5Biome21buildSurfaceAtDefaultEP5LevelR6RandomP11ChunkPrimeriid = __main_start + 0x42d2c;
_ZN11ChunkPrimer15setBlockAndDataEiii = __main_start + 0x43080;
_ZN11ChunkPrimer10getBlockIdEi = __main_start + 0x430fc;
_ZN5Biome22getTemperatureCategoryEv = __main_start + 0x43114;
_ZN5Biome9getBiomesEv = __main_start + 0x43150;
_ZN5Biome8getBiomeEi = __main_start + 0x4315c;
_ZN5Biome8getBiomeEiP5Biome = __main_start + 0x43164;
_ZN5Biome18isAlwaysValidSpawnEv = __main_start + 0x43194;
_ZN5Biome8getDepthEv = __main_start + 0x4319c;
_ZN5Biome8getScaleEv = __main_start + 0x431a4;
_ZN5Biome13getWaterColorEv = __main_start + 0x431ac;
_ZNK5Biome11getFogColorEff = __main_start + 0x431d4;
_ZN5Biome15BiomePropertiesC1ERKNSt3__112basic_stringIwNS1_11char_traitsIwEENS1_9allocatorIwEEEE = __main_start + 0x432a0;
_ZN15arrayWithLengthIhEC2Ev = __main_start + 0x43398;
_ZN15arrayWithLengthIP5BiomeEC1Eib = __main_start + 0x43a7c;
_ZN15arrayWithLengthIP5BiomeE3getEj = __main_start + 0x43ac0;
_ZN15BiomeCacheLayerC1EiNSt3__110shared_ptrI5LayerEEjhii = __main_start + 0x43ae8;
_ZN15BiomeCacheLayerD2Ev = __main_start + 0x43bf8;
_ZN15BiomeCacheLayerD0Ev = __main_start + 0x43c34;
_ZN15BiomeCacheLayer7getAreaEiiii = __main_start + 0x43c58;
_ZN11BiomeColors15getAverageColorEP11LevelSourceRK8BlockPosPN11BiomeColors13ColorResolverE = __main_start + 0x43f4c;
_ZN11BiomeColors20getAverageGrassColorEP11LevelSourceRK8BlockPos = __main_start + 0x44164;
_ZN14BiomeDecoratorC2Ev = __main_start + 0x441a4;
_ZN16WaterlilyFeatureC1Ev = __main_start + 0x443b4;
_ZN14BiomeDecoratorD2Ev = __main_start + 0x443e8;
_ZN14BiomeDecoratorD0Ev = __main_start + 0x445cc;
_ZN14BiomeDecorator8decorateEP5LevelR6RandomP5BiomeRK8BlockPos = __main_start + 0x445f0;
_ZN14BiomeDecorator8decorateEP5BiomeP5LevelR6Random = __main_start + 0x44a60;
_ZN14BiomeDecorator12decorateOresEP5LevelR6Random = __main_start + 0x45a98;
_ZN14BiomeEdgeLayerC1ExNSt3__110shared_ptrI5LayerEE = __main_start + 0x45e70;
_ZN14BiomeEdgeLayerD2Ev = __main_start + 0x45ef0;
_ZN14BiomeEdgeLayerD0Ev = __main_start + 0x45ef4;
_ZN14BiomeEdgeLayer7getAreaEiiii = __main_start + 0x45f18;
_ZN14BiomeInitLayerC1ExNSt3__110shared_ptrI5LayerEEP9LevelTypeP15SuperflatConfig = __main_start + 0x46718;
_ZN15arrayWithLengthIP5BiomeEC1Ev = __main_start + 0x46b14;
_ZN14BiomeInitLayerD2Ev = __main_start + 0x46b20;
_ZN14BiomeInitLayerD0Ev = __main_start + 0x46b80;
_ZN14BiomeInitLayer7getAreaEiiii = __main_start + 0x46ba4;
_ZN11BiomeSource21LayerOverrideSettings8isZoomedEv = __main_start + 0x47538;
_ZNK11BiomeSource13getBiomeBlockER15arrayWithLengthIP5BiomeEiiiib = __main_start + 0x48218;
_ZN15arrayWithLengthIhEC1EPhi = __main_start + 0x48aec;
_ZN11BiomeSource21LayerOverrideSettings13GetBiomeScaleEv = __main_start + 0x48d78;
_ZN11BiomeSource21LayerOverrideSettings15GetCentreXChunkEv = __main_start + 0x48e30;
_ZN11BiomeSource21LayerOverrideSettings15GetCentreZChunkEv = __main_start + 0x48e38;
_ZN11BiomeSource4initEv = __main_start + 0x48ed0;
_ZN11BiomeSource4initExP9LevelTypeP15SuperflatConfigP9LevelDataPN11BiomeSource21LayerOverrideSettingsE = __main_start + 0x4913c;
_ZN11BiomeSourceC1Ev = __main_start + 0x49274;
_ZN11BiomeSourceC1ExP9LevelTypeP15SuperflatConfigPN11BiomeSource21LayerOverrideSettingsE = __main_start + 0x492a0;
_ZN11BiomeSourceD1Ev = __main_start + 0x4937c;
_ZN11BiomeSourceD0Ev = __main_start + 0x49478;
_ZN11BiomeSource8getBiomeERK8BlockPos = __main_start + 0x4949c;
_ZN11BiomeSource8getBiomeERK8BlockPosP5Biome = __main_start + 0x494ac;
_ZNK11BiomeSource18getRawBiomeIndicesER15arrayWithLengthIiEiiii = __main_start + 0x49500;
_ZNK11BiomeSource16getRawBiomeBlockER15arrayWithLengthIP5BiomeEiiii = __main_start + 0x495ac;
_ZNK11BiomeSource18getBiomeIndexBlockEiiii = __main_start + 0x49738;
_ZNK11BiomeSource18getBiomeIndexBlockER15arrayWithLengthIhEiiiib = __main_start + 0x497e0;
_ZN11BiomeSource12containsOnlyEiiiRKNSt3__16vectorIP5BiomeNS0_9allocatorIS3_EEEE = __main_start + 0x499bc;
_ZN11BiomeSource9findBiomeEiiiNSt3__16vectorIP5BiomeNS0_9allocatorIS3_EEEEP6Random = __main_start + 0x49ab8;
_ZN11BiomeSource6updateEv = __main_start + 0x49c3c;
_ZN11BiomeSource12isFixedBiomeEv = __main_start + 0x4a0a0;
_ZN11BiomeSource13getFixedBiomeEv = __main_start + 0x4a0a8;
_ZN12BirchFeature10staticCtorEv = __main_start + 0x4a504;
_ZN5Blaze10staticCtorEv = __main_start + 0x4ac88;
_ZN5Blaze14addDataWalkersEP14DataFixerUpper = __main_start + 0x4ada0;
_ZN5Block22CreateNewThreadStorageEv = __main_start + 0x4bc34;
_ZN5Block12existsWithIdEi = __main_start + 0x4bcb4;
_ZN5Block19getStateByIdAndDataEih = __main_start + 0x4bcd4;
_ZN5Block12isValidSpawnEPK10BlockStateSt10shared_ptrI6EntityE = __main_start + 0x4bd70;
_ZN5Block13GetHitTooltipERK22BlockTooltipDataHolder = __main_start + 0x4bd78;
_ZN5Block11getMapColorEPK10BlockStateP11LevelSourceRK8BlockPos = __main_start + 0x4bdfc;
_ZN5Block13getBlockStateEi = __main_start + 0x4be04;
_ZN5Block29convertBlockStateToLegacyDataEPK10BlockState = __main_start + 0x4be08;
_ZN5Block31fillVirtualBlockStatePropertiesEPK10BlockStateP11LevelSourceRK8BlockPos = __main_start + 0x4be2c;
_ZN5Block6rotateEPK10BlockStateP8Rotation = __main_start + 0x4be34;
_ZN5Block6mirrorEPK10BlockStateP6Mirror = __main_start + 0x4be3c;
_ZN5Block4initEP8MaterialPK13MaterialColor = __main_start + 0x4be44;
_ZN5BlockD0Ev = __main_start + 0x4bee4;
_ZN5Block11DerivedInitEv = __main_start + 0x4bf4c;
_ZN5Block13sendBlockDataEh = __main_start + 0x4bfbc;
_ZN5Block26setBaseItemTypeAndMaterialEii = __main_start + 0x4bfc4;
_ZN5Block15getBaseItemTypeEv = __main_start + 0x4bfcc;
_ZN5Block12setSoundTypeEPK9SoundType = __main_start + 0x4bfd4;
_ZN5Block13setLightBlockEi = __main_start + 0x4bfdc;
_ZN5Block16setLightEmissionEf = __main_start + 0x4bfe4;
_ZN5Block14setExplodeableEf = __main_start + 0x4bff8;
_ZN5Block19isSolidBlockingCubeEPK10BlockState = __main_start + 0x4c0b8;
_ZN5Block37isSolidBlockingCubeAndNotSignalSourceEPK10BlockState = __main_start + 0x4c104;
_ZN5Block14isViewBlockingEPK10BlockState = __main_start + 0x4c168;
_ZN5Block12isCubeShapedEPK10BlockState = __main_start + 0x4c1b8;
_ZN5Block25hasCustomBreakingProgressEPK10BlockState = __main_start + 0x4c1c0;
_ZN5Block14isPathfindableEP11LevelSourceRK8BlockPos = __main_start + 0x4c1c8;
_ZN5Block14getRenderShapeEPK10BlockState = __main_start + 0x4c1f0;
_ZN5Block21hasInHandRenderOffsetEv = __main_start + 0x4c1f8;
_ZN5Block19mayReplaceWithPlaceEP11LevelSourceRK8BlockPos = __main_start + 0x4c200;
_ZN5Block14setDestroyTimeEf = __main_start + 0x4c208;
_ZN5Block17setIndestructibleEv = __main_start + 0x4c228;
_ZN5Block16isIndestructibleEv = __main_start + 0x4c25c;
_ZN5Block15getDestroySpeedEPK10BlockStateP5LevelRK8BlockPos = __main_start + 0x4c274;
_ZN5Block10setTickingEb = __main_start + 0x4c27c;
_ZN5Block9isTickingEv = __main_start + 0x4c288;
_ZN5Block13disableMipmapEv = __main_start + 0x4c290;
_ZN5Block18setSemiTransparentEv = __main_start + 0x4c298;
_ZN5Block8getShapeEPK10BlockStateP11LevelSourceRK8BlockPos = __main_start + 0x4c2a4;
_ZN5Block13getLightColorEPK10BlockStateP11LevelSourceRK8BlockPosi = __main_start + 0x4c2b4;
_ZN5Block16shouldRenderFaceEPK10BlockStateP11LevelSourceRK8BlockPosPK9Direction = __main_start + 0x4c3c0;
_ZN5Block29neighbourVisibleThroughShapesEPK15arrayWithLengthIPK4AABBEP11LevelSourceRK8BlockPosRP9Direction = __main_start + 0x4c464;
_ZN5Block9getShapesEPK10BlockStateP11LevelSourcePK8BlockPos = __main_start + 0x4c4e4;
_ZN5Block28neighbourVisibleThroughShapeEPK4AABBP11LevelSourceRK8BlockPosPK9Direction = __main_start + 0x4c5a0;
_ZN5Block11isSolidFaceEP11LevelSourceRK8BlockPosPK9Direction = __main_start + 0x4ca50;
_ZN5Block17getBlockFaceShapeEP11LevelSourcePK10BlockStateRK8BlockPosPK9Direction = __main_start + 0x4ca88;
_ZN5Block14getOutlineAABBEPK10BlockStateP5LevelRK8BlockPos = __main_start + 0x4ca90;
_ZN5Block17addCollisionAABBsEPK10BlockStateP5LevelRK8BlockPosPK4AABBPSt6vectorIP4AABBSt9allocatorIP4AABBEESt10shared_ptrI6EntityEb = __main_start + 0x4cac8;
_ZN5Block16addCollisionAABBERK8BlockPosPK4AABBPSt6vectorIP4AABBSt9allocatorIP4AABBEEPK4AABB = __main_start + 0x4cb3c;
_ZN5Block11getClipAABBEPK10BlockStateP11LevelSourceRK8BlockPos = __main_start + 0x4cbb4;
_ZNK5Block13isSolidRenderEPK10BlockState = __main_start + 0x4cbcc;
_ZN5Block7mayPickEPK10BlockStateb = __main_start + 0x4cbd4;
_ZN5Block7mayPickEv = __main_start + 0x4cbe0;
_ZN5Block10randomTickEP5LevelRK8BlockPosPK10BlockStateP6Random = __main_start + 0x4cbe8;
_ZN5Block4tickEP5LevelRK8BlockPosPK10BlockStateP6Random = __main_start + 0x4cbf4;
_ZN5Block11animateTickEPK10BlockStateP5LevelRK8BlockPosP6Random = __main_start + 0x4cbf8;
_ZN5Block7destroyEP5LevelRK8BlockPosPK10BlockState = __main_start + 0x4cbfc;
_ZN5Block9addLightsEP5LevelRK8BlockPos = __main_start + 0x4cc00;
_ZN5Block12getTickDelayEP5Level = __main_start + 0x4cc04;
_ZN5Block7onPlaceEP5LevelRK8BlockPosPK10BlockState = __main_start + 0x4cc0c;
_ZN5Block16getResourceCountEP6Random = __main_start + 0x4cc10;
_ZN5Block11getResourceEPK10BlockStateP6Randomi = __main_start + 0x4cc18;
_ZN5Block18getDestroyProgressEPK10BlockStateSt10shared_ptrI6PlayerEP5LevelRK8BlockPos = __main_start + 0x4cc1c;
_ZN5Block14spawnResourcesEP5LevelRK8BlockPosPK10BlockStatei = __main_start + 0x4ccb0;
_ZN5Block13popExperienceEP5LevelRK8BlockPosi = __main_start + 0x4cd98;
_ZN5Block25getSpawnResourcesAuxValueEPK10BlockState = __main_start + 0x4cfb4;
_ZN5Block22getExplosionResistanceESt10shared_ptrI6EntityE = __main_start + 0x4cfbc;
_ZN5Block4clipEPK10BlockStateP5LevelRK8BlockPosP4Vec3P4Vec3 = __main_start + 0x4cfcc;
_ZN5Block4clipERK8BlockPosP4Vec3P4Vec3PK4AABB = __main_start + 0x4d040;
_ZN5Block11wasExplodedEP5LevelRK8BlockPosP9Explosion = __main_start + 0x4d170;
_ZN5Block14getRenderLayerEv = __main_start + 0x4d2b4;
_ZN5Block8mayPlaceEP5LevelRK8BlockPosPK9Direction = __main_start + 0x4d2bc;
_ZN5Block7TestUseEv = __main_start + 0x4d2c8;
_ZN5Block7TestUseEP5LevelRK8BlockPosPK10BlockStateSt10shared_ptrI6PlayerE = __main_start + 0x4d2d0;
_ZN5Block3useEP5LevelRK8BlockPosPK10BlockStateSt10shared_ptrI6PlayerEN15InteractionHand16EInteractionHandEPK9Directionfffb = __main_start + 0x4d2d8;
_ZN5Block6stepOnEP5LevelRK8BlockPosSt10shared_ptrI6EntityE = __main_start + 0x4d2e0;
_ZN5Block13prepareRenderEP5LevelRK8BlockPos = __main_start + 0x4d2e4;
_ZN5Block6attackEP5LevelRK8BlockPosSt10shared_ptrI6PlayerE = __main_start + 0x4d2e8;
_ZN5Block18handleEntityInsideEP5LevelRK8BlockPosSt10shared_ptrI6EntityEP4Vec3 = __main_start + 0x4d2ec;
_ZNK5Block8getColorEv = __main_start + 0x4d2f4;
_ZN5Block8getColorEPK10BlockState = __main_start + 0x4d2fc;
_ZN5Block8getColorEP11LevelSourceRK8BlockPosi = __main_start + 0x4d304;
_ZN5Block8getColorEP11LevelSourceRK8BlockPos = __main_start + 0x4d30c;
_ZN5Block8getColorEP11LevelSourceRK8BlockPosPK10BlockState = __main_start + 0x4d31c;
_ZN5Block9getSignalEPK10BlockStateP11LevelSourceRK8BlockPosPK9Direction = __main_start + 0x4d324;
_ZN5Block14isSignalSourceEPK10BlockState = __main_start + 0x4d334;
_ZN5Block12entityInsideEP5LevelRK8BlockPosPK10BlockStateRKSt10shared_ptrI6EntityE = __main_start + 0x4d33c;
_ZN5Block15getDirectSignalEPK10BlockStateP11LevelSourceRK8BlockPosPK9Direction = __main_start + 0x4d340;
_ZN5Block15isSilkTouchableEv = __main_start + 0x4d3a8;
_ZN5Block24getSilkTouchItemInstanceEPK10BlockState = __main_start + 0x4d3ec;
_ZN5Block28getResourceCountForLootBonusEiP6Random = __main_start + 0x4d46c;
_ZN5Block25isPossibleToRespawnInThisEv = __main_start + 0x4d47c;
_ZN5Block23setNameAndDescriptionIdEii = __main_start + 0x4d4cc;
_ZN5Block7getNameEv = __main_start + 0x4d4d4;
_ZN5Block16getDescriptionIdEi = __main_start + 0x4d514;
_ZN5Block19getUseDescriptionIdEv = __main_start + 0x4d51c;
_ZN5Block19isCollectStatisticsEv = __main_start + 0x4d524;
_ZN5Block23setNotCollectStatisticsEv = __main_start + 0x4d52c;
_ZN5Block21getPistonPushReactionEPK10BlockState = __main_start + 0x4d534;
_ZN5Block18getShadeBrightnessEPK10BlockState = __main_start + 0x4d544;
_ZN5Block20getCloneItemInstanceEP5LevelRK8BlockPosPK10BlockState = __main_start + 0x4d578;
_ZN5Block17playerWillDestroyEP5LevelRK8BlockPosPK10BlockStateSt10shared_ptrI6PlayerE = __main_start + 0x4d5f4;
_ZN5Block10handleRainEP5LevelRK8BlockPos = __main_start + 0x4d5f8;
_ZN5Block16canInstantlyTickEv = __main_start + 0x4d5fc;
_ZN5Block17dropFromExplosionEP9Explosion = __main_start + 0x4d604;
_ZN5Block10isMatchingEP5Block = __main_start + 0x4d60c;
_ZN5Block10isMatchingEP5BlockP5Block = __main_start + 0x4d618;
_ZN5Block21hasAnalogOutputSignalEPK10BlockState = __main_start + 0x4d648;
_ZN5Block21getAnalogOutputSignalEPK10BlockStateP5LevelRK8BlockPos = __main_start + 0x4d650;
_ZN5Block11setIconNameERKSt12basic_stringIwSt11char_traitsIwESt9allocatorIwEE = __main_start + 0x4d660;
_ZN5Block11getIconNameEv = __main_start + 0x4d688;
_ZN5Block19getTileItemIconNameEv = __main_start + 0x4d7d0;
_ZN5Block14getIconTextureEPK9DirectionPK10BlockState = __main_start + 0x4d810;
_ZN5Block10getTextureEP11LevelSourceRK8BlockPosPK9DirectionPK10BlockState = __main_start + 0x4d81c;
_ZN5Block10getTextureEPK9DirectionPK10BlockState = __main_start + 0x4d9d0;
_ZN5Block10getTextureEPK9Direction = __main_start + 0x4d9d8;
_ZN5Block23getInventoryRenderStateEPK10BlockState = __main_start + 0x4da24;
_ZN5Block26createBlockStateDefinitionEv = __main_start + 0x4da2c;
_ZN5Block23getBlockStateDefinitionEv = __main_start + 0x4da60;
_ZN5Block13getOffsetTypeEv = __main_start + 0x4da68;
_ZN5Block9getOffsetEPK10BlockStateP11LevelSourceRK8BlockPos = __main_start + 0x4da70;
_ZN5Block12getSoundTypeEv = __main_start + 0x4db58;
_ZN5Block8toStringEv = __main_start + 0x4db60;
_ZN5Block15appendHoverTextE12not_null_ptrI12ItemInstanceESt10shared_ptrI6PlayerEPSt6vectorI10HtmlStringSt9allocatorI10HtmlStringEEb = __main_start + 0x4dc30;
_ZN5Block10staticCtorEv = __main_start + 0x4dc34;
_ZN11BlockEntity8getLevelEv = __main_start + 0x5e100;
_ZN11BlockEntity8setLevelEP5Level = __main_start + 0x5e108;
_ZN11BlockEntity8hasLevelEv = __main_start + 0x5e110;
_ZN11BlockEntity12saveMetadataEP11CompoundTag = __main_start + 0x5e120;
_ZN11BlockEntity4tickEv = __main_start + 0x5e2a8;
_ZN11BlockEntity18setLevelForLoadingEP5Level = __main_start + 0x5e47c;
_ZN11BlockEntity7getDataEv = __main_start + 0x5e480;
_ZN11BlockEntity7setDataEi = __main_start + 0x5e4e0;
_ZN11BlockEntity10setChangedEv = __main_start + 0x5e4e8;
_ZN11BlockEntity13distanceToSqrEddd = __main_start + 0x5e5d0;
_ZN11BlockEntity15getViewDistanceEv = __main_start + 0x5e65c;
_ZN11BlockEntity11getBlockPosEv = __main_start + 0x5e668;
_ZN11BlockEntity8getBlockEv = __main_start + 0x5e678;
_ZN11BlockEntity15getUpdatePacketEv = __main_start + 0x5e6c4;
_ZN11BlockEntity12getUpdateTagEv = __main_start + 0x5e6cc;
_ZN11BlockEntity29getUpdateTagForPistonMovementEv = __main_start + 0x5e700;
_ZN11BlockEntity9isRemovedEv = __main_start + 0x5e70c;
_ZN11BlockEntity10setRemovedEv = __main_start + 0x5e714;
_ZN11BlockEntity12clearRemovedEv = __main_start + 0x5e720;
_ZN11BlockEntity10clearCacheEv = __main_start + 0x5e728;
_ZN11BlockEntity11setPositionERK8BlockPos = __main_start + 0x5e738;
_ZN11BlockEntity15onlyOpCanSetNbtEv = __main_start + 0x5e74c;
_ZN11BlockEntity14getDisplayNameEv = __main_start + 0x5e784;
_ZN11BlockEntity10staticCtorEv = __main_start + 0x5e7c8;
_ZN9BlockItem16setDescriptionIdEj = __main_start + 0x5f6b4;
_ZN5Vec3iC2Eiii = __main_start + 0x60a40;
_ZN8BlockPosC1Ev = __main_start + 0x61a58;
_ZN8BlockPosC1ERKSt10shared_ptrI6EntityE = __main_start + 0x61a6c;
_ZN8BlockPosC1EP6Entity = __main_start + 0x61a7c;
_ZN8BlockPosC1EP4Vec3 = __main_start + 0x61a88;
_ZN8BlockPosC1ERK5Vec3i = __main_start + 0x61a94;
_ZNK8BlockPos8relativeEPK9Directioni = __main_start + 0x61d38;
_ZNK8BlockPos5belowEi = __main_start + 0x61dd0;
_ZNK8BlockPos5northEi = __main_start + 0x61dfc;
_ZNK8BlockPos5southEi = __main_start + 0x61e28;
_ZNK8BlockPos4westEi = __main_start + 0x61e54;
_ZNK8BlockPos4eastEi = __main_start + 0x61e80;
_ZNK8BlockPos16compressBlockPosEv = __main_start + 0x61f9c;
_ZN8BlockPos18decompressBlockPosEx = __main_start + 0x62030;
_ZN15MutableBlockPosC1Eiii = __main_start + 0x622e4;
_ZN23BlockRegionUpdatePacketD2Ev = __main_start + 0x628cc;
_ZN6PacketD2Ev = __main_start + 0x62960;
_ZN23BlockRegionUpdatePacketD0Ev = __main_start + 0x62964;
_ZN23BlockRegionUpdatePacketC1Ev = __main_start + 0x62988;
_ZN23BlockRegionUpdatePacket4readEP15DataInputStream = __main_start + 0x62dc8;
_ZN23BlockRegionUpdatePacket5writeEP16DataOutputStream = __main_start + 0x630a4;
_ZN23BlockRegionUpdatePacket6handleEP14PacketListener = __main_start + 0x63238;
_ZN23BlockRegionUpdatePacket16getEstimatedSizeEv = __main_start + 0x63298;
_ZN6Blocks10staticInitEv = __main_start + 0x632b4;
_ZN6Blocks3getERKNSt3__112basic_stringIwNS2_11char_traitsIwEENS2_9allocatorIwEEEE = __main_start + 0x6764c;
_ZN20BlockStateDefinitionC1EP5Block = __main_start + 0x68364;
_ZNK20BlockStateDefinition8getBlockEv = __main_start + 0x68460;
_ZN20BlockStateDefinition14BlockStateImplC2EPS_t = __main_start + 0x6887c;
_ZNK20BlockStateDefinition14BlockStateImpl13getPropertiesEv = __main_start + 0x68908;
_ZNK20BlockStateDefinition14BlockStateImpl11hasPropertyEPK8Property = __main_start + 0x68920;
_ZNK20BlockStateDefinition14BlockStateImpl13getBoxedValueEPK8Property = __main_start + 0x68928;
_ZNK20BlockStateDefinition14BlockStateImpl13setBoxedValueEPK8PropertyP5Boxed = __main_start + 0x68938;
_ZNK20BlockStateDefinition14BlockStateImpl9getValuesEv = __main_start + 0x689a8;
_ZNK20BlockStateDefinition14BlockStateImpl8getBlockEv = __main_start + 0x689b8;
_ZN20BlockStateDefinition14BlockStateImpl6equalsEPK10BlockState = __main_start + 0x689c0;
_ZNK20BlockStateDefinition14BlockStateImpl8hashCodeEv = __main_start + 0x689cc;
_ZNK20BlockStateDefinition14BlockStateImpl11getMaterialEv = __main_start + 0x689d4;
_ZNK20BlockStateDefinition14BlockStateImpl7isSolidEv = __main_start + 0x689ec;
_ZNK20BlockStateDefinition14BlockStateImpl12isValidSpawnENSt3__110shared_ptrI6EntityEE = __main_start + 0x68a04;
_ZNK20BlockStateDefinition14BlockStateImpl13getLightBlockEv = __main_start + 0x68a74;
_ZNK20BlockStateDefinition14BlockStateImpl16getLightEmissionEv = __main_start + 0x68a8c;
_ZNK20BlockStateDefinition14BlockStateImpl13isTranslucentEv = __main_start + 0x68a9c;
_ZNK20BlockStateDefinition14BlockStateImpl13doesPropagateEv = __main_start + 0x68ab4;
_ZN20BlockStateDefinition14BlockStateImpl11getMapColorEP11LevelSourceRK8BlockPos = __main_start + 0x68acc;
_ZNK20BlockStateDefinition14BlockStateImpl6rotateEP8Rotation = __main_start + 0x68b1c;
_ZNK20BlockStateDefinition14BlockStateImpl6mirrorEP6Mirror = __main_start + 0x68b3c;
_ZNK20BlockStateDefinition14BlockStateImpl12isCubeShapedEv = __main_start + 0x68b5c;
_ZNK20BlockStateDefinition14BlockStateImpl25hasCustomBreakingProgressEv = __main_start + 0x68b74;
_ZNK20BlockStateDefinition14BlockStateImpl14getRenderShapeEv = __main_start + 0x68b8c;
_ZNK20BlockStateDefinition14BlockStateImpl13getLightColorEP11LevelSourceRK8BlockPos = __main_start + 0x68ba4;
_ZNK20BlockStateDefinition14BlockStateImpl18getShadeBrightnessEv = __main_start + 0x68bd0;
_ZNK20BlockStateDefinition14BlockStateImpl19isSolidBlockingCubeEv = __main_start + 0x68be8;
_ZNK20BlockStateDefinition14BlockStateImpl37isSolidBlockingCubeAndNotSignalSourceEv = __main_start + 0x68c00;
_ZNK20BlockStateDefinition14BlockStateImpl14isSignalSourceEv = __main_start + 0x68c18;
_ZNK20BlockStateDefinition14BlockStateImpl9getSignalEP11LevelSourceRK8BlockPosPK9Direction = __main_start + 0x68c30;
_ZNK20BlockStateDefinition14BlockStateImpl21hasAnalogOutputSignalEv = __main_start + 0x68c60;
_ZNK20BlockStateDefinition14BlockStateImpl21getAnalogOutputSignalEP5LevelRK8BlockPos = __main_start + 0x68c78;
_ZNK20BlockStateDefinition14BlockStateImpl15getDestroySpeedEP5LevelRK8BlockPos = __main_start + 0x68ca0;
_ZNK20BlockStateDefinition14BlockStateImpl18getDestroyProgressENSt3__110shared_ptrI6PlayerEEP5LevelRK8BlockPos = __main_start + 0x68cc8;
_ZNK20BlockStateDefinition14BlockStateImpl15getDirectSignalEP11LevelSourceRK8BlockPosPK9Direction = __main_start + 0x68d58;
_ZNK20BlockStateDefinition14BlockStateImpl21getPistonPushReactionEv = __main_start + 0x68d88;
_ZNK20BlockStateDefinition14BlockStateImpl31fillVirtualBlockStatePropertiesEP11LevelSourceRK8BlockPos = __main_start + 0x68da0;
_ZNK20BlockStateDefinition14BlockStateImpl14getOutlineAABBEP5LevelRK8BlockPos = __main_start + 0x68dc8;
_ZNK20BlockStateDefinition14BlockStateImpl16shouldRenderFaceEP11LevelSourceRK8BlockPosPK9Direction = __main_start + 0x68df0;
_ZNK20BlockStateDefinition14BlockStateImpl13isSolidRenderEv = __main_start + 0x68e20;
_ZNK20BlockStateDefinition14BlockStateImpl11getClipAABBEP11LevelSourceRK8BlockPos = __main_start + 0x68e38;
_ZNK20BlockStateDefinition14BlockStateImpl18addCollissionAABBsEP5LevelRK8BlockPosPK4AABBPNSt3__16vectorIPS6_NS9_9allocatorISB_EEEENS9_10shared_ptrI6EntityEEb = __main_start + 0x68e60;
_ZNK20BlockStateDefinition14BlockStateImpl8getShapeEP11LevelSourceRK8BlockPos = __main_start + 0x68f00;
_ZNK20BlockStateDefinition14BlockStateImpl4clipEP5LevelRK8BlockPosP4Vec3S7_ = __main_start + 0x68f28;
_ZNK20BlockStateDefinition14BlockStateImpl18isTopSolidBlockingEv = __main_start + 0x68f60;
_ZNK20BlockStateDefinition14BlockStateImpl9getOffsetEP11LevelSourceRK8BlockPos = __main_start + 0x68f78;
_ZNK20BlockStateDefinition14BlockStateImpl12triggerEventEP5LevelRK8BlockPosii = __main_start + 0x68fa0;
vtbl_7101026F60_func_0 = __main_start + 0x68fd8;
_ZNK20BlockStateDefinition14BlockStateImpl15neighborChangedEP5LevelRK8BlockPosP5BlockS5_ = __main_start + 0x68fe0;
vtbl_7101026F60_func_1 = __main_start + 0x69018;
_ZNK20BlockStateDefinition14BlockStateImpl14isViewBlockingEv = __main_start + 0x69020;
_ZNK20BlockStateDefinition14BlockStateImpl17getBlockFaceShapeEP11LevelSourceRK8BlockPosPK9Direction = __main_start + 0x69038;
_ZN4Boat10staticCtorEv = __main_start + 0x69480;
_ZN9BoneBlock13registerIconsEP12IconRegister = __main_start + 0x6ce8c;
_ZN9BoneBlock14getRenderShapeEPK10BlockState = __main_start + 0x6cf90;
_ZN17BonusChestFeature5placeEP5LevelR6RandomRK8BlockPosb = __main_start + 0x6cfe0;
_ZN14BookshelfBlock16getResourceCountEP6Random = __main_start + 0x6dbf8;
_ZN14BookshelfBlock11getResourceEPK10BlockStateP6Randomi = __main_start + 0x6dc00;
_ZN14BookshelfBlock10getTextureEPK9DirectionPK10BlockState = __main_start + 0x6dc10;
._ZNSt3__110to_wstringEi_0 = __main_start + 0x6e294;
_ZN12BorderStatusC1Ei = __main_start + 0x6e6d0;
_ZN17BrewingStandBlock7getNameEv = __main_start + 0x714ec;
_ZNK17BrewingStandBlock13isSolidRenderEPK10BlockState = __main_start + 0x71530;
_ZN17BrewingStandBlock12isCubeShapedEPK10BlockState = __main_start + 0x717b4;
_ZN17BrewingStandBlock17addCollisionAABBsEPK10BlockStateP5LevelRK8BlockPosPK4AABBPSt6vectorIP4AABBSt9allocatorIP4AABBEESt10shared_ptrI6EntityEb = __main_start + 0x717bc;
_ZN17BrewingStandBlock8getShapeEPK10BlockStateP11LevelSourceRK8BlockPos = __main_start + 0x71834;
_ZN17BrewingStandBlock3useEP5LevelRK8BlockPosPK10BlockStateSt10shared_ptrI6PlayerEN15InteractionHand16EInteractionHandEPK9Directionfffb = __main_start + 0x71844;
_ZN17BrewingStandBlock11setPlacedByEP5LevelRK8BlockPosPK10BlockStateSt10shared_ptrI12LivingEntityE12not_null_ptrI12ItemInstanceE = __main_start + 0x71948;
_ZN17BrewingStandBlock11animateTickEPK10BlockStateP5LevelRK8BlockPosP6Random = __main_start + 0x71a60;
_ZN17BrewingStandBlock8onRemoveEP5LevelRK8BlockPosPK10BlockState = __main_start + 0x71b6c;
_ZN17BrewingStandBlock11getResourceEPK10BlockStateP6Randomi = __main_start + 0x71cd8;
_ZN17BrewingStandBlock20getCloneItemInstanceEP5LevelRK8BlockPosPK10BlockState = __main_start + 0x71ce8;
_ZN17BrewingStandBlock21hasAnalogOutputSignalEPK10BlockState = __main_start + 0x71d28;
_ZN17BrewingStandBlock21getAnalogOutputSignalEPK10BlockStateP5LevelRK8BlockPos = __main_start + 0x71d30;
_ZN17BrewingStandBlock14getRenderLayerEv = __main_start + 0x71d80;
_ZN17BrewingStandBlock13getBlockStateEi = __main_start + 0x71d88;
_ZN17BrewingStandBlock29convertBlockStateToLegacyDataEPK10BlockState = __main_start + 0x71dd0;
_ZN17BrewingStandBlock18GetInteractTooltipERK22BlockTooltipDataHolder = __main_start + 0x71e44;
_ZN17BrewingStandBlock17getBlockFaceShapeEP11LevelSourcePK10BlockStateRK8BlockPosPK9Direction = __main_start + 0x71e6c;
_ZN17BrewingStandBlock26createBlockStateDefinitionEv = __main_start + 0x71e74;
_ZN17BrewingStandBlock13registerIconsEP12IconRegister = __main_start + 0x71ef0;
_ZN17BrewingStandBlock14getRenderShapeEPK10BlockState = __main_start + 0x71f98;
_ZN23BrewingStandBlockEntity14addDataWalkersEP14DataFixerUpper = __main_start + 0x72c30;
_ZN6BufferC1Ev = __main_start + 0x75830;
_ZN20BufferedOutputStreamC1EP12OutputStreami = __main_start + 0x7587c;
_ZN12OutputStreamC1Ev = __main_start + 0x758f4;
_ZN20BufferedOutputStreamD2Ev = __main_start + 0x75908;
_ZN20BufferedOutputStreamD0Ev = __main_start + 0x75948;
_ZN20BufferedOutputStream5flushEv = __main_start + 0x7596c;
_ZN20BufferedOutputStream5closeEv = __main_start + 0x759a8;
_ZN20BufferedOutputStream5writeE15arrayWithLengthIhEjj = __main_start + 0x759dc;
_ZN20BufferedOutputStream5writeE15arrayWithLengthIhE = __main_start + 0x75aa4;
_ZN20BufferedOutputStream5writeEj = __main_start + 0x75ab8;
_ZN14BufferedReaderC1Ev = __main_start + 0x75b18;
_ZN14BufferedReaderD2Ev = __main_start + 0x75c54;
_ZN14BufferedReaderD0Ev = __main_start + 0x75c90;
_ZN14BufferedReader5closeEv = __main_start + 0x75cb4;
_ZN14BufferedReader4readEv = __main_start + 0x75cc4;
_ZN14BufferedReader4readEPwjj = __main_start + 0x75d3c;
_ZN17BuiltInLootTables10staticCtorEv = __main_start + 0x75f4c;
_ZN17YellowFlowerBlock8mayPlaceEP5LevelRK8BlockPos = __main_start + 0x9a188;
_ZN17YellowFlowerBlock15neighborChangedEPK10BlockStateP5LevelRK8BlockPosP5BlockRK8BlockPos = __main_start + 0x9a2a0;
_ZN17YellowFlowerBlock4tickEP5LevelRK8BlockPosPK10BlockStateP6Random = __main_start + 0x9a2bc;
_ZN17YellowFlowerBlock11getClipAABBEPK10BlockStateP11LevelSourceRK8BlockPos = __main_start + 0x9a3f4;
_ZNK17YellowFlowerBlock13isSolidRenderEPK10BlockState = __main_start + 0x9a3fc;
_ZN17YellowFlowerBlock12isCubeShapedEPK10BlockState = __main_start + 0x9a404;
_ZN17YellowFlowerBlock14getRenderLayerEv = __main_start + 0x9a40c;
_ZN17YellowFlowerBlock17getBlockFaceShapeEP11LevelSourcePK10BlockStateRK8BlockPosPK9Direction = __main_start + 0x9a414;
_ZN17YellowFlowerBlock14getRenderShapeEPK10BlockState = __main_start + 0x9a41c;
_ZN11BushFeatureC1EP4Bush = __main_start + 0x9a424;
_ZN15WoodButtonBlock11DerivedInitEv = __main_start + 0x9a5e0;
_ZN15WoodButtonBlock11getClipAABBEPK10BlockStateP11LevelSourceRK8BlockPos = __main_start + 0x9a690;
_ZN15WoodButtonBlock12getTickDelayEP5Level = __main_start + 0x9a698;
_ZNK15WoodButtonBlock13isSolidRenderEPK10BlockState = __main_start + 0x9a6b0;
_ZN15WoodButtonBlock12isCubeShapedEPK10BlockState = __main_start + 0x9a6b8;
_ZN15WoodButtonBlock8mayPlaceEP5LevelRK8BlockPosPK9Direction = __main_start + 0x9a6c0;
_ZN15WoodButtonBlock8mayPlaceEP5LevelRK8BlockPos = __main_start + 0x9a7d8;
_ZN15WoodButtonBlock20getStateForPlacementEP5LevelRK8BlockPosPK9DirectionfffiSt10shared_ptrI12LivingEntityE = __main_start + 0x9a840;
_ZN15WoodButtonBlock15neighborChangedEPK10BlockStateP5LevelRK8BlockPosP5BlockRK8BlockPos = __main_start + 0x9a8b8;
_ZN15WoodButtonBlock25getSpawnResourcesAuxValueEPK10BlockState = __main_start + 0x9a9e4;
_ZN15WoodButtonBlock8getShapeEPK10BlockStateP11LevelSourceRK8BlockPos = __main_start + 0x9a9ec;
_ZN15WoodButtonBlock7TestUseEv = __main_start + 0x9aa84;
_ZN15WoodButtonBlock3useEP5LevelRK8BlockPosPK10BlockStateSt10shared_ptrI6PlayerEN15InteractionHand16EInteractionHandEPK9Directionfffb = __main_start + 0x9aa8c;
_ZN15WoodButtonBlock8onRemoveEP5LevelRK8BlockPosPK10BlockState = __main_start + 0x9ac8c;
_ZN15WoodButtonBlock9getSignalEPK10BlockStateP11LevelSourceRK8BlockPosPK9Direction = __main_start + 0x9ad08;
_ZN15WoodButtonBlock15getDirectSignalEPK10BlockStateP11LevelSourceRK8BlockPosPK9Direction = __main_start + 0x9ad4c;
_ZN15WoodButtonBlock14isSignalSourceEPK10BlockState = __main_start + 0x9adbc;
_ZN15WoodButtonBlock10randomTickEP5LevelRK8BlockPosPK10BlockStateP6Random = __main_start + 0x9adc4;
_ZN15WoodButtonBlock4tickEP5LevelRK8BlockPosPK10BlockStateP6Random = __main_start + 0x9adc8;
_ZN15WoodButtonBlock12entityInsideEP5LevelRK8BlockPosPK10BlockStateRKSt10shared_ptrI6EntityE = __main_start + 0x9b0e8;
_ZN15WoodButtonBlock13getBlockStateEi = __main_start + 0x9b160;
_ZN15WoodButtonBlock29convertBlockStateToLegacyDataEPK10BlockState = __main_start + 0x9b1bc;
_ZN15WoodButtonBlock18GetInteractTooltipERK22BlockTooltipDataHolder = __main_start + 0x9b22c;
_ZN15WoodButtonBlock6rotateEPK10BlockStateP8Rotation = __main_start + 0x9b254;
_ZN15WoodButtonBlock6mirrorEPK10BlockStateP6Mirror = __main_start + 0x9b2ac;
_ZN15WoodButtonBlock26createBlockStateDefinitionEv = __main_start + 0x9b314;
_ZN15WoodButtonBlock17getBlockFaceShapeEP11LevelSourcePK10BlockStateRK8BlockPosPK9Direction = __main_start + 0x9b394;
_ZN15WoodButtonBlock15shouldBlockTickEP5LevelRK8BlockPosPK10BlockState = __main_start + 0x9b39c;
_ZN15WoodButtonBlock10getTextureEPK9DirectionPK10BlockState = __main_start + 0x9b3b0;
_ZN15WoodButtonBlock13registerIconsEP12IconRegister = __main_start + 0x9b3f4;
_ZN12ByteArrayTagC1Ev = __main_start + 0x9b8e0;
_ZN12ByteArrayTagC1E15arrayWithLengthIhEb = __main_start + 0x9b91c;
_ZN12ByteArrayTagD1Ev = __main_start + 0x9b974;
_ZN12ByteArrayTagD0Ev = __main_start + 0x9b9b8;
_ZN12ByteArrayTag5writeEP10DataOutput = __main_start + 0x9b9dc;
_ZN12ByteArrayTag4loadEP9DataInputi = __main_start + 0x9ba20;
_ZN12ByteArrayTag5getIdEv = __main_start + 0x9bab8;
_ZN12ByteArrayTag8toStringEv = __main_start + 0x9bac0;
_ZN12ByteArrayTag6equalsEP3Tag = __main_start + 0x9bb18;
_ZN12ByteArrayTag4copyEv = __main_start + 0x9bb7c;
_ZN10ByteBufferC1Ej = __main_start + 0x9bbf0;
_ZN10ByteBufferD2Ev = __main_start + 0x9bc7c;
_ZN10ByteBufferD0Ev = __main_start + 0x9bcc0;
_ZN10ByteBuffer8allocateEj = __main_start + 0x9bce4;
_ZN10ByteBuffer4flipEv = __main_start + 0x9bd18;
_ZN10ByteBuffer9getBufferEv = __main_start + 0x9bd24;
_ZN10ByteBuffer11asIntBufferEv = __main_start + 0x9be70;
_ZN10NumericTagC1Ev = __main_start + 0x9bf28;
_ZN7ByteTag5writeEP10DataOutput = __main_start + 0x9bf90;
_ZN7ByteTag4loadEP9DataInputi = __main_start + 0x9bfa8;
_ZN7ByteTag5getIdEv = __main_start + 0x9bfd8;
_ZN7ByteTag8toStringEv = __main_start + 0x9bfe0;
_ZN7ByteTag6equalsEP3Tag = __main_start + 0x9c038;
_ZN7ByteTag4copyEv = __main_start + 0x9c078;
_ZN7ByteTag9getAsLongEv = __main_start + 0x9c0ac;
_ZN7ByteTag8getAsIntEv = __main_start + 0x9c0b4;
_ZN7ByteTag10getAsShortEv = __main_start + 0x9c0bc;
_ZN7ByteTag9getAsByteEv = __main_start + 0x9c0c4;
_ZN7ByteTag11getAsDoubleEv = __main_start + 0x9c0cc;
_ZN7ByteTag10getAsFloatEv = __main_start + 0x9c0d8;
_ZN11CactusBlock4tickEP5LevelRK8BlockPosPK10BlockStateP6Random = __main_start + 0x9c160;
_ZN11CactusBlock11getClipAABBEPK10BlockStateP11LevelSourceRK8BlockPos = __main_start + 0x9c2d8;
_ZN11CactusBlock14getOutlineAABBEPK10BlockStateP5LevelRK8BlockPos = __main_start + 0x9c2e8;
_ZN11CactusBlock12isCubeShapedEPK10BlockState = __main_start + 0x9c2fc;
_ZNK11CactusBlock13isSolidRenderEPK10BlockState = __main_start + 0x9c304;
_ZN11CactusBlock8mayPlaceEP5LevelRK8BlockPos = __main_start + 0x9c30c;
_ZN11CactusBlock15neighborChangedEPK10BlockStateP5LevelRK8BlockPosP5BlockRK8BlockPos = __main_start + 0x9c368;
_ZN11CactusBlock12entityInsideEP5LevelRK8BlockPosPK10BlockStateRKSt10shared_ptrI6EntityE = __main_start + 0x9c530;
_ZN11CactusBlock14getRenderLayerEv = __main_start + 0x9c550;
_ZN11CactusBlock13getBlockStateEi = __main_start + 0x9c558;
_ZN11CactusBlock29convertBlockStateToLegacyDataEPK10BlockState = __main_start + 0x9c588;
_ZN11CactusBlock26createBlockStateDefinitionEv = __main_start + 0x9c5a0;
_ZN11CactusBlock17getBlockFaceShapeEP11LevelSourcePK10BlockStateRK8BlockPosPK9Direction = __main_start + 0x9c614;
_ZN11CactusBlock15shouldBlockTickEP5LevelRK8BlockPosPK10BlockState = __main_start + 0x9c61c;
_ZN11CactusBlock10getTextureEPK9DirectionPK10BlockState = __main_start + 0x9c668;
_ZN11CactusBlock13registerIconsEP12IconRegister = __main_start + 0x9c6b4;
_ZN11CactusBlock14getRenderShapeEPK10BlockState = __main_start + 0x9c7bc;
_ZN9CakeBlock8getShapeEPK10BlockStateP11LevelSourceRK8BlockPos = __main_start + 0x9c9b8;
_ZN9CakeBlock12isCubeShapedEPK10BlockState = __main_start + 0x9c9ec;
_ZNK9CakeBlock13isSolidRenderEPK10BlockState = __main_start + 0x9c9f4;
_ZN9CakeBlock7TestUseEv = __main_start + 0x9c9fc;
_ZN9CakeBlock3useEP5LevelRK8BlockPosPK10BlockStateSt10shared_ptrI6PlayerEN15InteractionHand16EInteractionHandEPK9Directionfffb = __main_start + 0x9ca04;
_ZN9CakeBlock8mayPlaceEP5LevelRK8BlockPos = __main_start + 0x9cbbc;
_ZN9CakeBlock15neighborChangedEPK10BlockStateP5LevelRK8BlockPosP5BlockRK8BlockPos = __main_start + 0x9cc18;
_ZN9CakeBlock16getResourceCountEP6Random = __main_start + 0x9ccd0;
_ZN9CakeBlock11getResourceEPK10BlockStateP6Randomi = __main_start + 0x9ccd8;
_ZN9CakeBlock20getCloneItemInstanceEP5LevelRK8BlockPosPK10BlockState = __main_start + 0x9cce8;
_ZN9CakeBlock14getRenderLayerEv = __main_start + 0x9cd28;
_ZN9CakeBlock13getBlockStateEi = __main_start + 0x9cd30;
_ZN9CakeBlock29convertBlockStateToLegacyDataEPK10BlockState = __main_start + 0x9cd60;
_ZN9CakeBlock18GetInteractTooltipERK22BlockTooltipDataHolder = __main_start + 0x9cd78;
_ZN9CakeBlock26createBlockStateDefinitionEv = __main_start + 0x9cdd4;
_ZN9CakeBlock21getAnalogOutputSignalEPK10BlockStateP5LevelRK8BlockPos = __main_start + 0x9ce48;
_ZN9CakeBlock21hasAnalogOutputSignalEPK10BlockState = __main_start + 0x9ce7c;
_ZN9CakeBlock17getBlockFaceShapeEP11LevelSourcePK10BlockStateRK8BlockPosPK9Direction = __main_start + 0x9ce84;
_ZN9CakeBlock10getTextureEPK9DirectionPK10BlockState = __main_start + 0x9ce8c;
_ZN9CakeBlock13registerIconsEP12IconRegister = __main_start + 0x9cf20;
_ZN8Calendar15GetCalenderTimeEv = __main_start + 0x9d070;
_ZN8Calendar13GetDayOfMonthEv = __main_start + 0x9d120;
_ZN8Calendar8GetMonthEv = __main_start + 0x9d138;
_ZN11ChunkPrimer8getStateEiii = __main_start + 0x9dbc4;
_ZN11CarrotBlock8getShapeEPK10BlockStateP11LevelSourceRK8BlockPos = __main_start + 0x9ddc0;
_ZN11CarrotBlock10getTextureEPK9DirectionPK10BlockState = __main_start + 0x9de00;
_ZN11CarrotBlock13registerIconsEP12IconRegister = __main_start + 0x9de58;
_ZN13CauldronBlock17addCollisionAABBsEPK10BlockStateP5LevelRK8BlockPosPK4AABBPSt6vectorIP4AABBSt9allocatorIP4AABBEESt10shared_ptrI6EntityEb = __main_start + 0x9e41c;
_ZN13CauldronBlock8getShapeEPK10BlockStateP11LevelSourceRK8BlockPos = __main_start + 0x9e50c;
_ZNK13CauldronBlock13isSolidRenderEPK10BlockState = __main_start + 0x9e51c;
_ZN13CauldronBlock12isCubeShapedEPK10BlockState = __main_start + 0x9e524;
_ZN13CauldronBlock12entityInsideEP5LevelRK8BlockPosPK10BlockStateRKSt10shared_ptrI6EntityE = __main_start + 0x9e750;
_ZN13CauldronBlock7TestUseEv = __main_start + 0x9e870;
_ZN13CauldronBlock3useEP5LevelRK8BlockPosPK10BlockStateSt10shared_ptrI6PlayerEN15InteractionHand16EInteractionHandEPK9Directionfffb = __main_start + 0x9e878;
_ZN13CauldronBlock10handleRainEP5LevelRK8BlockPos = __main_start + 0xa0120;
_ZN13CauldronBlock11getResourceEPK10BlockStateP6Randomi = __main_start + 0xa023c;
_ZN13CauldronBlock20getCloneItemInstanceEP5LevelRK8BlockPosPK10BlockState = __main_start + 0xa024c;
_ZN13CauldronBlock21hasAnalogOutputSignalEPK10BlockState = __main_start + 0xa028c;
_ZN13CauldronBlock21getAnalogOutputSignalEPK10BlockStateP5LevelRK8BlockPos = __main_start + 0xa0294;
_ZN13CauldronBlock13getBlockStateEi = __main_start + 0xa02d0;
_ZN13CauldronBlock29convertBlockStateToLegacyDataEPK10BlockState = __main_start + 0xa0300;
_ZN13CauldronBlock18GetInteractTooltipERK22BlockTooltipDataHolder = __main_start + 0xa0318;
_ZN13CauldronBlock26createBlockStateDefinitionEv = __main_start + 0xa09d0;
_ZN13CauldronBlock14isPathfindableEP11LevelSourceRK8BlockPos = __main_start + 0xa0a44;
_ZN13CauldronBlock17getBlockFaceShapeEP11LevelSourcePK10BlockStateRK8BlockPosPK9Direction = __main_start + 0xa0a4c;
_ZN13CauldronBlock10getTextureEPK9DirectionPK10BlockState = __main_start + 0xa0a84;
_ZN13CauldronBlock13registerIconsEP12IconRegister = __main_start + 0xa0ad0;
_ZN13CauldronBlock14getRenderShapeEPK10BlockState = __main_start + 0xa0dfc;
_ZN13CauldronBlock11animateTickEPK10BlockStateP5LevelRK8BlockPosP6Random = __main_start + 0xa0e04;
_ZN13CauldronBlock21getPistonPushReactionEPK10BlockState = __main_start + 0xa1624;
_ZN10CaveSpider14addDataWalkersEP14DataFixerUpper = __main_start + 0xa2448;
_ZNK10ChestBlock13isSolidRenderEPK10BlockState = __main_start + 0xa2798;
_ZN10ChestBlock12isCubeShapedEPK10BlockState = __main_start + 0xa27a0;
_ZN10ChestBlock25hasCustomBreakingProgressEPK10BlockState = __main_start + 0xa27a8;
_ZN10ChestBlock8getShapeEPK10BlockStateP11LevelSourceRK8BlockPos = __main_start + 0xa27b0;
_ZN10ChestBlock7onPlaceEP5LevelRK8BlockPosPK10BlockState = __main_start + 0xa28fc;
_ZN10ChestBlock20getStateForPlacementEP5LevelRK8BlockPosPK9DirectionfffiSt10shared_ptrI12LivingEntityE = __main_start + 0xa2900;
_ZN10ChestBlock11setPlacedByEP5LevelRK8BlockPosPK10BlockStateSt10shared_ptrI12LivingEntityE12not_null_ptrI12ItemInstanceE = __main_start + 0xa2954;
_ZN10ChestBlock8reorientEP5LevelRK8BlockPosPK10BlockState = __main_start + 0xa328c;
_ZN10ChestBlock8mayPlaceEP5LevelRK8BlockPos = __main_start + 0xa34a8;
_ZN10ChestBlock15neighborChangedEPK10BlockStateP5LevelRK8BlockPosP5BlockRK8BlockPos = __main_start + 0xa3738;
_ZN10ChestBlock8onRemoveEP5LevelRK8BlockPosPK10BlockState = __main_start + 0xa3794;
_ZN10ChestBlock7TestUseEv = __main_start + 0xa3888;
_ZN10ChestBlock3useEP5LevelRK8BlockPosPK10BlockStateSt10shared_ptrI6PlayerEN15InteractionHand16EInteractionHandEPK9Directionfffb = __main_start + 0xa3890;
_ZN10ChestBlock14isSignalSourceEPK10BlockState = __main_start + 0xa4050;
_ZN10ChestBlock9getSignalEPK10BlockStateP11LevelSourceRK8BlockPosPK9Direction = __main_start + 0xa4060;
_ZN10ChestBlock15getDirectSignalEPK10BlockStateP11LevelSourceRK8BlockPosPK9Direction = __main_start + 0xa4150;
_ZN10ChestBlock21hasAnalogOutputSignalEPK10BlockState = __main_start + 0xa42e0;
_ZN10ChestBlock21getAnalogOutputSignalEPK10BlockStateP5LevelRK8BlockPos = __main_start + 0xa42e8;
_ZN10ChestBlock13getBlockStateEi = __main_start + 0xa435c;
_ZN10ChestBlock29convertBlockStateToLegacyDataEPK10BlockState = __main_start + 0xa43c0;
_ZN10ChestBlock18GetInteractTooltipERK22BlockTooltipDataHolder = __main_start + 0xa43e8;
_ZN10ChestBlock6rotateEPK10BlockStateP8Rotation = __main_start + 0xa4410;
_ZN10ChestBlock6mirrorEPK10BlockStateP6Mirror = __main_start + 0xa4468;
_ZN10ChestBlock26createBlockStateDefinitionEv = __main_start + 0xa44d0;
_ZN10ChestBlock17getBlockFaceShapeEP11LevelSourcePK10BlockStateRK8BlockPosPK9Direction = __main_start + 0xa4544;
_ZN10ChestBlock13registerIconsEP12IconRegister = __main_start + 0xa454c;
_ZN10ChestBlock14getRenderShapeEPK10BlockState = __main_start + 0xa45c4;
_ZN10ChestBlock21getPistonPushReactionEPK10BlockState = __main_start + 0xa45cc;
_ZN16ChestBlockEntity14addDataWalkersEP14DataFixerUpper = __main_start + 0xa4a30;
_ZN7Chicken10staticCtorEv = __main_start + 0xa6e2c;
_ZN7Chicken14addDataWalkersEP14DataFixerUpper = __main_start + 0xa75e8;
_ZN17ChorusFlowerBlock11DerivedInitEv = __main_start + 0xa796c;
_ZN17ChorusFlowerBlock11getResourceEPK10BlockStateP6Randomi = __main_start + 0xa7a18;
_ZN17ChorusFlowerBlock4tickEP5LevelRK8BlockPosPK10BlockStateP6Random = __main_start + 0xa7a28;
_ZN17ChorusFlowerBlock12isCubeShapedEPK10BlockState = __main_start + 0xa81fc;
_ZNK17ChorusFlowerBlock13isSolidRenderEPK10BlockState = __main_start + 0xa8204;
_ZN17ChorusFlowerBlock8mayPlaceEP5LevelRK8BlockPos = __main_start + 0xa820c;
_ZN17ChorusFlowerBlock15neighborChangedEPK10BlockStateP5LevelRK8BlockPosP5BlockRK8BlockPos = __main_start + 0xa824c;
_ZN17ChorusFlowerBlock13playerDestroyEP5LevelSt10shared_ptrI6PlayerERK8BlockPosPK10BlockStateSt10shared_ptrI11BlockEntityE12not_null_ptrI12ItemInstanceE = __main_start + 0xa82b0;
_ZN17ChorusFlowerBlock14getRenderLayerEv = __main_start + 0xa83ac;
_ZN17ChorusFlowerBlock13getBlockStateEi = __main_start + 0xa83b4;
_ZN17ChorusFlowerBlock29convertBlockStateToLegacyDataEPK10BlockState = __main_start + 0xa83e4;
_ZN17ChorusFlowerBlock13generatePlantEP5Level8BlockPosP6Randomi = __main_start + 0xa83fc;
_ZN17ChorusFlowerBlock24getSilkTouchItemInstanceEPK10BlockState = __main_start + 0xa8734;
_ZN17ChorusFlowerBlock13registerIconsEP12IconRegister = __main_start + 0xa8744;
_ZN17ChorusFlowerBlock10getTextureEPK9DirectionPK10BlockState = __main_start + 0xa884c;
_ZN17ChorusFlowerBlock14getRenderShapeEPK10BlockState = __main_start + 0xa88b4;
_ZN17ChorusFlowerBlock16shouldRenderFaceEPK10BlockStateP11LevelSourceRK8BlockPosPK9Direction = __main_start + 0xa88c4;
_ZN17ChorusFlowerBlock26createBlockStateDefinitionEv = __main_start + 0xa88d4;
_ZN17ChorusFlowerBlock17getBlockFaceShapeEP11LevelSourcePK10BlockStateRK8BlockPosPK9Direction = __main_start + 0xa8948;
_ZN16ChorusPlantBlock11DerivedInitEv = __main_start + 0xa8c44;
_ZN16ChorusPlantBlock31fillVirtualBlockStatePropertiesEPK10BlockStateP11LevelSourceRK8BlockPos = __main_start + 0xa8d38;
_ZN16ChorusPlantBlock14getRenderShapeEPK10BlockState = __main_start + 0xa8f88;
_ZN16ChorusPlantBlock8getShapeEPK10BlockStateP11LevelSourceRK8BlockPos = __main_start + 0xa9208;
_ZN16ChorusPlantBlock17addCollisionAABBsEPK10BlockStateP5LevelRK8BlockPosPK4AABBPSt6vectorIP4AABBSt9allocatorIP4AABBEESt10shared_ptrI6EntityEb = __main_start + 0xa9320;
_ZN16ChorusPlantBlock29convertBlockStateToLegacyDataEPK10BlockState = __main_start + 0xa95d4;
_ZN16ChorusPlantBlock4tickEP5LevelRK8BlockPosPK10BlockStateP6Random = __main_start + 0xa95dc;
_ZN16ChorusPlantBlock11getResourceEPK10BlockStateP6Randomi = __main_start + 0xa9818;
_ZN16ChorusPlantBlock16getResourceCountEP6Random = __main_start + 0xa9828;
_ZN16ChorusPlantBlock12isCubeShapedEPK10BlockState = __main_start + 0xa9838;
_ZNK16ChorusPlantBlock13isSolidRenderEPK10BlockState = __main_start + 0xa9840;
_ZN16ChorusPlantBlock8mayPlaceEP5LevelRK8BlockPos = __main_start + 0xa9848;
_ZN16ChorusPlantBlock15neighborChangedEPK10BlockStateP5LevelRK8BlockPosP5BlockRK8BlockPos = __main_start + 0xa989c;
_ZN16ChorusPlantBlock14getRenderLayerEv = __main_start + 0xa9900;
_ZN16ChorusPlantBlock14isPathfindableEP11LevelSourceRK8BlockPos = __main_start + 0xa9908;
_ZN16ChorusPlantBlock17getBlockFaceShapeEP11LevelSourcePK10BlockStateRK8BlockPosPK9Direction = __main_start + 0xa9910;
_ZN16ChorusPlantBlock26createBlockStateDefinitionEv = __main_start + 0xa9918;
_ZN8ChunkPos8ChunkPosEii = __main_start + 0xa9a1c;
_ZN11ChunkPrimerC1Eb15arrayWithLengthIhES1_ = __main_start + 0xa9bc8;
_ZN11ChunkPrimerD1Ev = __main_start + 0xa9c3c;
_ZN11ChunkPrimer8getStateEi = __main_start + 0xa9c80;
_ZN11ChunkPrimer8setStateEiiiPK10BlockState = __main_start + 0xa9cd8;
_ZN11ChunkPrimer8setStateEiPK10BlockState = __main_start + 0xa9d18;
_ZN11ChunkPrimer11getBlockIdsEv = __main_start + 0xa9dd0;
_ZN11ChunkPrimer12getBlockDataEv = __main_start + 0xa9ddc;
_ZN11ChunkPrimer19getHighestNonAirPosEii = __main_start + 0xa9de8;
_ZN12ChunkStorageC2Ev = __main_start + 0xa9e5c;
_ZN25ChunkVisibilityAreaPacketC1Ev = __main_start + 0xa9e70;
_ZN25ChunkVisibilityAreaPacket4readEP15DataInputStream = __main_start + 0xa9f30;
_ZN25ChunkVisibilityAreaPacket5writeEP16DataOutputStream = __main_start + 0xa9fac;
_ZN25ChunkVisibilityAreaPacket6handleEP14PacketListener = __main_start + 0xaa010;
_ZN25ChunkVisibilityAreaPacket16getEstimatedSizeEv = __main_start + 0xaa070;
_ZN21ChunkVisibilityPacketC1Ev = __main_start + 0xaa078;
_ZN21ChunkVisibilityPacket4readEP15DataInputStream = __main_start + 0xaa11c;
_ZN21ChunkVisibilityPacket5writeEP16DataOutputStream = __main_start + 0xaa164;
_ZN21ChunkVisibilityPacket6handleEP14PacketListener = __main_start + 0xaa190;
_ZN21ChunkVisibilityPacket16getEstimatedSizeEv = __main_start + 0xaa1f0;
_ZN9ClayBlock11getResourceEPK10BlockStateP6Randomi = __main_start + 0xaa23c;
_ZN9ClayBlock16getResourceCountEP6Random = __main_start + 0xaa24c;
_ZN11ClayFeatureC1Ei = __main_start + 0xaa254;
_ZN11ClayFeature5placeEP5LevelR6RandomRK8BlockPos = __main_start + 0xaa2a0;
_ZN26ClientboundAddEntityPacketC1Ev = __main_start + 0xaa6a8;
_ZN26ClientboundAddEntityPacket4readEP15DataInputStream = __main_start + 0xaa9ec;
_ZN26ClientboundAddEntityPacket5writeEP16DataOutputStream = __main_start + 0xaab9c;
_ZN26ClientboundAddEntityPacket6handleEP14PacketListener = __main_start + 0xaacbc;
_ZN26ClientboundAddEntityPacket16getEstimatedSizeEv = __main_start + 0xaad1c;
_ZN33ClientboundAddExperienceOrbPacketC1Ev = __main_start + 0xaae18;
_ZN33ClientboundAddExperienceOrbPacket4readEP15DataInputStream = __main_start + 0xaaec4;
_ZN33ClientboundAddExperienceOrbPacket5writeEP16DataOutputStream = __main_start + 0xaaf4c;
_ZN33ClientboundAddExperienceOrbPacket6handleEP14PacketListener = __main_start + 0xaafcc;
_ZN33ClientboundAddExperienceOrbPacket16getEstimatedSizeEv = __main_start + 0xab02c;
_ZN32ClientboundAddGlobalEntityPacketC1Ev = __main_start + 0xab05c;
_ZN32ClientboundAddGlobalEntityPacket4readEP15DataInputStream = __main_start + 0xab144;
_ZN32ClientboundAddGlobalEntityPacket5writeEP16DataOutputStream = __main_start + 0xab1cc;
_ZN32ClientboundAddGlobalEntityPacket6handleEP14PacketListener = __main_start + 0xab24c;
_ZN32ClientboundAddGlobalEntityPacket16getEstimatedSizeEv = __main_start + 0xab2ac;
_ZN23ClientboundAddMobPacketC1Ev = __main_start + 0xab2dc;
_ZN23ClientboundAddMobPacketD2Ev = __main_start + 0xab7dc;
_ZN23ClientboundAddMobPacketD0Ev = __main_start + 0xab948;
_ZN23ClientboundAddMobPacket4readEP15DataInputStream = __main_start + 0xab96c;
_ZN23ClientboundAddMobPacket5writeEP16DataOutputStream = __main_start + 0xabba0;
_ZN23ClientboundAddMobPacket6handleEP14PacketListener = __main_start + 0xabd08;
_ZN23ClientboundAddMobPacket16getEstimatedSizeEv = __main_start + 0xabd68;
_ZN28ClientboundAddPaintingPacketC1Ev = __main_start + 0xabed8;
_ZN28ClientboundAddPaintingPacket4readEP15DataInputStream = __main_start + 0xabfe8;
_ZN28ClientboundAddPaintingPacket5writeEP16DataOutputStream = __main_start + 0xac0e0;
_ZN28ClientboundAddPaintingPacket6handleEP14PacketListener = __main_start + 0xac154;
_ZN28ClientboundAddPaintingPacket16getEstimatedSizeEv = __main_start + 0xac1b4;
_ZN26ClientboundAddPlayerPacketC1Ev = __main_start + 0xac200;
_ZN26ClientboundAddPlayerPacketD2Ev = __main_start + 0xac300;
_ZN26ClientboundAddPlayerPacketD0Ev = __main_start + 0xac3b8;
_ZN26ClientboundAddPlayerPacket4readEP15DataInputStream = __main_start + 0xac618;
_ZN26ClientboundAddPlayerPacket5writeEP16DataOutputStream = __main_start + 0xac83c;
_ZN26ClientboundAddPlayerPacket6handleEP14PacketListener = __main_start + 0xac9e4;
_ZN26ClientboundAddPlayerPacket16getEstimatedSizeEv = __main_start + 0xaca44;
_ZN24ClientboundAnimatePacketC1Ev = __main_start + 0xacafc;
_ZN24ClientboundAnimatePacket4readEP15DataInputStream = __main_start + 0xacb88;
_ZN24ClientboundAnimatePacket5writeEP16DataOutputStream = __main_start + 0xacbd4;
_ZN24ClientboundAnimatePacket6handleEP14PacketListener = __main_start + 0xacc18;
_ZN24ClientboundAnimatePacket16getEstimatedSizeEv = __main_start + 0xacc78;
_ZN26ClientboundAwardStatPacketC1Ev = __main_start + 0xacc90;
_ZN26ClientboundAwardStatPacketD2Ev = __main_start + 0xacd44;
_ZN26ClientboundAwardStatPacketD0Ev = __main_start + 0xacd8c;
_ZN26ClientboundAwardStatPacket6handleEP14PacketListener = __main_start + 0xacdb0;
_ZN26ClientboundAwardStatPacket4readEP15DataInputStream = __main_start + 0xace20;
_ZN26ClientboundAwardStatPacket5writeEP16DataOutputStream = __main_start + 0xaceac;
_ZN26ClientboundAwardStatPacket16getEstimatedSizeEv = __main_start + 0xacf18;
_ZN26ClientboundAwardStatPacket6isAyncEv = __main_start + 0xacf20;
_ZN33ClientboundBlockDestructionPacketC1Ev = __main_start + 0xacf34;
_ZN33ClientboundBlockDestructionPacket4readEP15DataInputStream = __main_start + 0xad000;
_ZN33ClientboundBlockDestructionPacket5writeEP16DataOutputStream = __main_start + 0xad05c;
_ZN33ClientboundBlockDestructionPacket6handleEP14PacketListener = __main_start + 0xad0ac;
_ZN33ClientboundBlockDestructionPacket16getEstimatedSizeEv = __main_start + 0xad10c;
_ZN43ClientboundBlockCollectionDestructionPacketC1Ev = __main_start + 0xad134;
_ZN43ClientboundBlockCollectionDestructionPacketD2Ev = __main_start + 0xad214;
_ZN43ClientboundBlockCollectionDestructionPacketD0Ev = __main_start + 0xad258;
_ZN43ClientboundBlockCollectionDestructionPacket4readEP15DataInputStream = __main_start + 0xad27c;
_ZN43ClientboundBlockCollectionDestructionPacket5writeEP16DataOutputStream = __main_start + 0xad34c;
_ZN43ClientboundBlockCollectionDestructionPacket6handleEP14PacketListener = __main_start + 0xad3ec;
_ZN43ClientboundBlockCollectionDestructionPacket16getEstimatedSizeEv = __main_start + 0xad44c;
_ZN32ClientboundBlockEntityDataPacketC1Ev = __main_start + 0xad4a8;
_ZN32ClientboundBlockEntityDataPacketD2Ev = __main_start + 0xad57c;
_ZN32ClientboundBlockEntityDataPacketD0Ev = __main_start + 0xad5cc;
_ZN32ClientboundBlockEntityDataPacket4readEP15DataInputStream = __main_start + 0xad5f0;
_ZN32ClientboundBlockEntityDataPacket5writeEP16DataOutputStream = __main_start + 0xad660;
_ZN32ClientboundBlockEntityDataPacket6handleEP14PacketListener = __main_start + 0xad6c0;
_ZN32ClientboundBlockEntityDataPacket16getEstimatedSizeEv = __main_start + 0xad710;
_ZN27ClientboundBlockEventPacketC1Ev = __main_start + 0xad740;
_ZN27ClientboundBlockEventPacket4readEP15DataInputStream = __main_start + 0xad818;
_ZN27ClientboundBlockEventPacket5writeEP16DataOutputStream = __main_start + 0xad894;
_ZN27ClientboundBlockEventPacket6handleEP14PacketListener = __main_start + 0xad910;
_ZN27ClientboundBlockEventPacket16getEstimatedSizeEv = __main_start + 0xad970;
_ZN28ClientboundBlockUpdatePacketC1Ev = __main_start + 0xad9a0;
_ZN28ClientboundBlockUpdatePacket4readEP15DataInputStream = __main_start + 0xadabc;
_ZN28ClientboundBlockUpdatePacket5writeEP16DataOutputStream = __main_start + 0xadb60;
_ZN28ClientboundBlockUpdatePacket6handleEP14PacketListener = __main_start + 0xadbe4;
_ZN28ClientboundBlockUpdatePacket16getEstimatedSizeEv = __main_start + 0xadc44;
_ZN26ClientboundBossEventPacketC1Ev = __main_start + 0xadc80;
_ZN26ClientboundBossEventPacket4readEP15DataInputStream = __main_start + 0xadebc;
_ZN26ClientboundBossEventPacket5writeEP16DataOutputStream = __main_start + 0xae17c;
_ZN26ClientboundBossEventPacket6handleEP14PacketListener = __main_start + 0xae304;
_ZN26ClientboundBossEventPacket16getEstimatedSizeEv = __main_start + 0xae3bc;
_ZN33ClientboundChangeDifficultyPacketC1Ev = __main_start + 0xae4b4;
_ZN33ClientboundChangeDifficultyPacketD2Ev = __main_start + 0xae534;
_ZN33ClientboundChangeDifficultyPacketD0Ev = __main_start + 0xae55c;
_ZN33ClientboundChangeDifficultyPacket6handleEP14PacketListener = __main_start + 0xae580;
_ZN33ClientboundChangeDifficultyPacket4readEP15DataInputStream = __main_start + 0xae5e0;
_ZN33ClientboundChangeDifficultyPacket5writeEP16DataOutputStream = __main_start + 0xae618;
_ZN21ClientboundChatPacketC1Ev = __main_start + 0xae664;
_ZN21ClientboundChatPacket4readEP15DataInputStream = __main_start + 0xaeb8c;
_ZN21ClientboundChatPacket5writeEP16DataOutputStream = __main_start + 0xaebcc;
_ZN21ClientboundChatPacket6handleEP14PacketListener = __main_start + 0xaec08;
_ZN21ClientboundChatPacket16getEstimatedSizeEv = __main_start + 0xaec58;
_ZN34ClientboundChunkBlocksUpdatePacketD2Ev = __main_start + 0xaed24;
_ZN34ClientboundChunkBlocksUpdatePacketD0Ev = __main_start + 0xaed80;
_ZN34ClientboundChunkBlocksUpdatePacketC1Ev = __main_start + 0xaeda4;
_ZN34ClientboundChunkBlocksUpdatePacket4readEP15DataInputStream = __main_start + 0xaf0a0;
_ZN34ClientboundChunkBlocksUpdatePacket5writeEP16DataOutputStream = __main_start + 0xaf2e4;
_ZN34ClientboundChunkBlocksUpdatePacket6handleEP14PacketListener = __main_start + 0xaf574;
_ZN34ClientboundChunkBlocksUpdatePacket16getEstimatedSizeEv = __main_start + 0xaf5d4;
_ZN29ClientboundContainerAckPacketC1Ev = __main_start + 0xaf690;
_ZN29ClientboundContainerAckPacket6handleEP14PacketListener = __main_start + 0xaf724;
_ZN29ClientboundContainerAckPacket4readEP15DataInputStream = __main_start + 0xaf784;
_ZN29ClientboundContainerAckPacket5writeEP16DataOutputStream = __main_start + 0xaf7ec;
_ZN29ClientboundContainerAckPacket16getEstimatedSizeEv = __main_start + 0xaf844;
_ZN31ClientboundContainerClosePacketC1Ev = __main_start + 0xaf864;
_ZN31ClientboundContainerClosePacket6handleEP14PacketListener = __main_start + 0xaf8d8;
_ZN31ClientboundContainerClosePacket4readEP15DataInputStream = __main_start + 0xaf938;
_ZN31ClientboundContainerClosePacket5writeEP16DataOutputStream = __main_start + 0xaf96c;
_ZN31ClientboundContainerClosePacket16getEstimatedSizeEv = __main_start + 0xaf984;
_ZN30ClientboundContainerOpenPacketC1Ev = __main_start + 0xafa30;
_ZN30ClientboundContainerOpenPacketD2Ev = __main_start + 0xafaf8;
_ZN30ClientboundContainerOpenPacketD0Ev = __main_start + 0xafb64;
_ZN30ClientboundContainerOpenPacket6handleEP14PacketListener = __main_start + 0xafed0;
_ZN30ClientboundContainerOpenPacket4readEP15DataInputStream = __main_start + 0xaff30;
_ZN30ClientboundContainerOpenPacket5writeEP16DataOutputStream = __main_start + 0xb0118;
_ZN30ClientboundContainerOpenPacket16getEstimatedSizeEv = __main_start + 0xb0200;
_ZN36ClientboundContainerSetContentPacketC1Ev = __main_start + 0xb0364;
_ZN36ClientboundContainerSetContentPacketD2Ev = __main_start + 0xb04a4;
_ZN36ClientboundContainerSetContentPacketD0Ev = __main_start + 0xb04fc;
_ZN36ClientboundContainerSetContentPacket4readEP15DataInputStream = __main_start + 0xb0520;
_ZN36ClientboundContainerSetContentPacket5writeEP16DataOutputStream = __main_start + 0xb05ec;
_ZN36ClientboundContainerSetContentPacket6handleEP14PacketListener = __main_start + 0xb06a0;
_ZN36ClientboundContainerSetContentPacket16getEstimatedSizeEv = __main_start + 0xb0700;
_ZN33ClientboundContainerSetDataPacketC1Ev = __main_start + 0xb0734;
_ZN33ClientboundContainerSetDataPacket6handleEP14PacketListener = __main_start + 0xb07c4;
_ZN33ClientboundContainerSetDataPacket4readEP15DataInputStream = __main_start + 0xb0824;
_ZN33ClientboundContainerSetDataPacket5writeEP16DataOutputStream = __main_start + 0xb088c;
_ZN33ClientboundContainerSetDataPacket16getEstimatedSizeEv = __main_start + 0xb08e4;
_ZN33ClientboundContainerSetSlotPacketC1Ev = __main_start + 0xb0904;
_ZN33ClientboundContainerSetSlotPacket6handleEP14PacketListener = __main_start + 0xb09fc;
_ZN33ClientboundContainerSetSlotPacket4readEP15DataInputStream = __main_start + 0xb0a5c;
_ZN33ClientboundContainerSetSlotPacket5writeEP16DataOutputStream = __main_start + 0xb0ad4;
_ZN33ClientboundContainerSetSlotPacket16getEstimatedSizeEv = __main_start + 0xb0b44;
_ZN25ClientboundCooldownPacketC1Ev = __main_start + 0xb0b68;
_ZN25ClientboundCooldownPacket4readEP15DataInputStream = __main_start + 0xb0bf0;
_ZN25ClientboundCooldownPacket5writeEP16DataOutputStream = __main_start + 0xb0c2c;
_ZN25ClientboundCooldownPacket6handleEP14PacketListener = __main_start + 0xb0c68;
_ZN30ClientboundCustomPayloadPacketC1Ev = __main_start + 0xb0cf0;
_ZN30ClientboundCustomPayloadPacketD2Ev = __main_start + 0xb0da8;
_ZN30ClientboundCustomPayloadPacketD0Ev = __main_start + 0xb0df4;
_ZN30ClientboundCustomPayloadPacket4readEP15DataInputStream = __main_start + 0xb0e18;
_ZN30ClientboundCustomPayloadPacket5writeEP16DataOutputStream = __main_start + 0xb0f34;
_ZN30ClientboundCustomPayloadPacket6handleEP14PacketListener = __main_start + 0xb0f94;
_ZN30ClientboundCustomPayloadPacket16getEstimatedSizeEv = __main_start + 0xb0ff4;
_ZN32ClientboundDamageIndicatorPacketC1Ev = __main_start + 0xb1030;
_ZN32ClientboundDamageIndicatorPacket4readEP15DataInputStream = __main_start + 0xb10c0;
_ZN32ClientboundDamageIndicatorPacket5writeEP16DataOutputStream = __main_start + 0xb1120;
_ZN32ClientboundDamageIndicatorPacket6handleEP14PacketListener = __main_start + 0xb1178;
_ZN32ClientboundDamageIndicatorPacket16getEstimatedSizeEv = __main_start + 0xb11d8;
_ZN6Entity28readAdditionContructionTag_4EP11CompoundTag = __main_start + 0xb12b8;
_ZN6Entity16PositionLocked_4Ev = __main_start + 0xb12bc;
_ZN6Entity19SetPositionLocked_4Eb = __main_start + 0xb12c4;
_ZN6Entity26TakeGlideCollisionDamage_4Ev = __main_start + 0xb12c8;
_ZN6Entity25SetGlideCollisionDamage_4Eb = __main_start + 0xb12d0;
_ZN6Entity22GetLiftForceModifier_4Ev = __main_start + 0xb12d4;
_ZN6Entity22SetLiftForceModifier_4Ed = __main_start + 0xb12dc;
_ZN6Entity18onLoadedFromSave_4Ev = __main_start + 0xb12e0;
_ZN6Entity17isUsingItemFlag_4Ev = __main_start + 0xb12e4;
_ZN6Entity18setUsingItemFlag_4Eb = __main_start + 0xb12ec;
_ZN11BlockEntityD0Ev = __main_start + 0xb13b0;
_ZN11BlockEntity6rotateEP8Rotation = __main_start + 0xb13d4;
_ZN11BlockEntity6mirrorEP6Mirror = __main_start + 0xb13d8;
_ZN14AddIslandLayerD0Ev = __main_start + 0xb1518;
_ZN5LayerD2Ev = __main_start + 0xb153c;
_ZN22AddMushroomIslandLayerD0Ev = __main_start + 0xb1550;
_ZN12AddSnowLayerD0Ev = __main_start + 0xb1574;
_ZN5Block18isTopSolidBlockingEPK10BlockState = __main_start + 0xb1598;
_ZN5Block22ParticlesSurviveWithinEv = __main_start + 0xb15f0;
_ZN8AirBlockD0Ev = __main_start + 0xb15f8;
_ZN5Block15shouldBlockTickEP5LevelRK8BlockPosPK10BlockState = __main_start + 0xb161c;
_ZN5Block13isLiquidBlockEv = __main_start + 0xb1624;
_ZN10AnvilBlockD0Ev = __main_start + 0xb167c;
_ZN15BaseEntityBlockD0Ev = __main_start + 0xb1ac0;
_ZN11BannerBlockD0Ev = __main_start + 0xb1af4;
_ZN15WallBannerBlockD0Ev = __main_start + 0xb1b28;
_ZN19StandingBannerBlockD0Ev = __main_start + 0xb1b5c;
_ZN12BarrierBlockD0Ev = __main_start + 0xb1bf4;
_ZN26WeightedPressurePlateBlockD2Ev = __main_start + 0xb1c48;
_ZN22BasePressurePlateBlockD0Ev = __main_start + 0xb1c7c;
_ZN5BlockD2Ev = __main_start + 0xb1ca0;
_ZN13BaseRailBlockD0Ev = __main_start + 0xb1cb4;
_ZN11BeaconBlockD0Ev = __main_start + 0xb1ce4;
_ZN8BedBlockD2Ev = __main_start + 0xb1fc8;
_ZN8BedBlockD0Ev = __main_start + 0xb1ff0;
_ZN11BlockEntityD1Ev = __main_start + 0xb2030;
_ZN13BeetrootBlockD0Ev = __main_start + 0xb20ec;
_ZN5Biome7isFoggyEv = __main_start + 0xb21d4;
_ZN5Biome9isNaturalEv = __main_start + 0xb21dc;
_ZN11CarrotBlockD0Ev = __main_start + 0xb22c4;
_ZN23BlockRegionUpdatePacket11getPacketIdEv = __main_start + 0xb2510;
_ZN9BoneBlockD0Ev = __main_start + 0xb25ec;
_ZN14BookshelfBlockD0Ev = __main_start + 0xb2658;
_ZN17BrewingStandBlockD0Ev = __main_start + 0xb2950;
_ZN4SlotD1Ev = __main_start + 0xb2a10;
_ZN11ButtonBlockD0Ev = __main_start + 0xb2ab4;
_ZN7ByteTagD0Ev = __main_start + 0xb2adc;
_ZN11CactusBlockD0Ev = __main_start + 0xb2b00;
_ZN9CakeBlockD0Ev = __main_start + 0xb2b24;
_ZN13CauldronBlock22ParticlesSurviveWithinEv = __main_start + 0xb2b90;
_ZN13CauldronBlockD0Ev = __main_start + 0xb2b98;
_ZN13WallSignBlockD2Ev = __main_start + 0xb2ca0;
_ZN10ChestBlockD0Ev = __main_start + 0xb2cc8;
_ZN17ChorusFlowerBlockD0Ev = __main_start + 0xb2e64;
_ZN16ChorusPlantBlockD0Ev = __main_start + 0xb2eac;
_ZN12ChunkStorage10WaitForAllEv = __main_start + 0xb2ed0;
_ZN12ChunkStorage25WaitIfTooManyQueuedChunksEv = __main_start + 0xb2ed4;
_ZN25ChunkVisibilityAreaPacketD2Ev = __main_start + 0xb2ed8;
_ZN25ChunkVisibilityAreaPacketD0Ev = __main_start + 0xb2f00;
_ZN25ChunkVisibilityAreaPacket11getPacketIdEv = __main_start + 0xb2f24;
_ZN21ChunkVisibilityPacketD2Ev = __main_start + 0xb2f2c;
_ZN21ChunkVisibilityPacketD0Ev = __main_start + 0xb2f54;
_ZN21ChunkVisibilityPacket11getPacketIdEv = __main_start + 0xb2f78;
_ZN9ClayBlockD0Ev = __main_start + 0xb2f80;
_ZN7FeatureD2Ev = __main_start + 0xb2fa4;
_ZN11ClayFeatureD0Ev = __main_start + 0xb2fa8;
_ZN26ClientboundAddEntityPacketD2Ev = __main_start + 0xb2fcc;
_ZN26ClientboundAddEntityPacketD0Ev = __main_start + 0xb3010;
_ZN26ClientboundAddEntityPacket11getPacketIdEv = __main_start + 0xb3034;
_ZN33ClientboundAddExperienceOrbPacketD2Ev = __main_start + 0xb303c;
_ZN33ClientboundAddExperienceOrbPacketD0Ev = __main_start + 0xb3064;
_ZN33ClientboundAddExperienceOrbPacket11getPacketIdEv = __main_start + 0xb3088;
_ZN32ClientboundAddGlobalEntityPacketD2Ev = __main_start + 0xb3090;
_ZN32ClientboundAddGlobalEntityPacketD0Ev = __main_start + 0xb30b8;
_ZN32ClientboundAddGlobalEntityPacket11getPacketIdEv = __main_start + 0xb30dc;
_ZN23ClientboundAddMobPacket11getPacketIdEv = __main_start + 0xb30e4;
_ZN28ClientboundAddPaintingPacketD2Ev = __main_start + 0xb30ec;
_ZN28ClientboundAddPaintingPacketD0Ev = __main_start + 0xb3130;
_ZN28ClientboundAddPaintingPacket11getPacketIdEv = __main_start + 0xb3154;
_ZN26ClientboundAddPlayerPacket11getPacketIdEv = __main_start + 0xb315c;
_ZN24ClientboundAnimatePacketD2Ev = __main_start + 0xb3164;
_ZN24ClientboundAnimatePacketD0Ev = __main_start + 0xb318c;
_ZN24ClientboundAnimatePacket11getPacketIdEv = __main_start + 0xb31b0;
_ZN26ClientboundAwardStatPacket11getPacketIdEv = __main_start + 0xb31b8;
_ZN33ClientboundBlockDestructionPacketD2Ev = __main_start + 0xb31c0;
_ZN33ClientboundBlockDestructionPacketD0Ev = __main_start + 0xb31e8;
_ZN33ClientboundBlockDestructionPacket11getPacketIdEv = __main_start + 0xb320c;
_ZN43ClientboundBlockCollectionDestructionPacket11getPacketIdEv = __main_start + 0xb3214;
_ZN32ClientboundBlockEntityDataPacket11getPacketIdEv = __main_start + 0xb321c;
_ZN27ClientboundBlockEventPacketD2Ev = __main_start + 0xb3224;
_ZN27ClientboundBlockEventPacketD0Ev = __main_start + 0xb324c;
_ZN27ClientboundBlockEventPacket11getPacketIdEv = __main_start + 0xb3270;
_ZN28ClientboundBlockUpdatePacketD2Ev = __main_start + 0xb3278;
_ZN28ClientboundBlockUpdatePacketD0Ev = __main_start + 0xb32a0;
_ZN28ClientboundBlockUpdatePacket11getPacketIdEv = __main_start + 0xb32c4;
_ZN26ClientboundBossEventPacketD2Ev = __main_start + 0xb32cc;
_ZN26ClientboundBossEventPacketD0Ev = __main_start + 0xb3318;
_ZN26ClientboundBossEventPacket11getPacketIdEv = __main_start + 0xb333c;
_ZN33ClientboundChangeDifficultyPacket11getPacketIdEv = __main_start + 0xb3344;
_ZN21ClientboundChatPacketD2Ev = __main_start + 0xb334c;
_ZN21ClientboundChatPacketD0Ev = __main_start + 0xb3374;
_ZN21ClientboundChatPacket11getPacketIdEv = __main_start + 0xb3398;
_ZN34ClientboundChunkBlocksUpdatePacket11getPacketIdEv = __main_start + 0xb33a0;
_ZN29ClientboundContainerAckPacketD2Ev = __main_start + 0xb33a8;
_ZN29ClientboundContainerAckPacketD0Ev = __main_start + 0xb33d0;
_ZN29ClientboundContainerAckPacket11getPacketIdEv = __main_start + 0xb33f4;
_ZN31ClientboundContainerClosePacketD2Ev = __main_start + 0xb33fc;
_ZN31ClientboundContainerClosePacketD0Ev = __main_start + 0xb3424;
_ZN31ClientboundContainerClosePacket11getPacketIdEv = __main_start + 0xb3448;
_ZN30ClientboundContainerOpenPacket11getPacketIdEv = __main_start + 0xb3450;
_ZN36ClientboundContainerSetContentPacket11getPacketIdEv = __main_start + 0xb3458;
_ZN33ClientboundContainerSetDataPacketD2Ev = __main_start + 0xb3460;
_ZN33ClientboundContainerSetDataPacketD0Ev = __main_start + 0xb3488;
_ZN33ClientboundContainerSetDataPacket11getPacketIdEv = __main_start + 0xb34ac;
_ZN33ClientboundContainerSetSlotPacketD2Ev = __main_start + 0xb34b4;
_ZN33ClientboundContainerSetSlotPacketD0Ev = __main_start + 0xb34f8;
_ZN33ClientboundContainerSetSlotPacket11getPacketIdEv = __main_start + 0xb351c;
_ZN25ClientboundCooldownPacketD2Ev = __main_start + 0xb3524;
_ZN25ClientboundCooldownPacketD0Ev = __main_start + 0xb354c;
_ZN25ClientboundCooldownPacket11getPacketIdEv = __main_start + 0xb3570;
_ZN30ClientboundCustomPayloadPacket11getPacketIdEv = __main_start + 0xb3578;
_ZN32ClientboundDamageIndicatorPacketD2Ev = __main_start + 0xb3580;
_ZN32ClientboundDamageIndicatorPacketD0Ev = __main_start + 0xb35a8;
_ZN32ClientboundDamageIndicatorPacket11getPacketIdEv = __main_start + 0xb35cc;
_ZN5BiomeD2Ev = __main_start + 0xb3784;
_ZN9BlockImplD0Ev = __main_start + 0xb383c;
_ZN6BufferD2Ev = __main_start + 0xb3860;
_ZN6BufferD0Ev = __main_start + 0xb3864;
_ZN11EntityBlock12isValidSpawnEPK10BlockStateSt10shared_ptrI6EntityE = __main_start + 0xb40d8;
_ZN3TagD1Ev = __main_start + 0xb67a0;
_ZN10NumericTagD0Ev = __main_start + 0xb67a4;
_ZN12ChunkStorageD1Ev = __main_start + 0xb67c8;
_ZN12ChunkStorageD0Ev = __main_start + 0xb67cc;
_ZN14FlexiblePacketD2Ev = __main_start + 0xb6ab0;
_ZNSt3__111char_traitsIwE6lengthEPKw = __main_start + 0xb6bbc;
std__vector__push_back_Biome = __main_start + 0xc1ebc;
_ZN28ClientboundEntityEventPacketC1Ev = __main_start + 0xcaf5c;
_ZN28ClientboundEntityEventPacket4readEP15DataInputStream = __main_start + 0xcaff8;
_ZN28ClientboundEntityEventPacket5writeEP16DataOutputStream = __main_start + 0xcb054;
_ZN28ClientboundEntityEventPacket6handleEP14PacketListener = __main_start + 0xcb0ac;
_ZN28ClientboundEntityEventPacket16getEstimatedSizeEv = __main_start + 0xcb10c;
_ZN24ClientboundExplodePacketC1Ev = __main_start + 0xcb12c;
_ZN24ClientboundExplodePacket4readEP15DataInputStream = __main_start + 0xcb42c;
_ZN24ClientboundExplodePacket5writeEP16DataOutputStream = __main_start + 0xcb5f0;
_ZN24ClientboundExplodePacket6handleEP14PacketListener = __main_start + 0xcb7b0;
_ZN24ClientboundExplodePacket16getEstimatedSizeEv = __main_start + 0xcb810;
_ZN26ClientboundGameEventPacketC1Ev = __main_start + 0xcb864;
_ZN26ClientboundGameEventPacket4readEP15DataInputStream = __main_start + 0xcb954;
_ZN26ClientboundGameEventPacket5writeEP16DataOutputStream = __main_start + 0xcb9b4;
_ZN26ClientboundGameEventPacket6handleEP14PacketListener = __main_start + 0xcba0c;
_ZN26ClientboundGameEventPacket16getEstimatedSizeEv = __main_start + 0xcba5c;
_ZN26ClientboundKeepAlivePacketC1Ev = __main_start + 0xcba7c;
_ZN26ClientboundKeepAlivePacket6handleEP14PacketListener = __main_start + 0xcbab4;
_ZN26ClientboundKeepAlivePacket4readEP15DataInputStream = __main_start + 0xcbb14;
_ZN26ClientboundKeepAlivePacket5writeEP16DataOutputStream = __main_start + 0xcbb44;
_ZN26ClientboundKeepAlivePacket16getEstimatedSizeEv = __main_start + 0xcbb5c;
_ZN26ClientboundKeepAlivePacket16canBeInvalidatedEv = __main_start + 0xcbb64;
_ZN26ClientboundKeepAlivePacket15isInvalidatedByESt10shared_ptrI6PacketE = __main_start + 0xcbb6c;
_ZN26ClientboundKeepAlivePacket6isAyncEv = __main_start + 0xcbb74;
_ZN27ClientboundLevelEventPacketC1Ev = __main_start + 0xcbb7c;
_ZN27ClientboundLevelEventPacket4readEP15DataInputStream = __main_start + 0xcbc54;
_ZN15DataInputStream12readBlockPosEv = __main_start + 0xcbcc4;
_ZN27ClientboundLevelEventPacket5writeEP16DataOutputStream = __main_start + 0xcbce8;
_ZN16DataOutputStream13writeBlockPosERK8BlockPos = __main_start + 0xcbd4c;
_ZN27ClientboundLevelEventPacket6handleEP14PacketListener = __main_start + 0xcbd88;
_ZN27ClientboundLevelEventPacket16getEstimatedSizeEv = __main_start + 0xcbde8;
_ZN31ClientboundLevelParticlesPacketC1Ev = __main_start + 0xcbec8;
_ZN31ClientboundLevelParticlesPacketD2Ev = __main_start + 0xcc118;
_ZN31ClientboundLevelParticlesPacketD0Ev = __main_start + 0xcc15c;
_ZN31ClientboundLevelParticlesPacket4readEP15DataInputStream = __main_start + 0xcc180;
_ZN31ClientboundLevelParticlesPacket5writeEP16DataOutputStream = __main_start + 0xcc360;
_ZN31ClientboundLevelParticlesPacket6handleEP14PacketListener = __main_start + 0xcc594;
_ZN31ClientboundLevelParticlesPacket16getEstimatedSizeEv = __main_start + 0xcc5f4;
_ZN22ClientboundLoginPacketC1Ev = __main_start + 0xcc5fc;
_ZN22ClientboundLoginPacket4readEP15DataInputStream = __main_start + 0xcca88;
_ZN22ClientboundLoginPacket5writeEP16DataOutputStream = __main_start + 0xccdf4;
_ZN22ClientboundLoginPacket6handleEP14PacketListener = __main_start + 0xcd0f0;
_ZN22ClientboundLoginPacket16getEstimatedSizeEv = __main_start + 0xcd150;
_ZN28ClientboundMapItemDataPacketC1Ev = __main_start + 0xcd1d0;
_ZN28ClientboundMapItemDataPacketD2Ev = __main_start + 0xcd358;
_ZN28ClientboundMapItemDataPacketD0Ev = __main_start + 0xcd3dc;
_ZN28ClientboundMapItemDataPacket6handleEP14PacketListener = __main_start + 0xcd400;
_ZN28ClientboundMapItemDataPacket4readEP15DataInputStream = __main_start + 0xcd460;
_ZN15DataInputStream10readVarIntEv = __main_start + 0xcd6f0;
_ZN28ClientboundMapItemDataPacket5writeEP16DataOutputStream = __main_start + 0xcd860;
_ZN16DataOutputStream11writeVarIntEi = __main_start + 0xcda68;
_ZN39ClientboundMGPlayerSettingsUpdatePacketC1Ev = __main_start + 0xce77c;
_ZN39ClientboundMGPlayerSettingsUpdatePacket4readEP15DataInputStream = __main_start + 0xce800;
_ZN39ClientboundMGPlayerSettingsUpdatePacket5writeEP16DataOutputStream = __main_start + 0xceb84;
_ZN39ClientboundMGPlayerSettingsUpdatePacket6handleEP14PacketListener = __main_start + 0xcef04;
_ZN39ClientboundMGPlayerSettingsUpdatePacket16getEstimatedSizeEv = __main_start + 0xcef64;
_ZN27ClientboundMoveEntityPacketC1Ev = __main_start + 0xcef74;
_ZN27ClientboundMoveEntityPacket4readEP15DataInputStream = __main_start + 0xcf004;
_ZN27ClientboundMoveEntityPacket5writeEP16DataOutputStream = __main_start + 0xcf038;
_ZN27ClientboundMoveEntityPacket6handleEP14PacketListener = __main_start + 0xcf078;
_ZN27ClientboundMoveEntityPacket16getEstimatedSizeEv = __main_start + 0xcf0d8;
_ZN27ClientboundMoveEntityPacket16canBeInvalidatedEv = __main_start + 0xcf0e0;
_ZN27ClientboundMoveEntityPacket15isInvalidatedByESt10shared_ptrI6PacketE = __main_start + 0xcf0e8;
_ZN27ClientboundMoveEntityPacket6PosRotC1Ev = __main_start + 0xcf1c8;
_ZN27ClientboundMoveEntityPacket6PosRot4readEP15DataInputStream = __main_start + 0xcf27c;
_ZN27ClientboundMoveEntityPacket6PosRot5writeEP16DataOutputStream = __main_start + 0xcf33c;
_ZN27ClientboundMoveEntityPacket6PosRot16getEstimatedSizeEv = __main_start + 0xcf3f0;
_ZN27ClientboundMoveEntityPacket3PosC1Ev = __main_start + 0xcf3f8;
_ZN27ClientboundMoveEntityPacket3Pos4readEP15DataInputStream = __main_start + 0xcf484;
_ZN27ClientboundMoveEntityPacket3Pos5writeEP16DataOutputStream = __main_start + 0xcf51c;
_ZN27ClientboundMoveEntityPacket3Pos16getEstimatedSizeEv = __main_start + 0xcf5a8;
_ZN27ClientboundMoveEntityPacket3RotC1Ev = __main_start + 0xcf5b0;
_ZN27ClientboundMoveEntityPacket3Rot4readEP15DataInputStream = __main_start + 0xcf640;
_ZN27ClientboundMoveEntityPacket3Rot5writeEP16DataOutputStream = __main_start + 0xcf6a4;
_ZN27ClientboundMoveEntityPacket3Rot16getEstimatedSizeEv = __main_start + 0xcf700;
_ZN28ClientboundMoveVehiclePacketC1Ev = __main_start + 0xcf708;
_ZN28ClientboundMoveVehiclePacket4readEP15DataInputStream = __main_start + 0xcf7b0;
_ZN28ClientboundMoveVehiclePacket5writeEP16DataOutputStream = __main_start + 0xcf834;
_ZN28ClientboundMoveVehiclePacket6handleEP14PacketListener = __main_start + 0xcf8b4;
_ZN31ClientboundOpenSignEditorPacketC1Ev = __main_start + 0xcf93c;
_ZN31ClientboundOpenSignEditorPacketD2Ev = __main_start + 0xcf974;
_ZN31ClientboundOpenSignEditorPacketD0Ev = __main_start + 0xcf99c;
_ZN31ClientboundOpenSignEditorPacket6handleEP14PacketListener = __main_start + 0xcfa10;
_ZN31ClientboundOpenSignEditorPacket4readEP15DataInputStream = __main_start + 0xcfa70;
_ZN31ClientboundOpenSignEditorPacket5writeEP16DataOutputStream = __main_start + 0xcfa9c;
_ZN32ClientboundPlayerAbilitiesPacketC1Ev = __main_start + 0xcfabc;
_ZN32ClientboundPlayerAbilitiesPacket4readEP15DataInputStream = __main_start + 0xcfbf8;
_ZN32ClientboundPlayerAbilitiesPacket5writeEP16DataOutputStream = __main_start + 0xcfcb4;
_ZN32ClientboundPlayerAbilitiesPacket6handleEP14PacketListener = __main_start + 0xcfdac;
_ZN32ClientboundPlayerAbilitiesPacket16getEstimatedSizeEv = __main_start + 0xcfe0c;
_ZN32ClientboundPlayerAbilitiesPacket16canBeInvalidatedEv = __main_start + 0xcfe24;
_ZN32ClientboundPlayerAbilitiesPacket15isInvalidatedByESt10shared_ptrI6PacketE = __main_start + 0xcfe2c;
_ZN29ClientboundPlayerCombatPacketC1Ev = __main_start + 0xcfe3c;
_ZN29ClientboundPlayerCombatPacketD2Ev = __main_start + 0xcfe78;
_ZN29ClientboundPlayerCombatPacketD0Ev = __main_start + 0xcfebc;
_ZN29ClientboundPlayerCombatPacket6handleEP14PacketListener = __main_start + 0xd03fc;
_ZN29ClientboundPlayerCombatPacket4readEP15DataInputStream = __main_start + 0xd045c;
_ZN29ClientboundPlayerCombatPacket5writeEP16DataOutputStream = __main_start + 0xd0568;
_ZN31ClientboundPlayerPositionPacketC1Ev = __main_start + 0xd48f8;
_ZN31ClientboundPlayerPositionPacketD2Ev = __main_start + 0xd494c;
_ZN31ClientboundPlayerPositionPacketD0Ev = __main_start + 0xd4990;
_ZN31ClientboundPlayerPositionPacket6handleEP14PacketListener = __main_start + 0xd4ac4;
_ZN31ClientboundPlayerPositionPacket4readEP15DataInputStream = __main_start + 0xd4b24;
_ZN31ClientboundPlayerPositionPacket5writeEP16DataOutputStream = __main_start + 0xd4bd0;
_ZN28ClientboundPlayerSleepPacketC1Ev = __main_start + 0xd4cb8;
_ZN28ClientboundPlayerSleepPacketD2Ev = __main_start + 0xd4d18;
_ZN28ClientboundPlayerSleepPacketD0Ev = __main_start + 0xd4d40;
_ZN28ClientboundPlayerSleepPacketC1ENSt3__110shared_ptrI6PlayerEERK8BlockPos = __main_start + 0xd4d64;
_ZN28ClientboundPlayerSleepPacket6handleEP14PacketListener = __main_start + 0xd4dcc;
_ZNSt3__110shared_ptrI28ClientboundPlayerSleepPacketED2Ev = __main_start + 0xd4e1c;
_ZN28ClientboundPlayerSleepPacket4readEP15DataInputStream = __main_start + 0xd4e2c;
_ZN28ClientboundPlayerSleepPacket5writeEP16DataOutputStream = __main_start + 0xd4e68;
_ZN28ClientboundPlayerSleepPacket6getPosEv = __main_start + 0xd4e9c;
_ZN28ClientboundPlayerSleepPacket11getPlayerIdEv = __main_start + 0xd4eac;
_ZN24ClientboundPowerupPacketC1Ev = __main_start + 0xd4eb4;
_ZN24ClientboundPowerupPacket4readEP15DataInputStream = __main_start + 0xd4f38;
_ZN24ClientboundPowerupPacket5writeEP16DataOutputStream = __main_start + 0xd4f80;
_ZN24ClientboundPowerupPacket6handleEP14PacketListener = __main_start + 0xd4fc4;
_ZN24ClientboundPowerupPacket16getEstimatedSizeEv = __main_start + 0xd5024;
_ZN25ClientboundPreLoginPacketC1Ev = __main_start + 0xd503c;
_ZN25ClientboundPreLoginPacketD2Ev = __main_start + 0xd51a8;
_ZN25ClientboundPreLoginPacketD0Ev = __main_start + 0xd51f4;
_ZN25ClientboundPreLoginPacket4readEP15DataInputStream = __main_start + 0xd5218;
_ZN25ClientboundPreLoginPacket5writeEP16DataOutputStream = __main_start + 0xd5540;
_ZN25ClientboundPreLoginPacket6handleEP14PacketListener = __main_start + 0xd57a4;
_ZN25ClientboundPreLoginPacket16getEstimatedSizeEv = __main_start + 0xd5804;
_ZN25ClientboundPreLoginPacket6createEv = __main_start + 0xd5824;
_ZN25ClientboundPreLoginPacket11getPacketIdEv = __main_start + 0xd5934;
_ZN31ClientboundRemoveEntitiesPacketC1Ev = __main_start + 0xd593c;
_ZN31ClientboundRemoveEntitiesPacketD2Ev = __main_start + 0xd5a4c;
_ZN31ClientboundRemoveEntitiesPacketD0Ev = __main_start + 0xd5a94;
_ZN31ClientboundRemoveEntitiesPacket4readEP15DataInputStream = __main_start + 0xd5ab8;
_ZN31ClientboundRemoveEntitiesPacket5writeEP16DataOutputStream = __main_start + 0xd5b5c;
_ZN31ClientboundRemoveEntitiesPacket6handleEP14PacketListener = __main_start + 0xd5bd8;
_ZN31ClientboundRemoveEntitiesPacket16getEstimatedSizeEv = __main_start + 0xd5c38;
_ZN32ClientboundRemoveMobEffectPacketC1Ev = __main_start + 0xd5c48;
_ZN32ClientboundRemoveMobEffectPacket4readEP15DataInputStream = __main_start + 0xd5cc8;
_ZN32ClientboundRemoveMobEffectPacket5writeEP16DataOutputStream = __main_start + 0xd5d10;
_ZN32ClientboundRemoveMobEffectPacket6handleEP14PacketListener = __main_start + 0xd5d64;
_ZN32ClientboundRemoveMobEffectPacket16getEstimatedSizeEv = __main_start + 0xd5dc4;
_ZN29ClientboundResourcePackPacketC1Ev = __main_start + 0xd5dec;
_ZN29ClientboundResourcePackPacketD2Ev = __main_start + 0xd5e4c;
_ZN29ClientboundResourcePackPacketD0Ev = __main_start + 0xd5e98;
_ZN29ClientboundResourcePackPacket6handleEP14PacketListener = __main_start + 0xd5ebc;
_ZN29ClientboundResourcePackPacket4readEP15DataInputStream = __main_start + 0xd5f1c;
_ZN29ClientboundResourcePackPacket5writeEP16DataOutputStream = __main_start + 0xd6044;
_ZN24ClientboundRespawnPacketC1Ev = __main_start + 0xd6074;
_ZN24ClientboundRespawnPacket6handleEP14PacketListener = __main_start + 0xd632c;
_ZN24ClientboundRespawnPacket4readEP15DataInputStream = __main_start + 0xd638c;
_ZN24ClientboundRespawnPacket5writeEP16DataOutputStream = __main_start + 0xd65c8;
_ZNK10Difficulty5getIdEv = __main_start + 0xd67f0;
_ZN24ClientboundRespawnPacket16getEstimatedSizeEv = __main_start + 0xd67f8;
_ZN27ClientboundRotateHeadPacketC1Ev = __main_start + 0xd6894;
_ZN27ClientboundRotateHeadPacket4readEP15DataInputStream = __main_start + 0xd691c;
_ZN27ClientboundRotateHeadPacket5writeEP16DataOutputStream = __main_start + 0xd695c;
_ZN27ClientboundRotateHeadPacket6handleEP14PacketListener = __main_start + 0xd6998;
_ZN27ClientboundRotateHeadPacket16getEstimatedSizeEv = __main_start + 0xd69f8;
_ZN27ClientboundRotateHeadPacket16canBeInvalidatedEv = __main_start + 0xd6a00;
_ZN27ClientboundRotateHeadPacket15isInvalidatedByESt10shared_ptrI6PacketE = __main_start + 0xd6a08;
_ZN27ClientboundRotateHeadPacket6isAyncEv = __main_start + 0xd6a88;
_ZN26ClientboundSetBorderPacketC1Ev = __main_start + 0xd6aa0;
_ZN26ClientboundSetBorderPacketD2Ev = __main_start + 0xd6ad4;
_ZN26ClientboundSetBorderPacketD0Ev = __main_start + 0xd6afc;
_ZN26ClientboundSetBorderPacket4readEP15DataInputStream = __main_start + 0xd6b20;
_ZN26ClientboundSetBorderPacket5writeEP16DataOutputStream = __main_start + 0xd6cfc;
_ZN26ClientboundSetBorderPacket6handleEP14PacketListener = __main_start + 0xd6ed4;
_ZN26ClientboundSetCameraPacketC1Ev = __main_start + 0xd702c;
_ZN26ClientboundSetCameraPacketD2Ev = __main_start + 0xd7064;
_ZN26ClientboundSetCameraPacketD0Ev = __main_start + 0xd708c;
_ZN26ClientboundSetCameraPacket6handleEP14PacketListener = __main_start + 0xd70b0;
_ZN26ClientboundSetCameraPacket4readEP15DataInputStream = __main_start + 0xd7110;
_ZN26ClientboundSetCameraPacket5writeEP16DataOutputStream = __main_start + 0xd7138;
_ZN31ClientboundSetCarriedItemPacketC1Ev = __main_start + 0xd7150;
_ZN31ClientboundSetCarriedItemPacket4readEP15DataInputStream = __main_start + 0xd71c4;
_ZN31ClientboundSetCarriedItemPacket5writeEP16DataOutputStream = __main_start + 0xd71f8;
_ZN31ClientboundSetCarriedItemPacket6handleEP14PacketListener = __main_start + 0xd7210;
_ZN31ClientboundSetCarriedItemPacket16getEstimatedSizeEv = __main_start + 0xd7270;
_ZN31ClientboundSetCarriedItemPacket16canBeInvalidatedEv = __main_start + 0xd7278;
_ZN31ClientboundSetCarriedItemPacket15isInvalidatedByESt10shared_ptrI6PacketE = __main_start + 0xd7280;
_ZN30ClientboundSetEntityDataPacketC1Ev = __main_start + 0xd7290;
_ZN30ClientboundSetEntityDataPacketD2Ev = __main_start + 0xd72d4;
_ZN30ClientboundSetEntityDataPacketD0Ev = __main_start + 0xd7384;
_ZN30ClientboundSetEntityDataPacket4readEP15DataInputStream = __main_start + 0xd748c;
_ZN30ClientboundSetEntityDataPacket5writeEP16DataOutputStream = __main_start + 0xd74d8;
_ZN30ClientboundSetEntityDataPacket6handleEP14PacketListener = __main_start + 0xd7520;
_ZN30ClientboundSetEntityDataPacket16getEstimatedSizeEv = __main_start + 0xd7580;
_ZN30ClientboundSetEntityLinkPacketC1Ev = __main_start + 0xd75a0;
_ZN30ClientboundSetEntityLinkPacket16getEstimatedSizeEv = __main_start + 0xd7644;
_ZN30ClientboundSetEntityLinkPacket4readEP15DataInputStream = __main_start + 0xd764c;
_ZN30ClientboundSetEntityLinkPacket5writeEP16DataOutputStream = __main_start + 0xd7694;
_ZN30ClientboundSetEntityLinkPacket6handleEP14PacketListener = __main_start + 0xd76d8;
_ZN30ClientboundSetEntityLinkPacket16canBeInvalidatedEv = __main_start + 0xd7738;
_ZN30ClientboundSetEntityLinkPacket15isInvalidatedByESt10shared_ptrI6PacketE = __main_start + 0xd7740;
_ZN32ClientboundSetEntityMotionPacketC1Ev = __main_start + 0xd7868;
_ZN32ClientboundSetEntityMotionPacket4readEP15DataInputStream = __main_start + 0xd796c;
_ZN32ClientboundSetEntityMotionPacket5writeEP16DataOutputStream = __main_start + 0xd7a5c;
_ZN32ClientboundSetEntityMotionPacket6handleEP14PacketListener = __main_start + 0xd7b44;
_ZN32ClientboundSetEntityMotionPacket16getEstimatedSizeEv = __main_start + 0xd7ba4;
_ZN32ClientboundSetEntityMotionPacket16canBeInvalidatedEv = __main_start + 0xd7bbc;
_ZN32ClientboundSetEntityMotionPacket15isInvalidatedByESt10shared_ptrI6PacketE = __main_start + 0xd7bc4;
_ZN32ClientboundSetEquippedItemPacketC1Ev = __main_start + 0xd7c64;
_ZN32ClientboundSetEquippedItemPacket4readEP15DataInputStream = __main_start + 0xd7d64;
_ZN32ClientboundSetEquippedItemPacket5writeEP16DataOutputStream = __main_start + 0xd7ec4;
_ZN32ClientboundSetEquippedItemPacket6handleEP14PacketListener = __main_start + 0xd7ff8;
_ZN32ClientboundSetEquippedItemPacket16getEstimatedSizeEv = __main_start + 0xd8058;
_ZN32ClientboundSetEquippedItemPacket16canBeInvalidatedEv = __main_start + 0xd806c;
_ZN32ClientboundSetEquippedItemPacket15isInvalidatedByESt10shared_ptrI6PacketE = __main_start + 0xd8074;
_ZN30ClientboundSetExperiencePacketC1Ev = __main_start + 0xd811c;
_ZN30ClientboundSetExperiencePacket4readEP15DataInputStream = __main_start + 0xd81b0;
_ZN30ClientboundSetExperiencePacket5writeEP16DataOutputStream = __main_start + 0xd81fc;
_ZN30ClientboundSetExperiencePacket6handleEP14PacketListener = __main_start + 0xd8244;
_ZN30ClientboundSetExperiencePacket16getEstimatedSizeEv = __main_start + 0xd82a4;
_ZN30ClientboundSetExperiencePacket16canBeInvalidatedEv = __main_start + 0xd82ac;
_ZN30ClientboundSetExperiencePacket15isInvalidatedByESt10shared_ptrI6PacketE = __main_start + 0xd82b4;
_ZN26ClientboundSetHealthPacketC1Ev = __main_start + 0xd82d4;
_ZN26ClientboundSetHealthPacket4readEP15DataInputStream = __main_start + 0xd8384;
_ZN26ClientboundSetHealthPacket5writeEP16DataOutputStream = __main_start + 0xd8408;
_ZN26ClientboundSetHealthPacket6handleEP14PacketListener = __main_start + 0xd8484;
_ZN26ClientboundSetHealthPacket16getEstimatedSizeEv = __main_start + 0xd84e4;
_ZN26ClientboundSetHealthPacket16canBeInvalidatedEv = __main_start + 0xd84ec;
_ZN26ClientboundSetHealthPacket15isInvalidatedByESt10shared_ptrI6PacketE = __main_start + 0xd84f4;
_ZN30ClientboundSetPassengersPacketC1Ev = __main_start + 0xd8514;
_ZN30ClientboundSetPassengersPacketD2Ev = __main_start + 0xd854c;
_ZN30ClientboundSetPassengersPacketD0Ev = __main_start + 0xd8590;
_ZN30ClientboundSetPassengersPacket4readEP15DataInputStream = __main_start + 0xd8750;
_ZN30ClientboundSetPassengersPacket5writeEP16DataOutputStream = __main_start + 0xd882c;
_ZN30ClientboundSetPassengersPacket6handleEP14PacketListener = __main_start + 0xd88c4;
_ZN30ClientboundSetPlayerTeamPacketC1Ev = __main_start + 0xd8938;
_ZN30ClientboundSetPlayerTeamPacket4readEP15DataInputStream = __main_start + 0xd8f04;
_ZN30ClientboundSetPlayerTeamPacket5writeEP16DataOutputStream = __main_start + 0xd90a8;
_ZN30ClientboundSetPlayerTeamPacket6handleEP14PacketListener = __main_start + 0xd91b0;
_ZN30ClientboundSetPlayerTeamPacket16getEstimatedSizeEv = __main_start + 0xd9210;
_ZN33ClientboundSetSpawnPositionPacketC1Ev = __main_start + 0xd925c;
_ZN33ClientboundSetSpawnPositionPacketC1Eiii = __main_start + 0xd92b8;
_ZN33ClientboundSetSpawnPositionPacketC1ERK8BlockPos = __main_start + 0xd9334;
_ZN33ClientboundSetSpawnPositionPacket4readEP15DataInputStream = __main_start + 0xd9384;
_ZN33ClientboundSetSpawnPositionPacket5writeEP16DataOutputStream = __main_start + 0xd93b0;
_ZN33ClientboundSetSpawnPositionPacket6handleEP14PacketListener = __main_start + 0xd93c0;
_ZNSt3__110shared_ptrI33ClientboundSetSpawnPositionPacketED2Ev = __main_start + 0xd9410;
_ZN33ClientboundSetSpawnPositionPacket16getEstimatedSizeEv = __main_start + 0xd9420;
_ZN33ClientboundSetSpawnPositionPacket16canBeInvalidatedEv = __main_start + 0xd9428;
_ZN33ClientboundSetSpawnPositionPacket15isInvalidatedByENSt3__110shared_ptrI6PacketEE = __main_start + 0xd9430;
_ZN33ClientboundSetSpawnPositionPacket6isAyncEv = __main_start + 0xd9438;
_ZN24ClientboundSetTimePacketC1Ev = __main_start + 0xd9440;
_ZN24ClientboundSetTimePacketC1Exxb = __main_start + 0xd9478;
_ZN24ClientboundSetTimePacket4readEP15DataInputStream = __main_start + 0xd94c0;
_ZN24ClientboundSetTimePacket5writeEP16DataOutputStream = __main_start + 0xd9508;
_ZN24ClientboundSetTimePacket6handleEP14PacketListener = __main_start + 0xd954c;
_ZNSt3__110shared_ptrI24ClientboundSetTimePacketED2Ev = __main_start + 0xd959c;
_ZN24ClientboundSetTimePacket16getEstimatedSizeEv = __main_start + 0xd95ac;
_ZN24ClientboundSetTimePacket16canBeInvalidatedEv = __main_start + 0xd95b4;
_ZN24ClientboundSetTimePacket15isInvalidatedByENSt3__110shared_ptrI6PacketEE = __main_start + 0xd95bc;
_ZN24ClientboundSetTimePacket6isAyncEv = __main_start + 0xd95c4;
_ZN24ClientboundSetTimePacket11getGameTimeEv = __main_start + 0xd95cc;
_ZN24ClientboundSetTimePacket10getDayTimeEv = __main_start + 0xd95d4;
_ZN26ClientboundSetTitlesPacketC1Ev = __main_start + 0xd95dc;
_ZN26ClientboundSetTitlesPacket4readEP15DataInputStream = __main_start + 0xd9618;
_ZN26ClientboundSetTitlesPacket5writeEP16DataOutputStream = __main_start + 0xd9728;
_ZN26ClientboundSetTitlesPacket6handleEP14PacketListener = __main_start + 0xd97c4;
_ZN22ClientboundSoundPacketC1Ev = __main_start + 0xd9824;
_ZN22ClientboundSoundPacket4readEP15DataInputStream = __main_start + 0xd99fc;
_ZN22ClientboundSoundPacket5writeEP16DataOutputStream = __main_start + 0xd9b08;
_ZN22ClientboundSoundPacket6handleEP14PacketListener = __main_start + 0xd9c90;
_ZN22ClientboundSoundPacket16getEstimatedSizeEv = __main_start + 0xd9cf0;
_ZN24ClientboundTabListPacketC1Ev = __main_start + 0xd9cf8;
_ZN24ClientboundTabListPacketD2Ev = __main_start + 0xd9d38;
_ZN24ClientboundTabListPacketD0Ev = __main_start + 0xd9d84;
_ZN24ClientboundTabListPacket4readEP15DataInputStream = __main_start + 0xd9da8;
_ZN24ClientboundTabListPacket5writeEP16DataOutputStream = __main_start + 0xd9ed0;
_ZN24ClientboundTabListPacket6handleEP14PacketListener = __main_start + 0xd9f00;
_ZN31ClientboundTakeItemEntityPacketC1Ev = __main_start + 0xd9f04;
_ZN31ClientboundTakeItemEntityPacket4readEP15DataInputStream = __main_start + 0xd9f98;
_ZN31ClientboundTakeItemEntityPacket5writeEP16DataOutputStream = __main_start + 0xd9fdc;
_ZN31ClientboundTakeItemEntityPacket6handleEP14PacketListener = __main_start + 0xda01c;
_ZN31ClientboundTakeItemEntityPacket16getEstimatedSizeEv = __main_start + 0xda07c;
_ZN31ClientboundTeleportEntityPacketC1Ev = __main_start + 0xda09c;
_ZN31ClientboundTeleportEntityPacket4readEP15DataInputStream = __main_start + 0xda1bc;
_ZN31ClientboundTeleportEntityPacket5writeEP16DataOutputStream = __main_start + 0xda264;
_ZN31ClientboundTeleportEntityPacket6handleEP14PacketListener = __main_start + 0xda304;
_ZN31ClientboundTeleportEntityPacket16getEstimatedSizeEv = __main_start + 0xda364;
_ZN31ClientboundTeleportEntityPacket16canBeInvalidatedEv = __main_start + 0xda36c;
_ZN31ClientboundTeleportEntityPacket15isInvalidatedByESt10shared_ptrI6PacketE = __main_start + 0xda374;
_ZN33ClientboundUpdateAttributesPacketC1Ev = __main_start + 0xda42c;
_ZN33ClientboundUpdateAttributesPacketD2Ev = __main_start + 0xda778;
_ZN33ClientboundUpdateAttributesPacketD0Ev = __main_start + 0xda7f0;
_ZN33ClientboundUpdateAttributesPacket4readEP15DataInputStream = __main_start + 0xda814;
_ZN33ClientboundUpdateAttributesPacket5writeEP16DataOutputStream = __main_start + 0xdadd0;
_ZN33ClientboundUpdateAttributesPacket6handleEP14PacketListener = __main_start + 0xdaf20;
_ZN33ClientboundUpdateAttributesPacket16getEstimatedSizeEv = __main_start + 0xdaf80;
_ZN32ClientboundUpdateMobEffectPacketC1Ev = __main_start + 0xdb50c;
_ZN32ClientboundUpdateMobEffectPacket4readEP15DataInputStream = __main_start + 0xdb610;
_ZN32ClientboundUpdateMobEffectPacket5writeEP16DataOutputStream = __main_start + 0xdb684;
_ZN32ClientboundUpdateMobEffectPacket25tryReplaceDuplicatePacketEPSt5dequeISt10shared_ptrI6PacketESt9allocatorISt10shared_ptrI6PacketEEE = __main_start + 0xdb6f4;
_ZN32ClientboundUpdateMobEffectPacket6handleEP14PacketListener = __main_start + 0xdb708;
_ZN32ClientboundUpdateMobEffectPacket16getEstimatedSizeEv = __main_start + 0xdb768;
_ZN32ClientboundUpdateMobEffectPacket16canBeInvalidatedEv = __main_start + 0xdb770;
_ZN32ClientboundUpdateMobEffectPacket15isInvalidatedByESt10shared_ptrI6PacketE = __main_start + 0xdb778;
_ZNK8DyeColor12getBlockDataEv = __main_start + 0xdeac4;
_ZN10CocoaBlock4tickEP5LevelRK8BlockPosPK10BlockStateP6Random = __main_start + 0xdec6c;
_ZN10CocoaBlock12isCubeShapedEPK10BlockState = __main_start + 0xdee88;
_ZNK10CocoaBlock13isSolidRenderEPK10BlockState = __main_start + 0xdee90;
_ZN10CocoaBlock8getShapeEPK10BlockStateP11LevelSourceRK8BlockPos = __main_start + 0xdee98;
_ZNK9Direction14get3DDataValueEv = __main_start + 0xdef0c;
_ZN10CocoaBlock6rotateEPK10BlockStateP8Rotation = __main_start + 0xdef14;
_ZN10CocoaBlock6mirrorEPK10BlockStateP6Mirror = __main_start + 0xdef6c;
_ZN10CocoaBlock11setPlacedByEP5LevelRK8BlockPosPK10BlockStateSt10shared_ptrI12LivingEntityE12not_null_ptrI12ItemInstanceE = __main_start + 0xdefd4;
_ZN10CocoaBlock20getStateForPlacementEP5LevelRK8BlockPosPK9DirectionfffiSt10shared_ptrI12LivingEntityE = __main_start + 0xdf078;
_ZN10CocoaBlock15neighborChangedEPK10BlockStateP5LevelRK8BlockPosP5BlockRK8BlockPos = __main_start + 0xdf12c;
_ZN10CocoaBlock14spawnResourcesEP5LevelRK8BlockPosPK10BlockStatefi = __main_start + 0xdf198;
_ZN10CocoaBlock20getCloneItemInstanceEP5LevelRK8BlockPosPK10BlockState = __main_start + 0xdf268;
_ZN10CocoaBlock14getRenderLayerEv = __main_start + 0xdf398;
_ZN10CocoaBlock13getBlockStateEi = __main_start + 0xdf3a0;
_ZN9Direction15from2DDataValueEi = __main_start + 0xdf400;
_ZN10CocoaBlock29convertBlockStateToLegacyDataEPK10BlockState = __main_start + 0xdf434;
_ZN10CocoaBlock18GetInteractTooltipERK22BlockTooltipDataHolder = __main_start + 0xdf48c;
_ZN10CocoaBlock26createBlockStateDefinitionEv = __main_start + 0xdf518;
_ZN10CocoaBlock17getBlockFaceShapeEP11LevelSourcePK10BlockStateRK8BlockPosPK9Direction = __main_start + 0xdf5a0;
_ZN10CocoaBlock10getTextureEPK9DirectionPK10BlockState = __main_start + 0xdf5a8;
_ZN10CocoaBlock13registerIconsEP12IconRegister = __main_start + 0xdf5c8;
_ZN10CocoaBlock14getRenderShapeEPK10BlockState = __main_start + 0xdf640;
_ZN24StainedHardenedClayBlock25getSpawnResourcesAuxValueEPK10BlockState = __main_start + 0xdfa64;
_ZN12ColoredBlock11getMapColorEPK10BlockStateP11LevelSourceRK8BlockPos = __main_start + 0xdfa8c;
_ZN24StainedHardenedClayBlock13getBlockStateEi = __main_start + 0xdfab4;
_ZN24StainedHardenedClayBlock29convertBlockStateToLegacyDataEPK10BlockState = __main_start + 0xdfb1c;
_ZN24StainedHardenedClayBlock26createBlockStateDefinitionEv = __main_start + 0xdfb44;
_ZN24StainedHardenedClayBlock10getTextureEPK9DirectionPK10BlockState = __main_start + 0xdfbb8;
_ZN24StainedHardenedClayBlock13registerIconsEP12IconRegister = __main_start + 0xdfbf4;
_ZN11CompoundTag10getBooleanERKSt12basic_stringIwSt11char_traitsIwESt9allocatorIwEE = __main_start + 0xe1494;
_ZNK13DimensionType5getIdEv = __main_start + 0xe15a4;
_ZN11CompoundTag8containsERKSt12basic_stringIwSt11char_traitsIwESt9allocatorIwEE = __main_start + 0xe1d60;
_ZN11CompoundTag9getStringERKSt12basic_stringIwSt11char_traitsIwESt9allocatorIwEE = __main_start + 0xe1e60;
_ZN11CompoundTag3putERKNSt3__112basic_stringIwNS0_11char_traitsIwEENS0_9allocatorIwEEEEP3Tag = __main_start + 0xe1f4c;
_ZN15ComparatorBlock7getNameEv = __main_start + 0xe2e54;
_ZN15ComparatorBlock11getResourceEPK10BlockStateP6Randomi = __main_start + 0xe2e98;
_ZN15ComparatorBlock20getCloneItemInstanceEP5LevelRK8BlockPosPK10BlockState = __main_start + 0xe2ea8;
_ZN15ComparatorBlock3useEP5LevelRK8BlockPosPK10BlockStateSt10shared_ptrI6PlayerEN15InteractionHand16EInteractionHandEPK9Directionfffb = __main_start + 0xe3730;
_ZN15ComparatorBlock4tickEP5LevelRK8BlockPosPK10BlockStateP6Random = __main_start + 0xe3c5c;
_ZN15ComparatorBlock7onPlaceEP5LevelRK8BlockPosPK10BlockState = __main_start + 0xe3cfc;
_ZN13RepeaterBlock7onPlaceEP5LevelRK8BlockPosPK10BlockState = __main_start + 0xe3d68;
_ZN15ComparatorBlock8onRemoveEP5LevelRK8BlockPosPK10BlockState = __main_start + 0xe3d74;
_ZN15ComparatorBlock12triggerEventEPK10BlockStateP5LevelRK8BlockPosii = __main_start + 0xe3dcc;
_ZN15ComparatorBlock13getBlockStateEi = __main_start + 0xe3fbc;
_ZN15ComparatorBlock29convertBlockStateToLegacyDataEPK10BlockState = __main_start + 0xe4048;
_ZN15ComparatorBlock18GetInteractTooltipERK22BlockTooltipDataHolder = __main_start + 0xe40cc;
_ZN15ComparatorBlock6rotateEPK10BlockStateP8Rotation = __main_start + 0xe40f4;
_ZN15ComparatorBlock6mirrorEPK10BlockStateP6Mirror = __main_start + 0xe414c;
_ZN15ComparatorBlock26createBlockStateDefinitionEv = __main_start + 0xe41b4;
_ZN15ComparatorBlock20getStateForPlacementEP5LevelRK8BlockPosPK9DirectionfffiSt10shared_ptrI12LivingEntityE = __main_start + 0xe4244;
_ZN15ComparatorBlock14getRenderShapeEPK10BlockState = __main_start + 0xe42cc;
_ZN15ComparatorBlock7TestUseEv = __main_start + 0xe42d4;
_ZN15ComparatorBlock10getTextureEPK9DirectionPK10BlockState = __main_start + 0xe4338;
_ZN11CompoundTag6putIntERKNSt3__112basic_stringIwNS0_11char_traitsIwEENS0_9allocatorIwEEEEi = __main_start + 0xe4458;
_ZN11CompoundTag6getIntERKSt12basic_stringIwSt11char_traitsIwESt9allocatorIwEE = __main_start + 0xe4530;
_ZN11CompoundTagC1Ev = __main_start + 0xe5a44;
_ZN11CompoundTagD1Ev = __main_start + 0xe5a84;
_ZN11CompoundTagD0Ev = __main_start + 0xe5b60;
_ZN11CompoundTag5writeEP10DataOutput = __main_start + 0xe5b84;
_ZN11CompoundTag4loadEP9DataInputi = __main_start + 0xe5c6c;
_ZN11CompoundTag5getIdEv = __main_start + 0xe60f8;
_ZN11CompoundTag8containsERKSt12basic_stringIwSt11char_traitsIwESt9allocatorIwEEi = __main_start + 0xe6460;
_ZN11CompoundTag8getShortERKSt12basic_stringIwSt11char_traitsIwESt9allocatorIwEE = __main_start + 0xe64fc;
_ZN11CompoundTag8getFloatERKSt12basic_stringIwSt11char_traitsIwESt9allocatorIwEE = __main_start + 0xe65a4;
_ZN11CompoundTag7getListERKSt12basic_stringIwSt11char_traitsIwESt9allocatorIwEEi = __main_start + 0xe6764;
_ZNK11CompoundTag16fjSafeGetListTagERKSt12basic_stringIwSt11char_traitsIwESt9allocatorIwEEi = __main_start + 0xe67ec;
_ZN11CompoundTag18stripEmptyChildrenEv = __main_start + 0xe68d0;
_ZN11CompoundTag8toStringEv = __main_start + 0xe6958;
_ZN11CompoundTag5printERKNSt3__112basic_stringIwNS0_11char_traitsIwEENS0_9allocatorIwEEEEPcRNS0_13basic_ostreamIwS3_EE = __main_start + 0xe6968;
_ZNK11CompoundTag7isEmptyEv = __main_start + 0xe696c;
_ZN11CompoundTag4copyEv = __main_start + 0xe697c;
_ZN11CompoundTag6equalsEP3Tag = __main_start + 0xe6a2c;
_ZN22CompressedBlockStorage3getEiii = __main_start + 0xe79e8;
_ZN22CompressedBlockStorage10staticCtorEv = __main_start + 0xe87e4;
_ZN22CompressedBlockStorage4tickEv = __main_start + 0xe8898;
_ZN19ConcretePowderBlock15neighborChangedEPK10BlockStateP5LevelRK8BlockPosP5BlockRK8BlockPos = __main_start + 0xe8e18;
_ZN19ConcretePowderBlock7onPlaceEP5LevelRK8BlockPosPK10BlockState = __main_start + 0xe8e98;
_ZN19ConcretePowderBlock25getSpawnResourcesAuxValueEPK10BlockState = __main_start + 0xe8ef0;
_ZN19ConcretePowderBlock11getMapColorEPK10BlockStateP11LevelSourceRK8BlockPos = __main_start + 0xe8f18;
_ZN19ConcretePowderBlock13getBlockStateEi = __main_start + 0xe8f40;
_ZN19ConcretePowderBlock29convertBlockStateToLegacyDataEPK10BlockState = __main_start + 0xe8f8c;
_ZN19ConcretePowderBlock26createBlockStateDefinitionEv = __main_start + 0xe8fb4;
_ZN19ConcretePowderBlock10getTextureEPK9DirectionPK10BlockState = __main_start + 0xe9028;
_ZN19ConcretePowderBlock13registerIconsEP12IconRegister = __main_start + 0xe9064;
_ZN10Connection4sendESt10shared_ptrI6PacketE = __main_start + 0xe9858;
._ZN4FileD1Ev = __main_start + 0xeb438;
_ZN3Cow14addDataWalkersEP14DataFixerUpper = __main_start + 0xefa9c;
_ZN18CraftingTableBlock7TestUseEv = __main_start + 0xf1084;
_ZN18CraftingTableBlock3useEP5LevelRK8BlockPosPK10BlockStateSt10shared_ptrI6PlayerEN15InteractionHand16EInteractionHandEPK9Directionfffb = __main_start + 0xf108c;
_ZN18CraftingTableBlock10getTextureEPK9DirectionPK10BlockState = __main_start + 0xf1154;
_ZN18CraftingTableBlock13registerIconsEP12IconRegister = __main_start + 0xf11d0;
_ZN18CraftingTableBlock18GetInteractTooltipERK22BlockTooltipDataHolder = __main_start + 0xf141c;
_ZN15CraftItemPacketD2Ev = __main_start + 0xf1444;
_ZN15CraftItemPacketD0Ev = __main_start + 0xf14c8;
_ZN15CraftItemPacketC1Ev = __main_start + 0xf14ec;
_ZN15CraftItemPacket6handleEP14PacketListener = __main_start + 0xf1748;
_ZN15CraftItemPacket4readEP15DataInputStream = __main_start + 0xf17a8;
_ZN15CraftItemPacket5writeEP16DataOutputStream = __main_start + 0xf18f8;
_ZN15CraftItemPacket16getEstimatedSizeEv = __main_start + 0xf1a24;
_ZN7Creeper10staticCtorEv = __main_start + 0xf1a2c;
_ZN7Creeper14addDataWalkersEP14DataFixerUpper = __main_start + 0xf1ea4;
_ZN11PotatoBlock11DerivedInitEv = __main_start + 0xf2e04;
_ZN11PotatoBlock4tickEP5LevelRK8BlockPosPK10BlockStateP6Random = __main_start + 0xf2fc8;
_ZN11CarrotBlock14spawnResourcesEP5LevelRK8BlockPosPK10BlockStatefi = __main_start + 0xf3604;
_ZN11PotatoBlock11getResourceEPK10BlockStateP6Randomi = __main_start + 0xf371c;
_ZN11PotatoBlock20getCloneItemInstanceEP5LevelRK8BlockPosPK10BlockState = __main_start + 0xf3754;
_ZN11PotatoBlock13getBlockStateEi = __main_start + 0xf3804;
_ZN11PotatoBlock29convertBlockStateToLegacyDataEPK10BlockState = __main_start + 0xf3808;
_ZN11PotatoBlock18GetInteractTooltipERK22BlockTooltipDataHolder = __main_start + 0xf380c;
_ZN11PotatoBlock26createBlockStateDefinitionEv = __main_start + 0xf387c;
_ZN11PotatoBlock14getRenderShapeEPK10BlockState = __main_start + 0xf39e8;
_ZN26CustomizableSourceSettingsC1EPNS_7BuilderE = __main_start + 0xf39f0;
_ZN26CustomizableSourceSettings7Builder10fromStringEP15SuperflatConfig = __main_start + 0xf3c6c;
_ZN26CustomizableSourceSettings7BuilderC1Ev = __main_start + 0xf3c98;
_ZN26CustomizableSourceSettings7Builder11setDefaultsEv = __main_start + 0xf3c9c;
_ZN26CustomizableSourceSettings7Builder5buildEv = __main_start + 0xf3e18;
_ZN14ChunkGeneratorC2Ev = __main_start + 0xf3e4c;
_ZN27GenericOverworldLevelSourceC2Ev = __main_start + 0xf3e60;
_ZN15arrayWithLengthIdEC1Ev = __main_start + 0xf3e80;
_ZN15arrayWithLengthIdE3getEj = __main_start + 0xf3e8c;
_ZNK12DamageSource13isBypassInvulEv = __main_start + 0xf4ab0;
_ZN12DamageSourceC1Ev = __main_start + 0xf4ac0;
_ZN12DamageSource15getDirectEntityEv = __main_start + 0xf4b1c;
_ZN12DamageSource9getEntityEv = __main_start + 0xf4b28;
_ZN12DamageSource20scalesWithDifficultyEv = __main_start + 0xf4b30;
_ZN12DamageSource21getDeathMessagePacketESt10shared_ptrI12LivingEntityE = __main_start + 0xf4d44;
_ZN12DamageSource4copyEv = __main_start + 0xf4f24;
_ZN12DamageSource17getSourcePositionEv = __main_start + 0xf4f84;
_ZN12DamageSource19GetBaseDamageSourceEv = __main_start + 0xf4f8c;
_ZN15DataInputStreamC1EP11InputStream = __main_start + 0xf4f90;
_ZN15DataInputStream4readEv = __main_start + 0xf4fe8;
vtbl_710103D840_func_2 = __main_start + 0xf4ff8;
_ZN15DataInputStream4readE15arrayWithLengthIhE = __main_start + 0xf5000;
vtbl_710103D840_func_3 = __main_start + 0xf5014;
_ZN15DataInputStream4readE15arrayWithLengthIhEjj = __main_start + 0xf501c;
vtbl_710103D840_func_4 = __main_start + 0xf502c;
_ZN15DataInputStream5closeEv = __main_start + 0xf5034;
_ZN15DataInputStream11readBooleanEv = __main_start + 0xf5044;
vtbl_710103D840_func_5 = __main_start + 0xf506c;
_ZN15DataInputStream8readByteEv = __main_start + 0xf5074;
vtbl_710103D840_func_6 = __main_start + 0xf5094;
_ZN15DataInputStream16readUnsignedByteEv = __main_start + 0xf509c;
vtbl_710103D840_func_7 = __main_start + 0xf50bc;
_ZN15DataInputStream8readCharEv = __main_start + 0xf50c4;
vtbl_710103D840_func_15 = __main_start + 0xf5108;
_ZN15DataInputStream9readFullyE15arrayWithLengthIhE = __main_start + 0xf5110;
vtbl_710103D840_func_8 = __main_start + 0xf5190;
_ZN15DataInputStream9readFullyE15arrayWithLengthIcE = __main_start + 0xf5198;
vtbl_710103D840_func_9 = __main_start + 0xf51a4;
_ZN15DataInputStream9readBytesE15arrayWithLengthIhE = __main_start + 0xf51ac;
_ZN15DataInputStream10readDoubleEv = __main_start + 0xf5238;
vtbl_710103D840_func_10 = __main_start + 0xf525c;
_ZN15DataInputStream9readFloatEv = __main_start + 0xf5264;
vtbl_710103D840_func_11 = __main_start + 0xf5288;
_ZN15DataInputStream7readIntEv = __main_start + 0xf5290;
vtbl_710103D840_func_12 = __main_start + 0xf5314;
_ZN15DataInputStream8readLongEv = __main_start + 0xf531c;
vtbl_710103D840_func_13 = __main_start + 0xf5428;
_ZN15DataInputStream9readShortEv = __main_start + 0xf5430;
vtbl_710103D840_func_14 = __main_start + 0xf5474;
_ZN15DataInputStream17readUnsignedShortEv = __main_start + 0xf547c;
_ZN15DataInputStream7readUTFEv = __main_start + 0xf54c0;
vtbl_710103D840_func_16 = __main_start + 0xf5660;
_ZN15DataInputStream11readUTFCharEv = __main_start + 0xf5668;
_ZN15DataInputStream13readPlayerUIDEv = __main_start + 0xf5784;
vtbl_710103D840_func_17 = __main_start + 0xf57dc;
_ZN15DataInputStream4skipEx = __main_start + 0xf5948;
_ZN15DataInputStream9skipBytesEx = __main_start + 0xf5958;
vtbl_710103D840_func_18 = __main_start + 0xf5964;
_ZN16DataOutputStreamC1EP12OutputStream = __main_start + 0xf596c;
_ZN10DataOutputC1Ev = __main_start + 0xf59b4;
_ZN16DataOutputStream5writeEj = __main_start + 0xf59c8;
vtbl_710103D998_func_2 = __main_start + 0xf5a00;
_ZN16DataOutputStream5flushEv = __main_start + 0xf5a08;
_ZN16DataOutputStream5writeE15arrayWithLengthIhE = __main_start + 0xf5a18;
vtbl_710103D998_func_3 = __main_start + 0xf5a2c;
_ZN16DataOutputStream10writeBytesE15arrayWithLengthIhE = __main_start + 0xf5a34;
vtbl_710103D998_func_4 = __main_start + 0xf5a48;
_ZN16DataOutputStream5writeE15arrayWithLengthIhEjj = __main_start + 0xf5a50;
vtbl_710103D998_func_5 = __main_start + 0xf5a8c;
_ZN16DataOutputStream5closeEv = __main_start + 0xf5a94;
_ZN16DataOutputStream9writeByteEh = __main_start + 0xf5aa4;
vtbl_710103D998_func_6 = __main_start + 0xf5ab8;
_ZN16DataOutputStream11writeDoubleEd = __main_start + 0xf5ac0;
vtbl_710103D998_func_7 = __main_start + 0xf5b24;
_ZN16DataOutputStream10writeFloatEf = __main_start + 0xf5b2c;
vtbl_710103D998_func_8 = __main_start + 0xf5b6c;
_ZN16DataOutputStream8writeIntEi = __main_start + 0xf5b74;
vtbl_710103D998_func_9 = __main_start + 0xf5bf0;
_ZN16DataOutputStream9writeLongEx = __main_start + 0xf5bf8;
vtbl_710103D998_func_10 = __main_start + 0xf5cc4;
_ZN16DataOutputStream10writeShortEs = __main_start + 0xf5ccc;
vtbl_710103D998_func_11 = __main_start + 0xf5d20;
_ZN16DataOutputStream18writeUnsignedShortEt = __main_start + 0xf5d28;
_ZN16DataOutputStream9writeCharEw = __main_start + 0xf5d7c;
vtbl_710103D998_func_13 = __main_start + 0xf5dd0;
_ZN16DataOutputStream10writeCharsERKSt12basic_stringIwSt11char_traitsIwESt9allocatorIwEE = __main_start + 0xf5dd8;
vtbl_710103D998_func_14 = __main_start + 0xf5e60;
_ZN16DataOutputStream12writeBooleanEb = __main_start + 0xf5e68;
vtbl_710103D998_func_12 = __main_start + 0xf5ea4;
_ZN16DataOutputStream8writeUTFERKSt12basic_stringIwSt11char_traitsIwESt9allocatorIwEE = __main_start + 0xf5eb0;
vtbl_710103D998_func_15 = __main_start + 0xf60ec;
_ZN16DataOutputStream14writePlayerUIDE9PlayerUID = __main_start + 0xf60f4;
vtbl_710103D998_func_16 = __main_start + 0xf6140;
_ZN21DaylightDetectorBlock8getShapeEPK10BlockStateP11LevelSourceRK8BlockPos = __main_start + 0xf63f8;
_ZN21DaylightDetectorBlock9getSignalEPK10BlockStateP11LevelSourceRK8BlockPosPK9Direction = __main_start + 0xf6408;
_ZN9Dimension13isHasSkyLightEv = __main_start + 0xf659c;
_ZN21DaylightDetectorBlock3useEP5LevelRK8BlockPosPK10BlockStateSt10shared_ptrI6PlayerEN15InteractionHand16EInteractionHandEPK9Directionfffb = __main_start + 0xf65a4;
_ZN21DaylightDetectorBlock11getResourceEPK10BlockStateP6Randomi = __main_start + 0xf6718;
_ZN21DaylightDetectorBlock20getCloneItemInstanceEP5LevelRK8BlockPosPK10BlockState = __main_start + 0xf6728;
_ZN21DaylightDetectorBlock12isCubeShapedEPK10BlockState = __main_start + 0xf677c;
_ZNK21DaylightDetectorBlock13isSolidRenderEPK10BlockState = __main_start + 0xf6784;
_ZN21DaylightDetectorBlock14getRenderShapeEPK10BlockState = __main_start + 0xf678c;
_ZN21DaylightDetectorBlock14isSignalSourceEPK10BlockState = __main_start + 0xf6794;
_ZN21DaylightDetectorBlock13getBlockStateEi = __main_start + 0xf6900;
_ZN21DaylightDetectorBlock29convertBlockStateToLegacyDataEPK10BlockState = __main_start + 0xf6930;
_ZN21DaylightDetectorBlock18GetInteractTooltipERK22BlockTooltipDataHolder = __main_start + 0xf6948;
_ZN21DaylightDetectorBlock13GetHitTooltipERK22BlockTooltipDataHolder = __main_start + 0xf69ac;
_ZN21DaylightDetectorBlock26createBlockStateDefinitionEv = __main_start + 0xf69d0;
_ZN21DaylightDetectorBlock21getPistonPushReactionEPK10BlockState = __main_start + 0xf6a44;
_ZN21DaylightDetectorBlock17getBlockFaceShapeEP11LevelSourcePK10BlockStateRK8BlockPosPK9Direction = __main_start + 0xf6a4c;
_ZN21DaylightDetectorBlock10getTextureEPK9DirectionPK10BlockState = __main_start + 0xf6a68;
_ZN21DaylightDetectorBlock13registerIconsEP12IconRegister = __main_start + 0xf6a94;
_ZN13DeadBushBlock11getMapColorEPK10BlockStateP11LevelSourceRK8BlockPos = __main_start + 0xf6da8;
_ZN13DeadBushBlock8getShapeEPK10BlockStateP11LevelSourceRK8BlockPos = __main_start + 0xf6db8;
_ZN13DeadBushBlock19mayReplaceWithPlaceEP11LevelSourceRK8BlockPos = __main_start + 0xf6e7c;
_ZN13DeadBushBlock11getResourceEPK10BlockStateP6Randomi = __main_start + 0xf6e84;
_ZN13DeadBushBlock13playerDestroyEP5LevelSt10shared_ptrI6PlayerERK8BlockPosPK10BlockStateSt10shared_ptrI11BlockEntityE12not_null_ptrI12ItemInstanceE = __main_start + 0xf6e94;
_ZN18DebugOptionsPacketD2Ev = __main_start + 0xf72e8;
_ZN18DebugOptionsPacketD0Ev = __main_start + 0xf7310;
_ZN18DebugOptionsPacketC1Ev = __main_start + 0xf7334;
_ZN18DebugOptionsPacket6handleEP14PacketListener = __main_start + 0xf736c;
_ZN18DebugOptionsPacket4readEP15DataInputStream = __main_start + 0xf73cc;
_ZN18DebugOptionsPacket5writeEP16DataOutputStream = __main_start + 0xf73fc;
_ZN18DebugOptionsPacket16getEstimatedSizeEv = __main_start + 0xf7414;
_ZN11DesertBiomeC1EN5Biome9EBiomeIDsEPN5Biome15BiomePropertiesE = __main_start + 0xf83fc;
vtbl_710103E7F0_func_11 = __main_start + 0xf873c;
_ZN17DesertWellFeature10staticCtorEv = __main_start + 0xf8fe0;
_ZN9Direction5Plane8iteratorEv = __main_start + 0xf922c;
_ZN17DetectorRailBlock12getTickDelayEP5Level = __main_start + 0xf9670;
_ZN17DetectorRailBlock14isSignalSourceEPK10BlockState = __main_start + 0xf9678;
_ZN17DetectorRailBlock12entityInsideEP5LevelRK8BlockPosPK10BlockStateRKSt10shared_ptrI6EntityE = __main_start + 0xf9680;
_ZN17DetectorRailBlock10randomTickEP5LevelRK8BlockPosPK10BlockStateP6Random = __main_start + 0xf96f8;
_ZN17DetectorRailBlock4tickEP5LevelRK8BlockPosPK10BlockStateP6Random = __main_start + 0xf96fc;
_ZN17DetectorRailBlock9getSignalEPK10BlockStateP11LevelSourceRK8BlockPosPK9Direction = __main_start + 0xf9774;
_ZN17DetectorRailBlock15getDirectSignalEPK10BlockStateP11LevelSourceRK8BlockPosPK9Direction = __main_start + 0xf97b8;
_ZN17DetectorRailBlock7onPlaceEP5LevelRK8BlockPosPK10BlockState = __main_start + 0xf9a74;
_ZN17DetectorRailBlock21hasAnalogOutputSignalEPK10BlockState = __main_start + 0xf9ad0;
_ZN17DetectorRailBlock21getAnalogOutputSignalEPK10BlockStateP5LevelRK8BlockPos = __main_start + 0xf9ad8;
_ZN17DetectorRailBlock13getBlockStateEi = __main_start + 0xf9d9c;
_ZN17DetectorRailBlock29convertBlockStateToLegacyDataEPK10BlockState = __main_start + 0xf9dfc;
_ZN17DetectorRailBlock6rotateEPK10BlockStateP8Rotation = __main_start + 0xf9e54;
_ZN17DetectorRailBlock6mirrorEPK10BlockStateP6Mirror = __main_start + 0xf9fec;
_ZN17DetectorRailBlock26createBlockStateDefinitionEv = __main_start + 0xfa14c;
_ZN17DetectorRailBlock13registerIconsEP12IconRegister = __main_start + 0xfa1cc;
_ZN17DetectorRailBlock10getTextureEPK9DirectionPK10BlockState = __main_start + 0xfa28c;
_ZN18DifficultyInstanceC1EPK9Difficultyxxf = __main_start + 0xfa2d8;
_ZNK18DifficultyInstance19calculateDifficultyEPK9Difficultyxxf = __main_start + 0xfa300;
_ZN9Dimension4initEP5Level = __main_start + 0xfab8c;
_ZN9Dimension15updateLightRampEv = __main_start + 0xfac14;
_ZN9Dimension4initEv = __main_start + 0xfac60;
_ZN9DimensionC2Ev = __main_start + 0xfad80;
_ZN9DimensionD1Ev = __main_start + 0xfadc8;
_ZN9DimensionD0Ev = __main_start + 0xfae1c;
_ZNK9Dimension26createRandomLevelGeneratorEv = __main_start + 0xfae40;
_ZNK9Dimension21createFlatLevelSourceEv = __main_start + 0xfaf14;
_ZN9Dimension13createStorageE4File = __main_start + 0xfaf84;
_ZNK9Dimension12isValidSpawnEii = __main_start + 0xfafe0;
_ZNK9Dimension12getTimeOfDayExf = __main_start + 0xfb070;
_ZNK9Dimension12getMoonPhaseEx = __main_start + 0xfb120;
_ZN9Dimension18isNaturalDimensionEv = __main_start + 0xfb170;
_ZN9Dimension15getSunriseColorEff = __main_start + 0xfb178;
_ZN9Dimension11getFogColorEff = __main_start + 0xfb304;
_ZNK9Dimension10mayRespawnEv = __main_start + 0xfb390;
_ZN9Dimension14getCloudHeightEv = __main_start + 0xfb398;
_ZN9Dimension9hasGroundEv = __main_start + 0xfb3b4;
_ZNK9Dimension11getSpawnPosEv = __main_start + 0xfb3bc;
_ZN9Dimension17getSpawnYPositionEv = __main_start + 0xfb3c4;
_ZN9Dimension9isFoggyAtEii = __main_start + 0xfb410;
_ZN9Dimension14getBiomeSourceEv = __main_start + 0xfb418;
_ZN9Dimension12isHasCeilingEv = __main_start + 0xfb428;
_ZN9Dimension17getBrightnessRampEv = __main_start + 0xfb430;
_ZN9Dimension17createWorldBorderEP5Level = __main_start + 0xfb438;
_ZN9Dimension9getXZSizeEv = __main_start + 0xfb46c;
_ZN9Dimension20getPlayerConstraintsERK8BlockPos = __main_start + 0xfb474;
_ZN9Dimension19inPlayerConstraintsERK8BlockPos = __main_start + 0xfb4c0;
_ZN9Dimension13containsChunkEii = __main_start + 0xfb5bc;
_ZN9Dimension19getBlockLightColourEv = __main_start + 0xfb624;
_ZN9Dimension8saveDataEv = __main_start + 0xfb648;
_ZN9Dimension4tickEv = __main_start + 0xfb64c;
_ZN9Dimension14canUnloadChunkEii = __main_start + 0xfb650;
_ZNK13DimensionType6createEv = __main_start + 0xfb6bc;
_ZN15NetherDimensionC1Ev = __main_start + 0xfb744;
_ZN15NormalDimensionC1Ev = __main_start + 0xfb774;
_ZN13RepeaterBlock8getShapeEPK10BlockStateP11LevelSourceRK8BlockPos = __main_start + 0xfb9bc;
_ZN13RepeaterBlock12isCubeShapedEPK10BlockState = __main_start + 0xfb9cc;
_ZN13RepeaterBlock8mayPlaceEP5LevelRK8BlockPos = __main_start + 0xfb9d4;
_ZN13RepeaterBlock10randomTickEP5LevelRK8BlockPosPK10BlockStateP6Random = __main_start + 0xfbab0;
_ZN13RepeaterBlock4tickEP5LevelRK8BlockPosPK10BlockStateP6Random = __main_start + 0xfbab4;
_ZN13RepeaterBlock16shouldRenderFaceEPK10BlockStateP11LevelSourceRK8BlockPosPK9Direction = __main_start + 0xfbc18;
_ZN13RepeaterBlock15getDirectSignalEPK10BlockStateP11LevelSourceRK8BlockPosPK9Direction = __main_start + 0xfbc4c;
_ZN13RepeaterBlock9getSignalEPK10BlockStateP11LevelSourceRK8BlockPosPK9Direction = __main_start + 0xfbc68;
_ZN13RepeaterBlock15neighborChangedEPK10BlockStateP5LevelRK8BlockPosP5BlockRK8BlockPos = __main_start + 0xfbd08;
_ZN13RepeaterBlock14isSignalSourceEPK10BlockState = __main_start + 0xfc20c;
_ZN13RepeaterBlock20getStateForPlacementEP5LevelRK8BlockPosPK9DirectionfffiSt10shared_ptrI12LivingEntityE = __main_start + 0xfc214;
_ZN13RepeaterBlock11setPlacedByEP5LevelRK8BlockPosPK10BlockStateSt10shared_ptrI12LivingEntityE12not_null_ptrI12ItemInstanceE = __main_start + 0xfc26c;
_ZN13RepeaterBlock7destroyEP5LevelRK8BlockPosPK10BlockState = __main_start + 0xfc35c;
_ZNK13RepeaterBlock13isSolidRenderEPK10BlockState = __main_start + 0xfc3fc;
_ZN13RepeaterBlock10isMatchingEP5Block = __main_start + 0xfc5dc;
_ZN13RepeaterBlock14getRenderLayerEv = __main_start + 0xfc618;
_ZN13RepeaterBlock17getBlockFaceShapeEP11LevelSourcePK10BlockStateRK8BlockPosPK9Direction = __main_start + 0xfc620;
_ZN10DiodeBlock14getRenderShapeEPK10BlockState = __main_start + 0xfc63c;
_ZN13RepeaterBlock10getTextureEPK9DirectionPK10BlockState = __main_start + 0xfc644;
_ZN9Direction10staticCtorEv = __main_start + 0xfc6c0;
Direction__Axis__staticCtor = __main_start + 0xfcb44;
_ZN9DirectionC1EiiiRKNSt3__112basic_stringIwNS0_11char_traitsIwEENS0_9allocatorIwEEEEPNS_13AxisDirectionEPNS_4AxisEP5Vec3ih = __main_start + 0xfd068;
_ZN8PlayerIOC2Ev = __main_start + 0xfe6d8;
_ZN9DirtBlock11getMapColorEPK10BlockStateP11LevelSourceRK8BlockPos = __main_start + 0x101540;
_ZN9DirtBlock31fillVirtualBlockStatePropertiesEPK10BlockStateP11LevelSourceRK8BlockPos = __main_start + 0x101598;
_ZN9DirtBlock20getCloneItemInstanceEP5LevelRK8BlockPosPK10BlockState = __main_start + 0x10166c;
_ZN9DirtBlock13getBlockStateEi = __main_start + 0x1016e0;
_ZN9DirtBlock29convertBlockStateToLegacyDataEPK10BlockState = __main_start + 0x1017f0;
_ZN9DirtBlock18GetInteractTooltipERK22BlockTooltipDataHolder = __main_start + 0x101818;
_ZN9DirtBlock26createBlockStateDefinitionEv = __main_start + 0x1018a4;
_ZN9DirtBlock25getSpawnResourcesAuxValueEPK10BlockState = __main_start + 0x101924;
_ZN9DirtBlock10getTextureEPK9DirectionPK10BlockState = __main_start + 0x10196c;
_ZN9DirtBlock13registerIconsEP12IconRegister = __main_start + 0x1019e8;
_ZN16DisconnectPacketC1Ev = __main_start + 0x101bd4;
_ZN16DisconnectPacket4readEP15DataInputStream = __main_start + 0x101c48;
_ZN16DisconnectPacket5writeEP16DataOutputStream = __main_start + 0x101c78;
_ZN16DisconnectPacket6handleEP14PacketListener = __main_start + 0x101c90;
_ZN16DisconnectPacket16getEstimatedSizeEv = __main_start + 0x101cf0;
_ZN16DisconnectPacket16canBeInvalidatedEv = __main_start + 0x101cf8;
_ZN16DisconnectPacket15isInvalidatedByESt10shared_ptrI6PacketE = __main_start + 0x101d00;
_ZN12DropperBlock12getTickDelayEP5Level = __main_start + 0x101de0;
_ZN12DropperBlock7onPlaceEP5LevelRK8BlockPosPK10BlockState = __main_start + 0x101de8;
_ZN12DropperBlock7TestUseEv = __main_start + 0x102018;
_ZN12DropperBlock3useEP5LevelRK8BlockPosPK10BlockStateSt10shared_ptrI6PlayerEN15InteractionHand16EInteractionHandEPK9Directionfffb = __main_start + 0x102020;
_ZN12DropperBlock15neighborChangedEPK10BlockStateP5LevelRK8BlockPosP5BlockRK8BlockPos = __main_start + 0x1022bc;
_ZN12DropperBlock4tickEP5LevelRK8BlockPosPK10BlockStateP6Random = __main_start + 0x1023d4;
_ZN12DropperBlock20getStateForPlacementEP5LevelRK8BlockPosPK9DirectionfffiSt10shared_ptrI12LivingEntityE = __main_start + 0x1025cc;
_ZN12DropperBlock11setPlacedByEP5LevelRK8BlockPosPK10BlockStateSt10shared_ptrI12LivingEntityE12not_null_ptrI12ItemInstanceE = __main_start + 0x102634;
_ZN12DropperBlock8onRemoveEP5LevelRK8BlockPosPK10BlockState = __main_start + 0x10276c;
_ZN12DropperBlock21hasAnalogOutputSignalEPK10BlockState = __main_start + 0x1028b4;
_ZN12DropperBlock21getAnalogOutputSignalEPK10BlockStateP5LevelRK8BlockPos = __main_start + 0x1028bc;
_ZN12DropperBlock14getRenderShapeEPK10BlockState = __main_start + 0x10290c;
_ZN12DropperBlock13getBlockStateEi = __main_start + 0x102914;
_ZN12DropperBlock29convertBlockStateToLegacyDataEPK10BlockState = __main_start + 0x102974;
_ZN14DispenserBlock18GetInteractTooltipERK22BlockTooltipDataHolder = __main_start + 0x1029cc;
_ZN12DropperBlock6rotateEPK10BlockStateP8Rotation = __main_start + 0x1029f4;
_ZN12DropperBlock6mirrorEPK10BlockStateP6Mirror = __main_start + 0x102a4c;
_ZN12DropperBlock26createBlockStateDefinitionEv = __main_start + 0x102ab4;
_ZN12DropperBlock10getTextureEPK9DirectionPK10BlockState = __main_start + 0x102b34;
_ZN14DispenserBlock13registerIconsEP12IconRegister = __main_start + 0x102be0;
_ZN20DispenserBlockEntity14addDataWalkersEP14DataFixerUpper = __main_start + 0x1031c8;
_ZN5SynthC2Ev = __main_start + 0x103ca4;
_ZN6Donkey14addDataWalkersEP14DataFixerUpper = __main_start + 0x103d04;
_ZN9DoorBlock8getShapeEPK10BlockStateP11LevelSourceRK8BlockPos = __main_start + 0x104ee8;
_ZN9DoorBlock7getNameEv = __main_start + 0x10501c;
_ZNK9DoorBlock13isSolidRenderEPK10BlockState = __main_start + 0x105068;
_ZN9DoorBlock14isPathfindableEP11LevelSourceRK8BlockPos = __main_start + 0x105070;
_ZN9DoorBlock12isCubeShapedEPK10BlockState = __main_start + 0x1051c4;
_ZN9DoorBlock11getMapColorEPK10BlockStateP11LevelSourceRK8BlockPos = __main_start + 0x10520c;
_ZN9DoorBlock7TestUseEv = __main_start + 0x1053bc;
_ZN9DoorBlock3useEP5LevelRK8BlockPosPK10BlockStateSt10shared_ptrI6PlayerEN15InteractionHand16EInteractionHandEPK9Directionfffb = __main_start + 0x1053d4;
_ZN9DoorBlock15neighborChangedEPK10BlockStateP5LevelRK8BlockPosP5BlockRK8BlockPos = __main_start + 0x105814;
_ZN9DoorBlock11getResourceEPK10BlockStateP6Randomi = __main_start + 0x105b90;
_ZN9DoorBlock8mayPlaceEP5LevelRK8BlockPos = __main_start + 0x105cd4;
_ZN9DoorBlock21getPistonPushReactionEPK10BlockState = __main_start + 0x105d88;
_ZN9DoorBlock20getCloneItemInstanceEP5LevelRK8BlockPosPK10BlockState = __main_start + 0x105da0;
_ZN9DoorBlock17playerWillDestroyEP5LevelRK8BlockPosPK10BlockStateSt10shared_ptrI6PlayerE = __main_start + 0x105df0;
_ZN9DoorBlock14getRenderLayerEv = __main_start + 0x105f48;
_ZN9DoorBlock31fillVirtualBlockStatePropertiesEPK10BlockStateP11LevelSourceRK8BlockPos = __main_start + 0x105f50;
_ZN9DoorBlock13getBlockStateEi = __main_start + 0x1060b8;
_ZN9DoorBlock29convertBlockStateToLegacyDataEPK10BlockState = __main_start + 0x106190;
_ZN9DoorBlock18GetInteractTooltipERK22BlockTooltipDataHolder = __main_start + 0x10625c;
_ZN9DoorBlock6rotateEPK10BlockStateP8Rotation = __main_start + 0x1062f4;
_ZN9DoorBlock6mirrorEPK10BlockStateP6Mirror = __main_start + 0x106388;
_ZN9DoorBlock26createBlockStateDefinitionEv = __main_start + 0x106458;
_ZN9DoorBlock17getBlockFaceShapeEP11LevelSourcePK10BlockStateRK8BlockPosPK9Direction = __main_start + 0x106550;
_ZN9DoorBlock10getTextureEPK9DirectionPK10BlockState = __main_start + 0x1065cc;
_ZN9DoorBlock10getTextureEP11LevelSourceRK8BlockPosPK9DirectionPK10BlockState = __main_start + 0x1065d4;
_ZN9DoorBlock13registerIconsEP12IconRegister = __main_start + 0x10680c;
_ZN9DoorBlock14getRenderShapeEPK10BlockState = __main_start + 0x106978;
_ZN16DoublePlantBlock8getShapeEPK10BlockStateP11LevelSourceRK8BlockPos = __main_start + 0x10802c;
_ZN16DoublePlantBlock8mayPlaceEP5LevelRK8BlockPos = __main_start + 0x1080ec;
_ZN16DoublePlantBlock19mayReplaceWithPlaceEP11LevelSourceRK8BlockPos = __main_start + 0x108154;
_ZN16DoublePlantBlock11getResourceEPK10BlockStateP6Randomi = __main_start + 0x1084d4;
_ZN16DoublePlantBlock25getSpawnResourcesAuxValueEPK10BlockState = __main_start + 0x1085b0;
_ZN16DoublePlantBlock8getColorEP11LevelSourceRK8BlockPosi = __main_start + 0x108638;
_ZN16DoublePlantBlock8getColorEP11LevelSourceRK8BlockPosPK10BlockState = __main_start + 0x108690;
_ZN16DoublePlantBlock11setPlacedByEP5LevelRK8BlockPosPK10BlockStateSt10shared_ptrI12LivingEntityE12not_null_ptrI12ItemInstanceE = __main_start + 0x1087dc;
_ZN16DoublePlantBlock13playerDestroyEP5LevelSt10shared_ptrI6PlayerERK8BlockPosPK10BlockStateSt10shared_ptrI11BlockEntityE12not_null_ptrI12ItemInstanceE = __main_start + 0x108860;
_ZN16DoublePlantBlock17playerWillDestroyEP5LevelRK8BlockPosPK10BlockStateSt10shared_ptrI6PlayerE = __main_start + 0x108afc;
_ZN16DoublePlantBlock20getCloneItemInstanceEP5LevelRK8BlockPosPK10BlockState = __main_start + 0x108dc4;
_ZN16DoublePlantBlock13getBlockStateEi = __main_start + 0x108f40;
_ZN16DoublePlantBlock31fillVirtualBlockStatePropertiesEPK10BlockStateP11LevelSourceRK8BlockPos = __main_start + 0x108fc8;
_ZN16DoublePlantBlock29convertBlockStateToLegacyDataEPK10BlockState = __main_start + 0x10909c;
_ZN16DoublePlantBlock18GetInteractTooltipERK22BlockTooltipDataHolder = __main_start + 0x10911c;
_ZN16DoublePlantBlock26createBlockStateDefinitionEv = __main_start + 0x10918c;
_ZN16DoublePlantBlock13getOffsetTypeEv = __main_start + 0x10921c;
_ZN16DoublePlantBlock14getRenderShapeEPK10BlockState = __main_start + 0x109224;
_ZN16DoublePlantBlock14getIconTextureEPK9DirectionPK10BlockState = __main_start + 0x10922c;
_ZN16DoublePlantBlock10getTextureEPK9DirectionPK10BlockState = __main_start + 0x1092b0;
_ZN16DoublePlantBlock13registerIconsEP12IconRegister = __main_start + 0x1092f8;
_ZN9DoubleTag5writeEP10DataOutput = __main_start + 0x1096b4;
_ZN9DoubleTag4loadEP9DataInputi = __main_start + 0x1096c8;
_ZN9DoubleTag5getIdEv = __main_start + 0x1096f8;
_ZN9DoubleTag8toStringEv = __main_start + 0x109700;
_ZN9DoubleTag4copyEv = __main_start + 0x109758;
_ZN9DoubleTag6equalsEP3Tag = __main_start + 0x10978c;
_ZN9DoubleTag9getAsLongEv = __main_start + 0x1097cc;
_ZN9DoubleTag8getAsIntEv = __main_start + 0x1097e8;
_ZN9DoubleTag10getAsShortEv = __main_start + 0x1097f0;
_ZN9DoubleTag9getAsByteEv = __main_start + 0x109808;
_ZN9DoubleTag11getAsDoubleEv = __main_start + 0x109820;
_ZN9DoubleTag10getAsFloatEv = __main_start + 0x109828;
_ZN14DragonEggBlock8getShapeEPK10BlockStateP11LevelSourceRK8BlockPos = __main_start + 0x109880;
_ZN14DragonEggBlock7onPlaceEP5LevelRK8BlockPosPK10BlockState = __main_start + 0x109890;
_ZN14DragonEggBlock15neighborChangedEPK10BlockStateP5LevelRK8BlockPosP5BlockRK8BlockPos = __main_start + 0x1098ec;
_ZN14DragonEggBlock4tickEP5LevelRK8BlockPosPK10BlockStateP6Random = __main_start + 0x10994c;
_ZN14DragonEggBlock3useEP5LevelRK8BlockPosPK10BlockStateSt10shared_ptrI6PlayerEN15InteractionHand16EInteractionHandEPK9Directionfffb = __main_start + 0x109c68;
_ZN14DragonEggBlock6attackEP5LevelRK8BlockPosSt10shared_ptrI6PlayerE = __main_start + 0x109e60;
_ZN14DragonEggBlock12getTickDelayEP5Level = __main_start + 0x109e64;
_ZNK14DragonEggBlock13isSolidRenderEPK10BlockState = __main_start + 0x109e6c;
_ZN14DragonEggBlock12isCubeShapedEPK10BlockState = __main_start + 0x109e74;
_ZN14DragonEggBlock16shouldRenderFaceEPK10BlockStateP11LevelSourceRK8BlockPosPK9Direction = __main_start + 0x109e7c;
_ZN14DragonEggBlock17getBlockFaceShapeEP11LevelSourcePK10BlockStateRK8BlockPosPK9Direction = __main_start + 0x109e84;
_ZN14DragonEggBlock14getRenderShapeEPK10BlockState = __main_start + 0x109e8c;
_ZN14DragonFireball14addDataWalkersEP14DataFixerUpper = __main_start + 0x10a170;
_ZN12DropperBlock13registerIconsEP12IconRegister = __main_start + 0x10aa20;
_ZN12DropperBlock18GetInteractTooltipERK22BlockTooltipDataHolder = __main_start + 0x10abb8;
_ZN18DropperBlockEntity14addDataWalkersEP14DataFixerUpper = __main_start + 0x10abe0;
_ZN8DyeColor10staticCtorEv = __main_start + 0x10ad7c;
arrayWithLength_unkCtor = __main_start + 0x10b808;
_ZNK8DyeColor23getTextureDiffuseColorsEv = __main_start + 0x10b82c;
_ZN18DynamicLiquidBlock4tickEP5LevelRK8BlockPosPK10BlockStateP6Random = __main_start + 0x10c8c8;
_ZN18DynamicLiquidBlock7onPlaceEP5LevelRK8BlockPosPK10BlockState = __main_start + 0x10d288;
_ZN12EatBlockGoal10staticCtorEv = __main_start + 0x10d308;
_ZN13ElderGuardian14addDataWalkersEP14DataFixerUpper = __main_start + 0x10dc00;
_ZN15EmptyLevelChunkC1EP5Levelii = __main_start + 0x10e330;
_ZN11Enchantment10staticCtorEv = __main_start + 0x10f2ac;
_ZN12Enchantments10staticCtorEv = __main_start + 0x113ce0;
_ZN21EnchantmentTableBlock8getShapeEPK10BlockStateP11LevelSourceRK8BlockPos = __main_start + 0x114578;
_ZN21EnchantmentTableBlock12isCubeShapedEPK10BlockState = __main_start + 0x114588;
_ZN21EnchantmentTableBlock11animateTickEPK10BlockStateP5LevelRK8BlockPosP6Random = __main_start + 0x114590;
_ZNK21EnchantmentTableBlock13isSolidRenderEPK10BlockState = __main_start + 0x1147c4;
_ZN21EnchantmentTableBlock14getRenderShapeEPK10BlockState = __main_start + 0x1147cc;
_ZN21EnchantmentTableBlock3useEP5LevelRK8BlockPosPK10BlockStateSt10shared_ptrI6PlayerEN15InteractionHand16EInteractionHandEPK9Directionfffb = __main_start + 0x114a1c;
_ZN21EnchantmentTableBlock11setPlacedByEP5LevelRK8BlockPosPK10BlockStateSt10shared_ptrI12LivingEntityE12not_null_ptrI12ItemInstanceE = __main_start + 0x114af0;
_ZN21EnchantmentTableBlock17getBlockFaceShapeEP11LevelSourcePK10BlockStateRK8BlockPosPK9Direction = __main_start + 0x114c78;
_ZN21EnchantmentTableBlock10getTextureEPK9DirectionPK10BlockState = __main_start + 0x114c94;
_ZN21EnchantmentTableBlock13registerIconsEP12IconRegister = __main_start + 0x114ce0;
_ZN21EnchantmentTableBlock18GetInteractTooltipERK22BlockTooltipDataHolder = __main_start + 0x114d54;
_ZN15EnderChestBlock8getShapeEPK10BlockStateP11LevelSourceRK8BlockPos = __main_start + 0x11bd40;
_ZNK15EnderChestBlock13isSolidRenderEPK10BlockState = __main_start + 0x11bd50;
_ZN15EnderChestBlock12isCubeShapedEPK10BlockState = __main_start + 0x11bd58;
_ZN15EnderChestBlock25hasCustomBreakingProgressEPK10BlockState = __main_start + 0x11bd60;
_ZN15EnderChestBlock11getResourceEPK10BlockStateP6Randomi = __main_start + 0x11bd68;
_ZN15EnderChestBlock16getResourceCountEP6Random = __main_start + 0x11bd78;
_ZN15EnderChestBlock15isSilkTouchableEv = __main_start + 0x11bd80;
_ZN15EnderChestBlock20getStateForPlacementEP5LevelRK8BlockPosPK9DirectionfffiSt10shared_ptrI12LivingEntityE = __main_start + 0x11bd88;
_ZN15EnderChestBlock11setPlacedByEP5LevelRK8BlockPosPK10BlockStateSt10shared_ptrI12LivingEntityE12not_null_ptrI12ItemInstanceE = __main_start + 0x11bde0;
_ZN15EnderChestBlock3useEP5LevelRK8BlockPosPK10BlockStateSt10shared_ptrI6PlayerEN15InteractionHand16EInteractionHandEPK9Directionfffb = __main_start + 0x11bf64;
_ZN15EnderChestBlock11animateTickEPK10BlockStateP5LevelRK8BlockPosP6Random = __main_start + 0x11c23c;
_ZN15EnderChestBlock13getBlockStateEi = __main_start + 0x11c3b0;
_ZN15EnderChestBlock29convertBlockStateToLegacyDataEPK10BlockState = __main_start + 0x11c414;
_ZN15EnderChestBlock18GetInteractTooltipERK22BlockTooltipDataHolder = __main_start + 0x11c43c;
_ZN15EnderChestBlock6rotateEPK10BlockStateP8Rotation = __main_start + 0x11c464;
_ZN15EnderChestBlock6mirrorEPK10BlockStateP6Mirror = __main_start + 0x11c4bc;
_ZN15EnderChestBlock26createBlockStateDefinitionEv = __main_start + 0x11c524;
_ZN15EnderChestBlock17getBlockFaceShapeEP11LevelSourcePK10BlockStateRK8BlockPosPK9Direction = __main_start + 0x11c598;
_ZN15EnderChestBlock13registerIconsEP12IconRegister = __main_start + 0x11c5a0;
_ZN15EnderChestBlock14getRenderShapeEPK10BlockState = __main_start + 0x11c618;
_ZN12EnderCrystal10staticCtorEv = __main_start + 0x11cb80;
_ZN11EnderDragon10staticCtorEv = __main_start + 0x11d4e0;
_ZN11EnderDragon14addDataWalkersEP14DataFixerUpper = __main_start + 0x122484;
_ZN8EnderMan10staticCtorEv = __main_start + 0x1235d0;
_ZN8EnderMan14addDataWalkersEP14DataFixerUpper = __main_start + 0x125c20;
_ZN9Endermite14addDataWalkersEP14DataFixerUpper = __main_start + 0x12770c;
_ZN15EndGatewayBlock16shouldRenderFaceEPK10BlockStateP11LevelSourceRK8BlockPosPK9Direction = __main_start + 0x128110;
_ZN15EndGatewayBlock11getClipAABBEPK10BlockStateP11LevelSourceRK8BlockPos = __main_start + 0x12819c;
_ZNK15EndGatewayBlock13isSolidRenderEPK10BlockState = __main_start + 0x1281ac;
_ZN15EndGatewayBlock12isCubeShapedEPK10BlockState = __main_start + 0x1281b4;
_ZN15EndGatewayBlock16getResourceCountEP6Random = __main_start + 0x1281bc;
_ZN15EndGatewayBlock11animateTickEPK10BlockStateP5LevelRK8BlockPosP6Random = __main_start + 0x1281c4;
_ZN15EndGatewayBlock20getCloneItemInstanceEP5LevelRK8BlockPosPK10BlockState = __main_start + 0x128414;
_ZN15EndGatewayBlock11getMapColorEPK10BlockStateP11LevelSourceRK8BlockPos = __main_start + 0x128424;
_ZN15EndGatewayBlock17getBlockFaceShapeEP11LevelSourcePK10BlockStateRK8BlockPosPK9Direction = __main_start + 0x128434;
_ZN15EndGatewayBlock26createBlockStateDefinitionEv = __main_start + 0x12843c;
_ZN15EndGatewayBlock13getBlockStateEi = __main_start + 0x1284b0;
_ZN15EndGatewayBlock29convertBlockStateToLegacyDataEPK10BlockState = __main_start + 0x1284e0;
_ZN14EndPortalBlock8getShapeEPK10BlockStateP11LevelSourceRK8BlockPos = __main_start + 0x1288d0;
_ZN14EndPortalBlock16shouldRenderFaceEPK10BlockStateP11LevelSourceRK8BlockPosPK9Direction = __main_start + 0x1288e0;
_ZN14EndPortalBlock17addCollisionAABBsEPK10BlockStateP5LevelRK8BlockPosPK4AABBPSt6vectorIP4AABBSt9allocatorIP4AABBEESt10shared_ptrI6EntityEb = __main_start + 0x128900;
_ZNK14EndPortalBlock13isSolidRenderEPK10BlockState = __main_start + 0x128904;
_ZN14EndPortalBlock12isCubeShapedEPK10BlockState = __main_start + 0x12890c;
_ZN14EndPortalBlock16getResourceCountEP6Random = __main_start + 0x128914;
_ZN14EndPortalBlock12entityInsideEP5LevelRK8BlockPosPK10BlockStateRKSt10shared_ptrI6EntityE = __main_start + 0x12891c;
_ZN14EndPortalBlock11animateTickEPK10BlockStateP5LevelRK8BlockPosP6Random = __main_start + 0x128b70;
_ZN14EndPortalBlock20getCloneItemInstanceEP5LevelRK8BlockPosPK10BlockState = __main_start + 0x128c44;
_ZN14EndPortalBlock11getMapColorEPK10BlockStateP11LevelSourceRK8BlockPos = __main_start + 0x128c54;
_ZN14EndPortalBlock17getBlockFaceShapeEP11LevelSourcePK10BlockStateRK8BlockPosPK9Direction = __main_start + 0x128c64;
_ZN14EndPortalBlock13registerIconsEP12IconRegister = __main_start + 0x128c6c;
_ZN14EndPortalBlock14getRenderShapeEPK10BlockState = __main_start + 0x128ce4;
_ZNK19EndPortalFrameBlock13isSolidRenderEPK10BlockState = __main_start + 0x128d98;
_ZN19EndPortalFrameBlock8getShapeEPK10BlockStateP11LevelSourceRK8BlockPos = __main_start + 0x128da0;
_ZN19EndPortalFrameBlock17addCollisionAABBsEPK10BlockStateP5LevelRK8BlockPosPK4AABBPSt6vectorIP4AABBSt9allocatorIP4AABBEESt10shared_ptrI6EntityEb = __main_start + 0x128db0;
_ZN19EndPortalFrameBlock11getResourceEPK10BlockStateP6Randomi = __main_start + 0x128e70;
_ZN19EndPortalFrameBlock20getStateForPlacementEP5LevelRK8BlockPosPK9DirectionfffiSt10shared_ptrI12LivingEntityE = __main_start + 0x128e80;
_ZN19EndPortalFrameBlock21hasAnalogOutputSignalEPK10BlockState = __main_start + 0x128eec;
_ZN19EndPortalFrameBlock21getAnalogOutputSignalEPK10BlockStateP5LevelRK8BlockPos = __main_start + 0x128ef4;
_ZN19EndPortalFrameBlock13getBlockStateEi = __main_start + 0x128f38;
_ZN19EndPortalFrameBlock29convertBlockStateToLegacyDataEPK10BlockState = __main_start + 0x128f98;
_ZN19EndPortalFrameBlock6rotateEPK10BlockStateP8Rotation = __main_start + 0x128ff0;
_ZN19EndPortalFrameBlock6mirrorEPK10BlockStateP6Mirror = __main_start + 0x129048;
_ZN19EndPortalFrameBlock26createBlockStateDefinitionEv = __main_start + 0x1290b0;
_ZN19EndPortalFrameBlock12isCubeShapedEPK10BlockState = __main_start + 0x129130;
_ZN19EndPortalFrameBlock17getBlockFaceShapeEP11LevelSourcePK10BlockStateRK8BlockPosPK9Direction = __main_start + 0x1293b8;
_ZN19EndPortalFrameBlock10getTextureEPK9DirectionPK10BlockState = __main_start + 0x1293dc;
_ZN19EndPortalFrameBlock13registerIconsEP12IconRegister = __main_start + 0x12942c;
_ZN19EndPortalFrameBlock14getRenderShapeEPK10BlockState = __main_start + 0x129534;
_ZN11EndRodBlock11DerivedInitEv = __main_start + 0x12953c;
_ZN11EndRodBlock6rotateEPK10BlockStateP8Rotation = __main_start + 0x1295c8;
_ZN11EndRodBlock6mirrorEPK10BlockStateP6Mirror = __main_start + 0x129620;
_ZN11EndRodBlock8getShapeEPK10BlockStateP11LevelSourceRK8BlockPos = __main_start + 0x129678;
_ZNK11EndRodBlock13isSolidRenderEPK10BlockState = __main_start + 0x1296d4;
_ZN11EndRodBlock12isCubeShapedEPK10BlockState = __main_start + 0x1296dc;
_ZN11EndRodBlock8mayPlaceEP5LevelRK8BlockPos = __main_start + 0x1296e4;
_ZN11EndRodBlock20getStateForPlacementEP5LevelRK8BlockPosPK9DirectionfffiSt10shared_ptrI12LivingEntityE = __main_start + 0x1296ec;
_ZN11EndRodBlock11animateTickEPK10BlockStateP5LevelRK8BlockPosP6Random = __main_start + 0x1297e0;
_ZN11EndRodBlock14getRenderLayerEv = __main_start + 0x1299c8;
_ZN11EndRodBlock13getBlockStateEi = __main_start + 0x1299d0;
_ZN11EndRodBlock29convertBlockStateToLegacyDataEPK10BlockState = __main_start + 0x129a1c;
_ZN11EndRodBlock21getPistonPushReactionEPK10BlockState = __main_start + 0x129a44;
_ZN11EndRodBlock17getBlockFaceShapeEP11LevelSourcePK10BlockStateRK8BlockPosPK9Direction = __main_start + 0x129a4c;
_ZN11EndRodBlock26createBlockStateDefinitionEv = __main_start + 0x129a54;
_ZN11EndRodBlock14getRenderShapeEPK10BlockState = __main_start + 0x129ac8;
_ZN11EndRodBlock25getSpawnResourcesAuxValueEPK10BlockState = __main_start + 0x129b70;
_ZN6EndTag4loadEP9DataInputi = __main_start + 0x129bb0;
_ZN6EndTag5writeEP10DataOutput = __main_start + 0x129bb4;
_ZN6EndTag5getIdEv = __main_start + 0x129bb8;
_ZN6EndTag8toStringEv = __main_start + 0x129bc0;
_ZN6EndTag4copyEv = __main_start + 0x129c00;
_ZN6EndTag6equalsEP3Tag = __main_start + 0x129c2c;
_ZN14PacketListenerD2Ev = __main_start + 0x129c88;
_ZN24ClientGamePacketListenerD0Ev = __main_start + 0x129c8c;
_ZN14PacketListener22isServerPacketListenerEv = __main_start + 0x129cb0;
_ZN28ClientboundEntityEventPacketD2Ev = __main_start + 0x129cb8;
_ZN28ClientboundEntityEventPacketD0Ev = __main_start + 0x129ce0;
_ZN28ClientboundEntityEventPacket11getPacketIdEv = __main_start + 0x129d04;
_ZN24ClientboundExplodePacketD2Ev = __main_start + 0x129d0c;
_ZN24ClientboundExplodePacketD0Ev = __main_start + 0x129d50;
_ZN24ClientboundExplodePacket11getPacketIdEv = __main_start + 0x129d74;
_ZN26ClientboundGameEventPacketD2Ev = __main_start + 0x129d7c;
_ZN26ClientboundGameEventPacketD0Ev = __main_start + 0x129da4;
_ZN26ClientboundGameEventPacket11getPacketIdEv = __main_start + 0x129dc8;
_ZN26ClientboundKeepAlivePacketD2Ev = __main_start + 0x129dd0;
_ZN26ClientboundKeepAlivePacketD0Ev = __main_start + 0x129df8;
_ZN26ClientboundKeepAlivePacket11getPacketIdEv = __main_start + 0x129e1c;
_ZN27ClientboundLevelEventPacketD2Ev = __main_start + 0x129e24;
_ZN27ClientboundLevelEventPacketD0Ev = __main_start + 0x129e4c;
_ZN27ClientboundLevelEventPacket11getPacketIdEv = __main_start + 0x129e70;
_ZN31ClientboundLevelParticlesPacket11getPacketIdEv = __main_start + 0x129e78;
_ZN22ClientboundLoginPacketD2Ev = __main_start + 0x129e80;
_ZN22ClientboundLoginPacketD0Ev = __main_start + 0x129ec4;
_ZN22ClientboundLoginPacket11getPacketIdEv = __main_start + 0x129ee8;
_ZN28ClientboundMapItemDataPacket11getPacketIdEv = __main_start + 0x129ef0;
_ZN39ClientboundMGPlayerSettingsUpdatePacketD2Ev = __main_start + 0x129ef8;
_ZN39ClientboundMGPlayerSettingsUpdatePacketD0Ev = __main_start + 0x129f3c;
_ZN39ClientboundMGPlayerSettingsUpdatePacket11getPacketIdEv = __main_start + 0x129f60;
_ZN27ClientboundMoveEntityPacketD0Ev = __main_start + 0x129f68;
_ZN27ClientboundMoveEntityPacket11getPacketIdEv = __main_start + 0x129f8c;
_ZN27ClientboundMoveEntityPacket6PosRotD0Ev = __main_start + 0x129f94;
_ZN27ClientboundMoveEntityPacket6PosRot11getPacketIdEv = __main_start + 0x129fb8;
_ZN27ClientboundMoveEntityPacket3PosD0Ev = __main_start + 0x129fc0;
_ZN27ClientboundMoveEntityPacket3Pos11getPacketIdEv = __main_start + 0x129fe4;
_ZN27ClientboundMoveEntityPacketD2Ev = __main_start + 0x129fec;
_ZN27ClientboundMoveEntityPacket3RotD0Ev = __main_start + 0x12a014;
_ZN27ClientboundMoveEntityPacket3Rot11getPacketIdEv = __main_start + 0x12a038;
_ZN28ClientboundMoveVehiclePacketD2Ev = __main_start + 0x12a040;
_ZN28ClientboundMoveVehiclePacketD0Ev = __main_start + 0x12a068;
_ZN28ClientboundMoveVehiclePacket11getPacketIdEv = __main_start + 0x12a08c;
_ZN31ClientboundOpenSignEditorPacket11getPacketIdEv = __main_start + 0x12a094;
_ZN30ClientboundSetEntityLinkPacketD2Ev = __main_start + 0x12a09c;
_ZN30ClientboundSetEntityLinkPacketD0Ev = __main_start + 0x12a0c4;
_ZN30ClientboundSetEntityLinkPacket11getPacketIdEv = __main_start + 0x12a0e8;
_ZN32ClientboundPlayerAbilitiesPacketD2Ev = __main_start + 0x12a0f0;
_ZN32ClientboundPlayerAbilitiesPacketD0Ev = __main_start + 0x12a118;
_ZN32ClientboundPlayerAbilitiesPacket11getPacketIdEv = __main_start + 0x12a13c;
_ZN29ClientboundPlayerCombatPacket11getPacketIdEv = __main_start + 0x12a144;
_ZN31ClientboundPlayerPositionPacket11getPacketIdEv = __main_start + 0x12a14c;
_ZN28ClientboundPlayerSleepPacket11getPacketIdEv = __main_start + 0x12a154;
_ZN24ClientboundPowerupPacketD2Ev = __main_start + 0x12a15c;
_ZN24ClientboundPowerupPacketD0Ev = __main_start + 0x12a184;
_ZN24ClientboundPowerupPacket11getPacketIdEv = __main_start + 0x12a1a8;
_ZN31ClientboundRemoveEntitiesPacket11getPacketIdEv = __main_start + 0x12a1b0;
_ZN32ClientboundRemoveMobEffectPacketD2Ev = __main_start + 0x12a1b8;
_ZN32ClientboundRemoveMobEffectPacketD0Ev = __main_start + 0x12a1e0;
_ZN32ClientboundRemoveMobEffectPacket11getPacketIdEv = __main_start + 0x12a204;
_ZN29ClientboundResourcePackPacket11getPacketIdEv = __main_start + 0x12a20c;
_ZN24ClientboundRespawnPacketD2Ev = __main_start + 0x12a214;
_ZN24ClientboundRespawnPacketD0Ev = __main_start + 0x12a23c;
_ZN24ClientboundRespawnPacket11getPacketIdEv = __main_start + 0x12a260;
_ZN27ClientboundRotateHeadPacketD2Ev = __main_start + 0x12a268;
_ZN27ClientboundRotateHeadPacketD0Ev = __main_start + 0x12a290;
_ZN27ClientboundRotateHeadPacket11getPacketIdEv = __main_start + 0x12a2b4;
_ZN26ClientboundSetBorderPacket11getPacketIdEv = __main_start + 0x12a2bc;
_ZN26ClientboundSetCameraPacket11getPacketIdEv = __main_start + 0x12a2c4;
_ZN31ClientboundSetCarriedItemPacketD2Ev = __main_start + 0x12a2cc;
_ZN31ClientboundSetCarriedItemPacketD0Ev = __main_start + 0x12a2f4;
_ZN31ClientboundSetCarriedItemPacket11getPacketIdEv = __main_start + 0x12a318;
_ZN30ClientboundSetEntityDataPacket11getPacketIdEv = __main_start + 0x12a320;
_ZN32ClientboundSetEntityMotionPacketD2Ev = __main_start + 0x12a328;
_ZN32ClientboundSetEntityMotionPacketD0Ev = __main_start + 0x12a350;
_ZN32ClientboundSetEntityMotionPacket11getPacketIdEv = __main_start + 0x12a374;
_ZN32ClientboundSetEquippedItemPacketD2Ev = __main_start + 0x12a3a0;
_ZN32ClientboundSetEquippedItemPacketD0Ev = __main_start + 0x12a3e4;
_ZN32ClientboundSetEquippedItemPacket11getPacketIdEv = __main_start + 0x12a408;
_ZN30ClientboundSetExperiencePacketD2Ev = __main_start + 0x12a410;
_ZN30ClientboundSetExperiencePacketD0Ev = __main_start + 0x12a438;
_ZN30ClientboundSetExperiencePacket11getPacketIdEv = __main_start + 0x12a45c;
_ZN26ClientboundSetHealthPacketD2Ev = __main_start + 0x12a464;
_ZN26ClientboundSetHealthPacketD0Ev = __main_start + 0x12a48c;
_ZN26ClientboundSetHealthPacket11getPacketIdEv = __main_start + 0x12a4b0;
_ZN30ClientboundSetPassengersPacket11getPacketIdEv = __main_start + 0x12a4b8;
_ZN30ClientboundSetPlayerTeamPacketD2Ev = __main_start + 0x12a4c0;
_ZN30ClientboundSetPlayerTeamPacketD0Ev = __main_start + 0x12a50c;
_ZN30ClientboundSetPlayerTeamPacket11getPacketIdEv = __main_start + 0x12a530;
_ZN33ClientboundSetSpawnPositionPacketD2Ev = __main_start + 0x12a538;
_ZN33ClientboundSetSpawnPositionPacketD0Ev = __main_start + 0x12a560;
_ZN33ClientboundSetSpawnPositionPacket11getPacketIdEv = __main_start + 0x12a584;
_ZN24ClientboundSetTimePacketD2Ev = __main_start + 0x12a58c;
_ZN24ClientboundSetTimePacketD0Ev = __main_start + 0x12a5b4;
_ZN24ClientboundSetTimePacket11getPacketIdEv = __main_start + 0x12a5d8;
_ZN26ClientboundSetTitlesPacketD2Ev = __main_start + 0x12a5e0;
_ZN26ClientboundSetTitlesPacketD0Ev = __main_start + 0x12a624;
_ZN26ClientboundSetTitlesPacket11getPacketIdEv = __main_start + 0x12a648;
_ZN22ClientboundSoundPacketD2Ev = __main_start + 0x12a650;
_ZN22ClientboundSoundPacketD0Ev = __main_start + 0x12a678;
_ZN22ClientboundSoundPacket11getPacketIdEv = __main_start + 0x12a69c;
_ZN24ClientboundTabListPacket11getPacketIdEv = __main_start + 0x12a6a4;
_ZN31ClientboundTakeItemEntityPacketD2Ev = __main_start + 0x12a6ac;
_ZN31ClientboundTakeItemEntityPacketD0Ev = __main_start + 0x12a6d4;
_ZN31ClientboundTakeItemEntityPacket11getPacketIdEv = __main_start + 0x12a6f8;
_ZN31ClientboundTeleportEntityPacketD2Ev = __main_start + 0x12a700;
_ZN31ClientboundTeleportEntityPacketD0Ev = __main_start + 0x12a728;
_ZN31ClientboundTeleportEntityPacket11getPacketIdEv = __main_start + 0x12a74c;
_ZN33ClientboundUpdateAttributesPacket11getPacketIdEv = __main_start + 0x12a754;
_ZN32ClientboundUpdateMobEffectPacketD2Ev = __main_start + 0x12a75c;
_ZN32ClientboundUpdateMobEffectPacketD0Ev = __main_start + 0x12a784;
_ZN32ClientboundUpdateMobEffectPacket11getPacketIdEv = __main_start + 0x12a7a8;
_ZN15DataInputStreamD0Ev = __main_start + 0x12a7d4;
vtbl_710103D840_func_0 = __main_start + 0x12a7f8;
vtbl_710103D840_func_1 = __main_start + 0x12a800;
_ZN10CocoaBlockD0Ev = __main_start + 0x12a82c;
_ZN12ColoredBlockD0Ev = __main_start + 0x12a850;
_ZN12DamageSourceD2Ev = __main_start + 0x12a874;
_ZN12DamageSourceD0Ev = __main_start + 0x12a878;
_ZN10DiodeBlockD0Ev = __main_start + 0x12a924;
_ZN15ComparatorBlockD2Ev = __main_start + 0x12a948;
_ZN15ComparatorBlockD0Ev = __main_start + 0x12a970;
_ZN19ConcretePowderBlockD0Ev = __main_start + 0x12aa88;
_ZN16DataOutputStreamD0Ev = __main_start + 0x12aaac;
vtbl_710103D998_func_0 = __main_start + 0x12aad0;
vtbl_710103D998_func_1 = __main_start + 0x12aad8;
_ZN18CraftingTableBlockD0Ev = __main_start + 0x12ac3c;
_ZN15CraftItemPacket11getPacketIdEv = __main_start + 0x12ac60;
_ZN9CropBlockD0Ev = __main_start + 0x12ac98;
_ZN27GenericOverworldLevelSourceD0Ev = __main_start + 0x12acbc;
_ZN21DaylightDetectorBlockD0Ev = __main_start + 0x12ad0c;
_ZN13DeadBushBlockD0Ev = __main_start + 0x12ad70;
_ZN18DebugOptionsPacket11getPacketIdEv = __main_start + 0x12addc;
vtbl_710103E7F0_func_1 = __main_start + 0x12aea8;
vtbl_710103E7F0_func_18 = __main_start + 0x12aecc;
_ZN17DetectorRailBlockD0Ev = __main_start + 0x12aef8;
_ZN9DirtBlockD0Ev = __main_start + 0x12b074;
_ZN16DisconnectPacketD2Ev = __main_start + 0x12b098;
_ZN16DisconnectPacketD0Ev = __main_start + 0x12b0c0;
_ZN16DisconnectPacket11getPacketIdEv = __main_start + 0x12b0e4;
_ZN14DispenserBlockD0Ev = __main_start + 0x12b110;
_ZN9DoorBlockD0Ev = __main_start + 0x12b1a0;
_ZN16DoublePlantBlockD0Ev = __main_start + 0x12b1e8;
_ZN9DoubleTagD0Ev = __main_start + 0x12b20c;
_ZN14DragonEggBlockD0Ev = __main_start + 0x12b230;
_ZN12DropperBlockD0Ev = __main_start + 0x12b350;
_ZN18DynamicLiquidBlockD2Ev = __main_start + 0x12b3a8;
_ZN18DynamicLiquidBlockD0Ev = __main_start + 0x12b3dc;
_ZN17StaticLiquidBlock13isLiquidBlockEv = __main_start + 0x12b400;
_ZN21EnchantmentTableBlockD0Ev = __main_start + 0x12b678;
_ZN15EnderChestBlockD0Ev = __main_start + 0x12b7c8;
_ZN15EndGatewayBlockD0Ev = __main_start + 0x12baa4;
_ZN14EndPortalBlockD0Ev = __main_start + 0x12bafc;
_ZN19EndPortalFrameBlockD0Ev = __main_start + 0x12bb30;
_ZN11EndRodBlockD0Ev = __main_start + 0x12bb54;
_ZN6EndTagD0Ev = __main_start + 0x12bb78;
_ZN16DirectionalBlockD0Ev = __main_start + 0x12c01c;
_ZN14ChunkGeneratorD1Ev = __main_start + 0x12cab0;
_ZN14ChunkGeneratorD0Ev = __main_start + 0x12cab4;
_ZN14ChunkGenerator10lightChunkEP10LevelChunk = __main_start + 0x12cad8;
_ZN8PlayerIOD1Ev = __main_start + 0x12ccf0;
_ZN8PlayerIOD0Ev = __main_start + 0x12ccf4;
_ZN5SynthD1Ev = __main_start + 0x12ceec;
_ZN5SynthD0Ev = __main_start + 0x12cef0;
_ZNSt3__18weak_ptrI33ClientboundSetSpawnPositionPacketED2Ev = __main_start + 0x12df2c;
_ZNSt3__18weak_ptrI24ClientboundSetTimePacketED2Ev = __main_start + 0x12df3c;
_ZNSt3__18weak_ptrI28ClientboundPlayerSleepPacketED2Ev = __main_start + 0x13002c;
_ZNSt3__110shared_ptrI28ClientboundPlayerSleepPacketEC2IS1_EERKNS_8weak_ptrIT_EENS_9enable_ifIXsr14is_convertibleIPS5_PS1_EE5valueENS2_5__natEE4typeE = __main_start + 0x13003c;
_ZNSt3__110shared_ptrI33ClientboundSetSpawnPositionPacketEC2IS1_EERKNS_8weak_ptrIT_EENS_9enable_ifIXsr14is_convertibleIPS5_PS1_EE5valueENS2_5__natEE4typeE = __main_start + 0x130e88;
_ZNSt3__110shared_ptrI24ClientboundSetTimePacketEC2IS1_EERKNS_8weak_ptrIT_EENS_9enable_ifIXsr14is_convertibleIPS5_PS1_EE5valueENS2_5__natEE4typeE = __main_start + 0x130ec8;
_ZN6Entity10staticCtorEv = __main_start + 0x1512e0;
_ZN6Entity4initEbP5Level = __main_start + 0x15140c;
_ZN15arrayWithLengthIdEC1Eib = __main_start + 0x1516fc;
_ZN6EntityC1EP5Levelb = __main_start + 0x151740;
_ZN6EntityD0Ev = __main_start + 0x151ab4;
_ZN6Entity4killEv = __main_start + 0x151b24;
_ZN6Entity8resetPosEv = __main_start + 0x151b4c;
_ZN6Entity6removeEv = __main_start + 0x151c54;
_ZN6Entity23setDropContainerContentEb = __main_start + 0x151c68;
_ZN6Entity7setSizeEff = __main_start + 0x151c6c;
_ZN6Entity6setRotEff = __main_start + 0x151dac;
_ZN6Entity6setPosEddd = __main_start + 0x151dec;
_ZN6Entity15interpolateTurnEff = __main_start + 0x151e60;
_ZN6Entity4tickEv = __main_start + 0x151eb8;
_ZN6Entity13setSharedFlagEib = __main_start + 0x151f20;
_ZN6Entity8baseTickEv = __main_start + 0x151f9c;
_ZN6Entity15isInWaterOrRainEv = __main_start + 0x152468;
_ZN6Entity21processDimensionDelayEv = __main_start + 0x1525a8;
_ZN6Entity17getPortalWaitTimeEv = __main_start + 0x1525bc;
_ZN6Entity16setSecondsOnFireEi = __main_start + 0x1525c4;
_ZN6Entity9clearFireEv = __main_start + 0x15264c;
_ZN6Entity10outOfWorldEv = __main_start + 0x152654;
_ZN6Entity4moveE9MoverTypedddb = __main_start + 0x152748;
_ZN6Entity20updateDeltaAfterMoveEP5BlockdddRdS2_S2_ = __main_start + 0x153c44;
_ZN6Entity26setLocationFromBoundingboxEv = __main_start + 0x153ce8;
_ZN6Entity12getSwimSoundEv = __main_start + 0x153d44;
_ZN6Entity18getSwimSplashSoundEv = __main_start + 0x153d54;
_ZN6Entity17checkInsideBlocksEv = __main_start + 0x153d64;
_ZN6Entity13onInsideBlockEPK10BlockState = __main_start + 0x153f7c;
_ZN6Entity13playStepSoundERK8BlockPosP5Block = __main_start + 0x153f80;
_ZN6Entity12playFlySoundEf = __main_start + 0x154130;
_ZN6Entity12makeFlySoundEv = __main_start + 0x154138;
_ZN6Entity9playSoundEPK10SoundEventff = __main_start + 0x1541d4;
_ZN6Entity8isSilentEv = __main_start + 0x154290;
_ZN6Entity9setSilentEb = __main_start + 0x1542a4;
_ZN6Entity11isNoGravityEv = __main_start + 0x1542c4;
_ZN6Entity12setNoGravityEb = __main_start + 0x1542d8;
_ZN6Entity13makeStepSoundEv = __main_start + 0x1542f8;
_ZN6Entity15checkFallDamageEdbP5BlockRK8BlockPos = __main_start + 0x154300;
_ZN6Entity13getCollideBoxEv = __main_start + 0x1543c4;
_ZN6Entity4burnEi = __main_start + 0x1543cc;
_ZN6Entity15causeFallDamageEff = __main_start + 0x154400;
_ZN6Entity9isInWaterEv = __main_start + 0x15451c;
_ZN6Entity11isOverWaterEv = __main_start + 0x154524;
_ZN6Entity18updateInWaterStateEv = __main_start + 0x1545c0;
_ZN6Entity19doWaterSplashEffectEv = __main_start + 0x154744;
_ZN6Entity20updateSprintingStateEv = __main_start + 0x154b04;
_ZN6Entity22doSprintParticleEffectEv = __main_start + 0x154b5c;
_ZN6Entity13isUnderLiquidEP8Material = __main_start + 0x154cdc;
_ZN6Entity13getLightColorEv = __main_start + 0x154f40;
_ZN6Entity13getBrightnessEv = __main_start + 0x155004;
_ZN6Entity8setLevelEP5Level = __main_start + 0x1550b0;
_ZN6Entity6moveToEdddff = __main_start + 0x1552e0;
_ZN6Entity11playerTouchESt10shared_ptrI6PlayerE = __main_start + 0x15552c;
_ZN6Entity4pushESt10shared_ptrIS_E = __main_start + 0x155530;
_ZN6Entity4pushEddd = __main_start + 0x1556b4;
_ZN6Entity8markHurtEv = __main_start + 0x1556e8;
_ZN6Entity4hurtEP12DamageSourcef = __main_start + 0x1556f4;
_ZN6Entity13getViewVectorEf = __main_start + 0x155744;
_ZN6Entity19calculateViewVectorEff = __main_start + 0x155780;
_ZN6Entity10isPickableEv = __main_start + 0x155e10;
_ZN6Entity10isPushableEv = __main_start + 0x155e18;
_ZN6Entity14awardKillScoreESt10shared_ptrIS_EiP12DamageSource = __main_start + 0x155e20;
_ZN6Entity12shouldRenderEddd = __main_start + 0x155e24;
_ZN6Entity12shouldRenderEd = __main_start + 0x155e58;
_ZN6Entity25shouldRenderAtSqrDistanceEd = __main_start + 0x155e64;
_ZN6Entity4saveEP11CompoundTag = __main_start + 0x156880;
_ZN6Entity14addDataWalkersEP14DataFixerUpper = __main_start + 0x156990;
_ZN6Entity13getSharedFlagEi = __main_start + 0x156bb0;
_ZN6Entity4loadEP11CompoundTag = __main_start + 0x156bf4;
_ZN6Entity12setAirSupplyEi = __main_start + 0x157598;
_ZN6Entity25repositionEntityAfterLoadEv = __main_start + 0x1575b8;
_ZN6Entity25getAdditionContructionTagEv = __main_start + 0x1575d4;
_ZN6Entity15spawnAtLocationEP4Itemi = __main_start + 0x1575dc;
_ZN6Entity15spawnAtLocationEP4Itemif = __main_start + 0x1575ec;
_ZN6Entity15spawnAtLocationE12not_null_ptrI12ItemInstanceEf = __main_start + 0x157684;
_ZNK12ItemInstance7isEmptyEv = __main_start + 0x157794;
_ZN6Entity7isAliveEv = __main_start + 0x157804;
_ZN6Entity8isInWallEv = __main_start + 0x157814;
_ZN6Entity8interactERKSt10shared_ptrI6PlayerEN15InteractionHand16EInteractionHandE = __main_start + 0x157a20;
_ZN6Entity20getCollideAgainstBoxESt10shared_ptrIS_E = __main_start + 0x157a28;
_ZN6Entity8rideTickEv = __main_start + 0x157a30;
_ZN6Entity13positionRiderERKSt10shared_ptrIS_E = __main_start + 0x157c3c;
_ZN6Entity17onPassengerTurnedESt10shared_ptrIS_E = __main_start + 0x157d24;
_ZN6Entity15getRidingHeightEv = __main_start + 0x157d28;
_ZN6Entity13getRideHeightEv = __main_start + 0x157d30;
_ZN6Entity11startRidingESt10shared_ptrIS_E = __main_start + 0x157d44;
_ZN6Entity11startRidingESt10shared_ptrIS_Eb = __main_start + 0x157da8;
_ZN6Entity18GetInteractTooltipERK23EntityTooltipDataHolder = __main_start + 0x157fa4;
_ZN4Item5getIdEP4Item = __main_start + 0x1580e8;
_ZNK12ItemInstance7getItemEv = __main_start + 0x158108;
_ZN12ItemInstance18hasCustomHoverNameEv = __main_start + 0x158128;
_ZN12ItemInstance12getHoverNameEv = __main_start + 0x1581e0;
_ZN6Entity13GetHitTooltipERK23EntityTooltipDataHolder = __main_start + 0x158470;
_ZN6Entity15HideUseTooltipsEv = __main_start + 0x158488;
_ZN6Entity7canRideESt10shared_ptrIS_E = __main_start + 0x158490;
_ZN6Entity15ejectPassengersEv = __main_start + 0x1584a0;
_ZN6Entity10stopRidingEv = __main_start + 0x158544;
_ZN6Entity24stopRidingBeforeTeleportEv = __main_start + 0x1587d4;
_ZN6Entity12addPassengerESt10shared_ptrIS_E = __main_start + 0x15882c;
_ZN6Entity15removePassengerESt10shared_ptrIS_E = __main_start + 0x158ab8;
_ZN6Entity15canAddPassengerESt10shared_ptrIS_E = __main_start + 0x158d3c;
_ZN6Entity6lerpToEdddffib = __main_start + 0x158d64;
_ZN6Entity13getPickRadiusEv = __main_start + 0x158da8;
_ZN6Entity12getLookAngleEv = __main_start + 0x158db0;
_ZN6Entity17getRotationVectorEv = __main_start + 0x158db8;
_ZN6Entity10getForwardEv = __main_start + 0x158dc0;
_ZN6Entity18handleInsidePortalERK8BlockPos = __main_start + 0x158ddc;
_ZN6Entity25getDimensionChangingDelayEv = __main_start + 0x159004;
_ZN6Entity10lerpMotionEddd = __main_start + 0x15900c;
_ZN6Entity17handleEntityEventEhi = __main_start + 0x15901c;
_ZN4Item4byIdEi = __main_start + 0x159088;
_ZN6Entity11animateHurtEv = __main_start + 0x1590a0;
_ZN6Entity12getHandSlotsEv = __main_start + 0x1590a4;
_ZN6Entity13getArmorSlotsEv = __main_start + 0x1590ac;
_ZN6Entity11getAllSlotsEv = __main_start + 0x1590b4;
_ZN6Entity11setItemSlotEPK13EquipmentSlot12not_null_ptrI12ItemInstanceE = __main_start + 0x159234;
_ZN6Entity8isOnFireEv = __main_start + 0x159238;
_ZN6Entity11isPassengerEv = __main_start + 0x159294;
_ZN6Entity9isVehicleEv = __main_start + 0x1592a4;
_ZN6Entity10isSneakingEv = __main_start + 0x1592cc;
_ZN6Entity11setSneakingEb = __main_start + 0x1592d4;
_ZN6Entity6isIdleEv = __main_start + 0x1592e0;
_ZN6Entity9setIsIdleEb = __main_start + 0x1592e8;
_ZN6Entity11isSprintingEv = __main_start + 0x1592f4;
_ZN6Entity12setSprintingEb = __main_start + 0x1592fc;
_ZN6Entity9isGlowingEv = __main_start + 0x159308;
_ZN6Entity10setGlowingEb = __main_start + 0x159334;
_ZN6Entity11isInvisibleEv = __main_start + 0x159354;
_ZN6Entity13isInvisibleToESt10shared_ptrI6PlayerE = __main_start + 0x15935c;
_ZN6Entity7getTeamEv = __main_start + 0x1593a8;
_ZN6Entity10isAlliedToESt10shared_ptrIS_E = __main_start + 0x159450;
_ZN6Entity10isAlliedToEP4Team = __main_start + 0x159494;
_ZN6Entity12setInvisibleEb = __main_start + 0x1594ec;
_ZN6Entity18ShouldRenderShadowEv = __main_start + 0x1594f8;
_ZN6Entity6canFlyEv = __main_start + 0x159500;
_ZN6Entity6getPosEf = __main_start + 0x159508;
_ZN6Entity12getAttachPosEN6Entity15EEntityLocationEf = __main_start + 0x159558;
_ZN6Entity10isWeakenedEv = __main_start + 0x159628;
_ZN6Entity11setWeakenedEb = __main_start + 0x159630;
_ZN6Entity10thunderHitEPK13LightningBolt = __main_start + 0x15963c;
_ZN6Entity6killedESt10shared_ptrI12LivingEntityE = __main_start + 0x1596a0;
_ZN6Entity12checkInBlockEddd = __main_start + 0x1596a4;
_ZN6Entity14makeStuckInWebEv = __main_start + 0x1599f0;
_ZN6Entity7getNameEv = __main_start + 0x159a10;
_ZN6Entity16isInvulnerableToEP12DamageSource = __main_start + 0x159a80;
_ZN6Entity14isInvulnerableEv = __main_start + 0x159ae8;
_ZN6Entity15setInvulnerableEb = __main_start + 0x159af0;
_ZN6Entity17spawnEatParticlesERK12ItemInstancei = __main_start + 0x159afc;
_ZN6Entity14getSubEntitiesEv = __main_start + 0x159b00;
_ZN6Entity2isESt10shared_ptrIS_E = __main_start + 0x159b08;
_ZN6Entity11getYHeadRotEv = __main_start + 0x159b58;
_ZN6Entity11setYHeadRotEf = __main_start + 0x159b60;
_ZN6Entity11setYBodyRotEf = __main_start + 0x159b64;
_ZN6Entity12isAttackableEv = __main_start + 0x159b68;
_ZN6Entity21skipAttackInteractionESt10shared_ptrIS_E = __main_start + 0x159b70;
_ZN6Entity12copyPositionESt10shared_ptrIS_E = __main_start + 0x159b78;
_ZN6Entity15changeDimensionEi = __main_start + 0x159c8c;
_ZN6Entity19canChangeDimensionsEv = __main_start + 0x15a308;
_ZN6Entity27getBlockExplosionResistanceEP9ExplosionP5LevelRK8BlockPos = __main_start + 0x15a310;
_ZN6Entity18shouldBlockExplodeEP9ExplosionP5LevelRK8BlockPosf = __main_start + 0x15a390;
_ZN6Entity18getMaxFallDistanceEv = __main_start + 0x15a398;
_ZN6Entity22getPortalEntranceBlockEv = __main_start + 0x15a3a0;
_ZN6Entity23getPortalEntranceOffsetEv = __main_start + 0x15a3b4;
_ZN6Entity25getPortalEntranceForwardsEv = __main_start + 0x15a3bc;
_ZN6Entity23isIgnoringBlockTriggersEv = __main_start + 0x15a3c4;
_ZN6Entity20displayFireAnimationEv = __main_start + 0x15a3cc;
_ZN6Entity7setUUIDERKNSt7__cxx1112basic_stringIwSt11char_traitsIwESaIwEEE = __main_start + 0x15a3d8;
_ZN6Entity7getUUIDEv = __main_start + 0x15a408;
_ZN6Entity13getStringUUIDEv = __main_start + 0x15a414;
_ZN6Entity15isPushedByWaterEv = __main_start + 0x15a420;
_ZN6Entity12getViewScaleEv = __main_start + 0x15a428;
_ZN6Entity12setViewScaleEd = __main_start + 0x15a438;
_ZN6Entity14getNetworkNameEv = __main_start + 0x15a448;
_ZN6Entity14getDisplayNameEv = __main_start + 0x15a454;
_ZN6Entity13setCustomNameERKNSt7__cxx1112basic_stringIwSt11char_traitsIwESaIwEEES7_b = __main_start + 0x15a460;
_ZN6Entity13getCustomNameEv = __main_start + 0x15a590;
_ZN6Entity13hasCustomNameEv = __main_start + 0x15a5e0;
_ZN6Entity20setCustomNameVisibleEb = __main_start + 0x15a6fc;
_ZN6Entity19isCustomNameVisibleEv = __main_start + 0x15a71c;
_ZN6Entity10teleportToEddd = __main_start + 0x15a730;
_ZN6Entity14shouldShowNameEv = __main_start + 0x15a7a8;
_ZN6Entity19onSyncedDataUpdatedEPK23EntityDataAccessor_Base = __main_start + 0x15a7b4;
_ZN6Entity12getDirectionEv = __main_start + 0x15a7b8;
_ZN6Entity18getMotionDirectionEv = __main_start + 0x15a7f4;
_ZN6Entity17broadcastToPlayerESt10shared_ptrI12ServerPlayerE = __main_start + 0x15a800;
_ZN6Entity14getBoundingBoxEv = __main_start + 0x15a808;
_ZN6Entity24getBoundingBoxForCullingEv = __main_start + 0x15a810;
_ZN6Entity14setBoundingBoxEP4AABB = __main_start + 0x15a81c;
_ZN6Entity12getEyeHeightEv = __main_start + 0x15a824;
_ZN6Entity20isOutsideWorldBorderEv = __main_start + 0x15a838;
_ZN6Entity21setOutsideWorldBorderEb = __main_start + 0x15a840;
_ZN6Entity7setSlotEiRK12not_null_ptrI12ItemInstanceE = __main_start + 0x15a84c;
vtbl_71010534A0_func_2 = __main_start + 0x15a854;
vtbl_71010534A0_func_3 = __main_start + 0x15a858;
vtbl_71010534A0_func_5 = __main_start + 0x15a860;
vtbl_71010534A0_func_6 = __main_start + 0x15a898;
vtbl_71010534A0_func_7 = __main_start + 0x15a8a4;
vtbl_71010534A0_func_8 = __main_start + 0x15a8ac;
vtbl_71010534A0_func_9 = __main_start + 0x15a8bc;
vtbl_71010534A0_func_10 = __main_start + 0x15a8c4;
vtbl_71010534A0_func_11 = __main_start + 0x15a97c;
_ZN6Entity10interactAtERKSt10shared_ptrI6PlayerEP4Vec3N15InteractionHand16EInteractionHandE = __main_start + 0x15a98c;
_ZN6Entity15ignoreExplosionEv = __main_start + 0x15a994;
_ZN6Entity22doEnchantDamageEffectsESt10shared_ptrI12LivingEntityESt10shared_ptrI6EntityE = __main_start + 0x15a99c;
_ZN6Entity17startSeenByPlayerESt10shared_ptrI12ServerPlayerE = __main_start + 0x15aa54;
_ZN6Entity16stopSeenByPlayerESt10shared_ptrI12ServerPlayerE = __main_start + 0x15aa58;
_ZN6Entity6rotateEP8Rotation = __main_start + 0x15aa5c;
_ZN6Entity6mirrorEP6Mirror = __main_start + 0x15aad4;
_ZN6Entity23getControllingPassengerEv = __main_start + 0x15ab30;
_ZN6Entity15onlyOpCanSetNbtEv = __main_start + 0x15ab78;
_ZN6Entity27checkAndResetTeleportedFlagEv = __main_start + 0x15ab80;
_ZN6Entity13getPassengersEv = __main_start + 0x15ab90;
_ZN6Entity12hasPassengerESt10shared_ptrIS_E = __main_start + 0x15ab98;
_ZN6Entity12hasPassengerE11eINSTANCEOF = __main_start + 0x15ac28;
_ZN6Entity22fillIndirectPassengersE11eINSTANCEOFPSt3setISt10shared_ptrIS_ESt4lessIS3_ESaIS3_EE = __main_start + 0x15acb8;
_ZN6Entity21getIndirectPassengersE11eINSTANCEOF = __main_start + 0x15ad64;
_ZN6Entity21getIndirectPassengersEv = __main_start + 0x15adbc;
_ZN6Entity20hasIndirectPassengerESt10shared_ptrIS_E = __main_start + 0x15ae10;
_ZN6Entity20hasIndirectPassengerE11eINSTANCEOF = __main_start + 0x15aee8;
_ZN6Entity27isControlledByLocalInstanceEv = __main_start + 0x15af78;
_ZN6Entity10getVehicleEv = __main_start + 0x15b00c;
_ZN6Entity21getPistonPushReactionEv = __main_start + 0x15b028;
_ZN6Entity14getRootVehicleEv = __main_start + 0x15b030;
_ZN6Entity24isPassengerOfSameVehicleESt10shared_ptrIS_E = __main_start + 0x15b0bc;
_ZN6Entity14getSoundSourceEv = __main_start + 0x15b128;
_ZN6Entity10isCreativeEv = __main_start + 0x15b130;
_ZN6Entity18isDespawnProtectedEv = __main_start + 0x15b144;
_ZN6Entity19setDespawnProtectedEv = __main_start + 0x15b14c;
_ZN6Entity11couldWanderEv = __main_start + 0x15b150;
_ZN6Entity18canCreateParticlesEv = __main_start + 0x15b158;
_ZN6Entity15stopCurrentLerpEv = __main_start + 0x15b160;
_ZN6Entity18getFireImmuneTicksEv = __main_start + 0x15b1e0;
_ZN8EntityIO9bootStrapEv = __main_start + 0x15ea28;
_ZN13EquipmentSlot10staticCtorEv = __main_start + 0x164340;
_ZN16EvocationIllager14addDataWalkersEP14DataFixerUpper = __main_start + 0x1656ec;
_ZN9GameRules10getBooleanEi = __main_start + 0x166888;
_ZN6Random6randomEv = __main_start + 0x1672a0;
_ZN12ItemInstance9isDamagedEv = __main_start + 0x167cf8;
_ZN17ExtremeHillsBiomeC1EN5Biome9EBiomeIDsEN17ExtremeHillsBiome5ETypeEPN5Biome15BiomePropertiesE = __main_start + 0x169910;
_ZN16EyeOfEnderSignal8signalToERK8BlockPos = __main_start + 0x169fac;
_ZN10AnvilBlock7onPlaceEP5LevelRK8BlockPosPK10BlockState = __main_start + 0x16a894;
_ZN10AnvilBlock15neighborChangedEPK10BlockStateP5LevelRK8BlockPosP5BlockRK8BlockPos = __main_start + 0x16a8f0;
_ZN10AnvilBlock4tickEP5LevelRK8BlockPosPK10BlockStateP6Random = __main_start + 0x16a950;
_ZN10AnvilBlock12getTickDelayEP5Level = __main_start + 0x16ac94;
_ZN10AnvilBlock11animateTickEPK10BlockStateP5LevelRK8BlockPosP6Random = __main_start + 0x16aca4;
_ZN18FallingBlockEntity10staticCtorEv = __main_start + 0x16ade8;
_ZNK9HitResult11getBlockPosEv = __main_start + 0x16b984;
_ZN18FallingBlockEntity14addDataWalkersEP14DataFixerUpper = __main_start + 0x16bc60;
_ZN9FarmBlock8getShapeEPK10BlockStateP11LevelSourceRK8BlockPos = __main_start + 0x16c4f4;
_ZNK9FarmBlock13isSolidRenderEPK10BlockState = __main_start + 0x16c504;
_ZN9FarmBlock12isCubeShapedEPK10BlockState = __main_start + 0x16c50c;
_ZN9FarmBlock4tickEP5LevelRK8BlockPosPK10BlockStateP6Random = __main_start + 0x16c514;
_ZN9FarmBlock6fallOnEP5LevelRK8BlockPosSt10shared_ptrI6EntityEf = __main_start + 0x16c6f8;
_ZN9FarmBlock20getCloneItemInstanceEP5LevelRK8BlockPosPK10BlockState = __main_start + 0x16c7f4;
_ZN4Item7byBlockEP5Block = __main_start + 0x16c878;
_ZN9FarmBlock15neighborChangedEPK10BlockStateP5LevelRK8BlockPosP5BlockRK8BlockPos = __main_start + 0x16ca8c;
_ZN9FarmBlock7onPlaceEP5LevelRK8BlockPosPK10BlockState = __main_start + 0x16cb10;
_ZN9FarmBlock16shouldRenderFaceEPK10BlockStateP11LevelSourceRK8BlockPosPK9Direction = __main_start + 0x16cb90;
_ZN9FarmBlock11getResourceEPK10BlockStateP6Randomi = __main_start + 0x16cca4;
_ZN9FarmBlock13getBlockStateEi = __main_start + 0x16cd1c;
_ZN9FarmBlock29convertBlockStateToLegacyDataEPK10BlockState = __main_start + 0x16cd4c;
_ZN9FarmBlock26createBlockStateDefinitionEv = __main_start + 0x16cd64;
_ZN9FarmBlock17getBlockFaceShapeEP11LevelSourcePK10BlockStateRK8BlockPosPK9Direction = __main_start + 0x16cdd4;
_ZN9FarmBlock10getTextureEPK9DirectionPK10BlockState = __main_start + 0x16cdf0;
_ZN9FarmBlock13registerIconsEP12IconRegister = __main_start + 0x16ce68;
_ZN7FeatureC2Eb = __main_start + 0x16cf28;
_ZN7Feature4initEv = __main_start + 0x16cf44;
_ZN7Feature8setBlockEP5LevelRK8BlockPosPK10BlockState = __main_start + 0x16cf48;
_ZN10FenceBlock17addCollisionAABBsEPK10BlockStateP5LevelRK8BlockPosPK4AABBPSt6vectorIP4AABBSt9allocatorIP4AABBEESt10shared_ptrI6EntityEb = __main_start + 0x16d068;
_ZN10FenceBlock8getShapeEPK10BlockStateP11LevelSourceRK8BlockPos = __main_start + 0x16d250;
_ZNK10FenceBlock13isSolidRenderEPK10BlockState = __main_start + 0x16d36c;
_ZN10FenceBlock12isCubeShapedEPK10BlockState = __main_start + 0x16d374;
_ZN10FenceBlock14isPathfindableEP11LevelSourceRK8BlockPos = __main_start + 0x16d37c;
_ZN10FenceBlock16shouldRenderFaceEPK10BlockStateP11LevelSourceRK8BlockPosPK9Direction = __main_start + 0x16d4f0;
_ZN10FenceBlock3useEP5LevelRK8BlockPosPK10BlockStateSt10shared_ptrI6PlayerEN15InteractionHand16EInteractionHandEPK9Directionfffb = __main_start + 0x16d4f8;
_ZN10FenceBlock29convertBlockStateToLegacyDataEPK10BlockState = __main_start + 0x16d590;
_ZN10FenceBlock31fillVirtualBlockStatePropertiesEPK10BlockStateP11LevelSourceRK8BlockPos = __main_start + 0x16d598;
_ZN10FenceBlock6rotateEPK10BlockStateP8Rotation = __main_start + 0x16d724;
_ZN10FenceBlock6mirrorEPK10BlockStateP6Mirror = __main_start + 0x16d894;
_ZN10FenceBlock26createBlockStateDefinitionEv = __main_start + 0x16d95c;
_ZN10FenceBlock17getBlockFaceShapeEP11LevelSourcePK10BlockStateRK8BlockPosPK9Direction = __main_start + 0x16da44;
_ZN10FenceBlock13registerIconsEP12IconRegister = __main_start + 0x16da70;
_ZN10FenceBlock14getRenderShapeEPK10BlockState = __main_start + 0x16daa8;
_ZN10FenceBlock18GetInteractTooltipERK22BlockTooltipDataHolder = __main_start + 0x16dab0;
_ZN14FenceGateBlock8getShapeEPK10BlockStateP11LevelSourceRK8BlockPos = __main_start + 0x16dc38;
_ZN14FenceGateBlock31fillVirtualBlockStatePropertiesEPK10BlockStateP11LevelSourceRK8BlockPos = __main_start + 0x16dcd0;
_ZN14FenceGateBlock6rotateEPK10BlockStateP8Rotation = __main_start + 0x16de7c;
_ZN14FenceGateBlock6mirrorEPK10BlockStateP6Mirror = __main_start + 0x16ded4;
_ZN14FenceGateBlock8mayPlaceEP5LevelRK8BlockPos = __main_start + 0x16df3c;
_ZN14FenceGateBlock11getClipAABBEPK10BlockStateP11LevelSourceRK8BlockPos = __main_start + 0x16dfd0;
_ZNK14FenceGateBlock13isSolidRenderEPK10BlockState = __main_start + 0x16e050;
_ZN14FenceGateBlock12isCubeShapedEPK10BlockState = __main_start + 0x16e058;
_ZN14FenceGateBlock14isPathfindableEP11LevelSourceRK8BlockPos = __main_start + 0x16e060;
_ZN14FenceGateBlock20getStateForPlacementEP5LevelRK8BlockPosPK9DirectionfffiSt10shared_ptrI12LivingEntityE = __main_start + 0x16e090;
_ZN14FenceGateBlock3useEP5LevelRK8BlockPosPK10BlockStateSt10shared_ptrI6PlayerEN15InteractionHand16EInteractionHandEPK9Directionfffb = __main_start + 0x16e13c;
_ZN14FenceGateBlock15neighborChangedEPK10BlockStateP5LevelRK8BlockPosP5BlockRK8BlockPos = __main_start + 0x16e2e8;
_ZN14FenceGateBlock16shouldRenderFaceEPK10BlockStateP11LevelSourceRK8BlockPosPK9Direction = __main_start + 0x16e3ec;
_ZN14FenceGateBlock13getBlockStateEi = __main_start + 0x16e3f4;
_ZN14FenceGateBlock29convertBlockStateToLegacyDataEPK10BlockState = __main_start + 0x16e468;
_ZN14FenceGateBlock18GetInteractTooltipERK22BlockTooltipDataHolder = __main_start + 0x16e4e0;
_ZN14FenceGateBlock26createBlockStateDefinitionEv = __main_start + 0x16e508;
_ZN14FenceGateBlock17getBlockFaceShapeEP11LevelSourcePK10BlockStateRK8BlockPosPK9Direction = __main_start + 0x16e5a4;
_ZN14FenceGateBlock13registerIconsEP12IconRegister = __main_start + 0x16e69c;
_ZN14FenceGateBlock14getRenderShapeEPK10BlockState = __main_start + 0x16e6d4;
_ZN4FileC1Ev = __main_start + 0x16e6dc;
._ZN4FileC1ERKS_RKNSt3__112basic_stringIwNS2_11char_traitsIwEENS2_9allocatorIwEEEE = __main_start + 0x16e6f0;
_ZNK4File7getPathEv = __main_start + 0x16e850;
_ZN4FileC1ERKNSt3__112basic_stringIwNS0_11char_traitsIwEENS0_9allocatorIwEEEE = __main_start + 0x16e860;
_ZN4File7_deleteEv = __main_start + 0x16e940;
_ZNK4File5mkdirEv = __main_start + 0x16e998;
_ZNK4File6existsEv = __main_start + 0x16e9e8;
_Z11isDirectoryRKNSt3__112basic_stringIwNS_11char_traitsIwEENS_9allocatorIwEEEE = __main_start + 0x16ea34;
_ZN4File8renameToE4File = __main_start + 0x16ea94;
_ZNK4File9listFilesEv = __main_start + 0x16eb60;
_ZN4File6lengthEv = __main_start + 0x16ec84;
_ZNK4File7getNameEv = __main_start + 0x16ed14;
_ZNK4File3extEv = __main_start + 0x16ed7c;
_ZN15FileInputStreamC1ERK4File = __main_start + 0x170718;
_ZN15FileInputStreamD2Ev = __main_start + 0x1707fc;
_ZN15FileInputStream4readE15arrayWithLengthIhE = __main_start + 0x1708dc;
_ZN15FileInputStream8filesizeEv = __main_start + 0x170a28;
_ZN16FileOutputStreamC1ERK4File = __main_start + 0x170a44;
_ZN16FileOutputStreamD2Ev = __main_start + 0x170ae4;
vtbl_7101057EB0_func_1 = __main_start + 0x170b24;
vtbl_7101057EB0_func_2 = __main_start + 0x170b48;
vtbl_7101057EB0_func_3 = __main_start + 0x170b7c;
vtbl_7101057EB0_func_4 = __main_start + 0x170ba4;
_ZN16FileOutputStream5closeEv = __main_start + 0x170bf4;
_ZN9FireBlock31fillVirtualBlockStatePropertiesEPK10BlockStateP11LevelSourceRK8BlockPos = __main_start + 0x172454;
_ZN9FireBlock10staticCtorEv = __main_start + 0x17279c;
_ZN9FireBlock11getClipAABBEPK10BlockStateP11LevelSourceRK8BlockPos = __main_start + 0x172c28;
_ZNK9FireBlock13isSolidRenderEPK10BlockState = __main_start + 0x172c38;
_ZN9FireBlock12isCubeShapedEPK10BlockState = __main_start + 0x172c40;
_ZN9FireBlock16getResourceCountEP6Random = __main_start + 0x172c48;
_ZN9FireBlock12getTickDelayEP5Level = __main_start + 0x172c50;
_ZN9FireBlock4tickEP5LevelRK8BlockPosPK10BlockStateP6Random = __main_start + 0x172c58;
_ZN9FireBlock16canInstantlyTickEv = __main_start + 0x17376c;
_ZN9FireBlock7mayPickEv = __main_start + 0x1737d4;
_ZN9FireBlock8mayPlaceEP5LevelRK8BlockPos = __main_start + 0x1737dc;
_ZN9FireBlock15neighborChangedEPK10BlockStateP5LevelRK8BlockPosP5BlockRK8BlockPos = __main_start + 0x173860;
_ZN9FireBlock7onPlaceEP5LevelRK8BlockPosPK10BlockState = __main_start + 0x1738f0;
_ZN9FireBlock11animateTickEPK10BlockStateP5LevelRK8BlockPosP6Random = __main_start + 0x173a3c;
_ZN9FireBlock11getMapColorEPK10BlockStateP11LevelSourceRK8BlockPos = __main_start + 0x174370;
_ZN9FireBlock14getRenderLayerEv = __main_start + 0x174380;
_ZN9FireBlock13getBlockStateEi = __main_start + 0x174388;
_ZN9FireBlock29convertBlockStateToLegacyDataEPK10BlockState = __main_start + 0x1743b8;
_ZN9FireBlock26createBlockStateDefinitionEv = __main_start + 0x1743d0;
_ZN9FireBlock17getBlockFaceShapeEP11LevelSourcePK10BlockStateRK8BlockPosPK9Direction = __main_start + 0x174488;
_ZN9FireBlock13registerIconsEP12IconRegister = __main_start + 0x174490;
_ZN9FireBlock14getRenderShapeEPK10BlockState = __main_start + 0x1744e8;
_ZN9FireBlock10getTextureEPK9DirectionPK10BlockState = __main_start + 0x1744fc;
_ZN12ItemInstance8getCountEv = __main_start + 0x176a18;
_ZN15FireworksRecipe22CreateNewThreadStorageEv = __main_start + 0x176cac;
_ZN12ItemInstance8setCountEi = __main_start + 0x177804;
_ZN21FireworksRocketEntity10staticCtorEv = __main_start + 0x177988;
_ZN21FireworksRocketEntity14addDataWalkersEP14DataFixerUpper = __main_start + 0x179210;
_ZN11FishingHook10staticCtorEv = __main_start + 0x179e38;
_ZNK13FlatLayerInfo8getStartEv = __main_start + 0x17e818;
_ZN17FlatGeneratorInfoC1EP15SuperflatConfig = __main_start + 0x17ed14;
_ZN17FlatGeneratorInfoD2Ev = __main_start + 0x17edf4;
FlatGeneratorInfo__getLayers = __main_start + 0x17f470;
_ZNK13FlatLayerInfo13getBlockStateEv = __main_start + 0x17f540;
_ZNK13FlatLayerInfo9getHeightEv = __main_start + 0x17f734;
_ZN17FlatGeneratorInfo10hasVillageEv = __main_start + 0x17f93c;
_ZN17FlatGeneratorInfo10getVillageEi = __main_start + 0x17f994;
_ZN17FlatGeneratorInfo8getCavesEv = __main_start + 0x17fa0c;
_ZN17FlatGeneratorInfo10getCanyonsEv = __main_start + 0x17fa9c;
_ZN17FlatGeneratorInfo12hasMineshaftEv = __main_start + 0x17fb1c;
_ZN17FlatGeneratorInfo12getMineshaftEv = __main_start + 0x17fb54;
_ZN17FlatGeneratorInfo13hasStrongholdEv = __main_start + 0x17fba4;
_ZN17FlatGeneratorInfo13getStrongholdEv = __main_start + 0x17fbfc;
_ZN17FlatGeneratorInfo16hasBiomeSpecificEv = __main_start + 0x17fc54;
_ZN17FlatGeneratorInfo16getBiomeSpecificEv = __main_start + 0x17fc8c;
_ZN17FlatGeneratorInfo16hasOceanMonumentEv = __main_start + 0x17fcdc;
_ZN17FlatGeneratorInfo16getOceanMonumentEv = __main_start + 0x17fd34;
_ZN17FlatGeneratorInfo18hasWoodlandMansionEv = __main_start + 0x17fd84;
_ZN17FlatGeneratorInfo14hasDecorationsEv = __main_start + 0x17fddc;
_ZN17FlatGeneratorInfo11hasDungeonsEv = __main_start + 0x17fdf4;
_ZN17FlatGeneratorInfo8getLakesEv = __main_start + 0x17fe24;
_ZN17FlatGeneratorInfo12getLavaLakesEv = __main_start + 0x17fe84;
_ZN15FlatLevelSourceC1EP5LevelxbP15SuperflatConfig = __main_start + 0x180c94;
_ZN15FlatLevelSourceD1Ev = __main_start + 0x18155c;
_ZN15FlatLevelSourceD0Ev = __main_start + 0x181630;
_ZN15FlatLevelSource11createChunkEii = __main_start + 0x1816b0;
_ZN15FlatLevelSource11postProcessEii = __main_start + 0x1818b8;
_ZN15FlatLevelSource22postProcessLoadedChunkEP10LevelChunkii = __main_start + 0x181cb4;
_ZN15FlatLevelSource9getMobsAtEP11MobCategoryRK8BlockPos = __main_start + 0x181cbc;
_ZN15FlatLevelSource21findNearestMapFeatureEP5LevelRKNSt3__112basic_stringIwNS2_11char_traitsIwEENS2_9allocatorIwEEEERK8BlockPosb = __main_start + 0x181d48;
_ZN15FlatLevelSource14isPosInFeatureEP5LevelRKNSt3__112basic_stringIwNS2_11char_traitsIwEENS2_9allocatorIwEEEERK8BlockPos = __main_start + 0x18215c;
_ZN15FlatLevelSource31recreateLogicStructuresForChunkEP10LevelChunkii = __main_start + 0x1821a4;
_ZN14FlexiblePacket4readEP15DataInputStream = __main_start + 0x1825cc;
_ZN14FlexiblePacket5writeEP16DataOutputStream = __main_start + 0x18284c;
_ZN14FlexiblePacket16getEstimatedSizeEv = __main_start + 0x1829ec;
_ZN8FloatTag5writeEP10DataOutput = __main_start + 0x18344c;
_ZN8FloatTag4loadEP9DataInputi = __main_start + 0x183460;
_ZN8FloatTag5getIdEv = __main_start + 0x183490;
_ZN8FloatTag8toStringEv = __main_start + 0x183498;
_ZN8FloatTag4copyEv = __main_start + 0x1834f4;
_ZN8FloatTag6equalsEP3Tag = __main_start + 0x183528;
_ZN8FloatTag9getAsLongEv = __main_start + 0x183568;
_ZN8FloatTag8getAsIntEv = __main_start + 0x183574;
_ZN8FloatTag10getAsShortEv = __main_start + 0x18357c;
_ZN8FloatTag9getAsByteEv = __main_start + 0x183594;
_ZN8FloatTag11getAsDoubleEv = __main_start + 0x1835ac;
_ZN8FloatTag10getAsFloatEv = __main_start + 0x1835b8;
_ZN17YellowFlowerBlock11DerivedInitEv = __main_start + 0x183650;
_ZN17YellowFlowerBlock8getShapeEPK10BlockStateP11LevelSourceRK8BlockPos = __main_start + 0x183784;
_ZN17YellowFlowerBlock25getSpawnResourcesAuxValueEPK10BlockState = __main_start + 0x1837d8;
_ZN17YellowFlowerBlock13getBlockStateEi = __main_start + 0x18383c;
_ZN17YellowFlowerBlock29convertBlockStateToLegacyDataEPK10BlockState = __main_start + 0x183c18;
_ZN17YellowFlowerBlock26createBlockStateDefinitionEv = __main_start + 0x183c4c;
_ZN11FlowerBlock6FlowerC1EPNS_14FlowerCategoryEiRKNSt3__112basic_stringIwNS3_11char_traitsIwEENS3_9allocatorIwEEEEiiSB_NS0_7EFlowerE = __main_start + 0x183cc8;
_ZN17YellowFlowerBlock13getOffsetTypeEv = __main_start + 0x183e48;
_ZN17YellowFlowerBlock10getTextureEPK9DirectionPK10BlockState = __main_start + 0x183e50;
_ZN17YellowFlowerBlock13registerIconsEP12IconRegister = __main_start + 0x183e6c;
_ZN17YellowFlowerBlock18GetInteractTooltipERK22BlockTooltipDataHolder = __main_start + 0x1842ec;
_ZN13FlowerFeatureC1EP11FlowerBlockPNS0_6FlowerE = __main_start + 0x18435c;
_ZN13FlowerFeature5placeEP5LevelR6RandomRK8BlockPos = __main_start + 0x18440c;
_ZN14FlowerPotBlock7getNameEv = __main_start + 0x1849e4;
_ZN14FlowerPotBlock8getShapeEPK10BlockStateP11LevelSourceRK8BlockPos = __main_start + 0x184a28;
_ZNK14FlowerPotBlock13isSolidRenderEPK10BlockState = __main_start + 0x184a38;
_ZN14FlowerPotBlock12isCubeShapedEPK10BlockState = __main_start + 0x184a40;
_ZN14FlowerPotBlock8getColorEP11LevelSourceRK8BlockPosi = __main_start + 0x184a48;
_ZN14FlowerPotBlock3useEP5LevelRK8BlockPosPK10BlockStateSt10shared_ptrI6PlayerEN15InteractionHand16EInteractionHandEPK9Directionfffb = __main_start + 0x184b48;
_ZN14FlowerPotBlock20getCloneItemInstanceEP5LevelRK8BlockPosPK10BlockState = __main_start + 0x184f58;
_ZN14FlowerPotBlock15neighborChangedEPK10BlockStateP5LevelRK8BlockPosP5BlockRK8BlockPos = __main_start + 0x184fd8;
_ZN14FlowerPotBlock8onRemoveEP5LevelRK8BlockPosPK10BlockState = __main_start + 0x1850cc;
_ZN14FlowerPotBlock17playerWillDestroyEP5LevelRK8BlockPosPK10BlockStateSt10shared_ptrI6PlayerE = __main_start + 0x1851ac;
_ZN14FlowerPotBlock11getResourceEPK10BlockStateP6Randomi = __main_start + 0x185260;
_ZN14FlowerPotBlock26createBlockStateDefinitionEv = __main_start + 0x185528;
_ZN14FlowerPotBlock29convertBlockStateToLegacyDataEPK10BlockState = __main_start + 0x1855a8;
_ZN14FlowerPotBlock31fillVirtualBlockStatePropertiesEPK10BlockStateP11LevelSourceRK8BlockPos = __main_start + 0x1855c0;
_ZN14FlowerPotBlock14getRenderLayerEv = __main_start + 0x18598c;
_ZN14FlowerPotBlock17getBlockFaceShapeEP11LevelSourcePK10BlockStateRK8BlockPosPK9Direction = __main_start + 0x185994;
_ZN14FlowerPotBlock14getRenderShapeEPK10BlockState = __main_start + 0x18599c;
_ZN14FlowerPotBlock18GetInteractTooltipERK22BlockTooltipDataHolder = __main_start + 0x1859a4;
_ZN14FlowerPotBlock8mayPlaceEP5LevelRK8BlockPos = __main_start + 0x185b64;
_ZN20FlowerPotBlockEntity14addDataWalkersEP14DataFixerUpper = __main_start + 0x185c54;
_ZN12FoliageColor4initE15arrayWithLengthIiE = __main_start + 0x188638;
_ZN12FoliageColor3getEdd = __main_start + 0x18865c;
_ZN12FoliageColor3setEddj = __main_start + 0x1886a8;
_ZN11ForestBiomeC1EN5Biome9EBiomeIDsEN11ForestBiome5ETypeEPN5Biome15BiomePropertiesE = __main_start + 0x18b91c;
_ZN10FrameTimerC1Ev = __main_start + 0x18c324;
_ZN15FrostedIceBlock29convertBlockStateToLegacyDataEPK10BlockState = __main_start + 0x18c4d8;
_ZN15FrostedIceBlock13getBlockStateEi = __main_start + 0x18c4f0;
_ZN15FrostedIceBlock4tickEP5LevelRK8BlockPosPK10BlockStateP6Random = __main_start + 0x18c544;
_ZN15FrostedIceBlock15shouldBlockTickEP5LevelRK8BlockPosPK10BlockState = __main_start + 0x18c890;
_ZN15FrostedIceBlock15neighborChangedEPK10BlockStateP5LevelRK8BlockPosP5BlockRK8BlockPos = __main_start + 0x18c898;
_ZN15FrostedIceBlock26createBlockStateDefinitionEv = __main_start + 0x18c9c4;
_ZN15FrostedIceBlock10getTextureEPK9DirectionPK10BlockState = __main_start + 0x18ca38;
_ZN15FrostedIceBlock13registerIconsEP12IconRegister = __main_start + 0x18caa8;
_ZN15FrostedIceBlock20getCloneItemInstanceEP5LevelRK8BlockPosPK10BlockState = __main_start + 0x18cbf8;
_ZN18FullStoneSlabBlock17getBlockFaceShapeEP11LevelSourcePK10BlockStateRK8BlockPosPK9Direction = __main_start + 0x18d104;
_ZN12FurnaceBlock11getResourceEPK10BlockStateP6Randomi = __main_start + 0x18d1cc;
_ZN12FurnaceBlock7onPlaceEP5LevelRK8BlockPosPK10BlockState = __main_start + 0x18d1dc;
_ZN12FurnaceBlock11animateTickEPK10BlockStateP5LevelRK8BlockPosP6Random = __main_start + 0x18d470;
_ZN12FurnaceBlock7TestUseEv = __main_start + 0x18d7e8;
_ZN12FurnaceBlock3useEP5LevelRK8BlockPosPK10BlockStateSt10shared_ptrI6PlayerEN15InteractionHand16EInteractionHandEPK9Directionfffb = __main_start + 0x18d7f0;
_ZN12FurnaceBlock11setPlacedByEP5LevelRK8BlockPosPK10BlockStateSt10shared_ptrI12LivingEntityE12not_null_ptrI12ItemInstanceE = __main_start + 0x18dcb8;
_ZN12FurnaceBlock8onRemoveEP5LevelRK8BlockPosPK10BlockState = __main_start + 0x18e2c0;
_ZN12FurnaceBlock21hasAnalogOutputSignalEPK10BlockState = __main_start + 0x18e414;
_ZN12FurnaceBlock21getAnalogOutputSignalEPK10BlockStateP5LevelRK8BlockPos = __main_start + 0x18e41c;
_ZN12FurnaceBlock20getCloneItemInstanceEP5LevelRK8BlockPosPK10BlockState = __main_start + 0x18e46c;
_ZN12FurnaceBlock14getRenderShapeEPK10BlockState = __main_start + 0x18e4b8;
_ZN12FurnaceBlock23getInventoryRenderStateEPK10BlockState = __main_start + 0x18e4c0;
_ZN12FurnaceBlock13getBlockStateEi = __main_start + 0x18e4ec;
_ZN12FurnaceBlock29convertBlockStateToLegacyDataEPK10BlockState = __main_start + 0x18e550;
_ZN12FurnaceBlock18GetInteractTooltipERK22BlockTooltipDataHolder = __main_start + 0x18e578;
_ZN12FurnaceBlock6rotateEPK10BlockStateP8Rotation = __main_start + 0x18e5a0;
_ZN12FurnaceBlock6mirrorEPK10BlockStateP6Mirror = __main_start + 0x18e5f8;
_ZN12FurnaceBlock26createBlockStateDefinitionEv = __main_start + 0x18e660;
_ZN12FurnaceBlock10getTextureEPK9DirectionPK10BlockState = __main_start + 0x18e6d4;
_ZN12FurnaceBlock13registerIconsEP12IconRegister = __main_start + 0x18e750;
_ZN18FurnaceBlockEntity14addDataWalkersEP14DataFixerUpper = __main_start + 0x18ef5c;
_ZN14FurnaceRecipes10staticCtorEv = __main_start + 0x191640;
_ZN14FuzzyZoomLayerC1ExNSt3__110shared_ptrI5LayerEE = __main_start + 0x193eb4;
_ZN14FuzzyZoomLayer12modeOrRandomEiiii = __main_start + 0x193f64;
_ZN17GameCommandPacketC1Ev = __main_start + 0x193fac;
_ZN17GameCommandPacketD2Ev = __main_start + 0x194050;
_ZN17GameCommandPacketD0Ev = __main_start + 0x194094;
_ZN17GameCommandPacket4readEP15DataInputStream = __main_start + 0x1940b8;
_ZN17GameCommandPacket5writeEP16DataOutputStream = __main_start + 0x194168;
_ZN17GameCommandPacket6handleEP14PacketListener = __main_start + 0x1941d4;
_ZN17GameCommandPacket16getEstimatedSizeEv = __main_start + 0x194224;
_ZN8GameType4byIdEi = __main_start + 0x1945b4;
_ZN14GameModePacketC1Ev = __main_start + 0x19468c;
_ZN14GameModePacket4readEP15DataInputStream = __main_start + 0x1946fc;
_ZN14GameModePacket5writeEP16DataOutputStream = __main_start + 0x19473c;
_ZN14GameModePacket6handleEP14PacketListener = __main_start + 0x194778;
_ZN14GameModePacket16getEstimatedSizeEv = __main_start + 0x1947d8;
_ZN8GameType10staticCtorEv = __main_start + 0x19642c;
_ZN8GameTypeC1EiRKNSt3__112basic_stringIwNS0_11char_traitsIwEENS0_9allocatorIwEEEES8_ii = __main_start + 0x1967e0;
_ZNK8GameType5getIdEv = __main_start + 0x196848;
_ZNK8GameType8getLabelEv = __main_start + 0x196850;
_ZNK8GameType14getSliderLabelEv = __main_start + 0x196858;
_ZNK8GameType21updatePlayerAbilitiesEP9Abilities = __main_start + 0x196860;
_ZNK8GameType24isBlockPlacingRestrictedEv = __main_start + 0x196910;
_ZNK8GameType10isCreativeEv = __main_start + 0x196954;
_ZNK8GameType10isSurvivalEv = __main_start + 0x196984;
_ZN8GameType4byIdEiPKS_ = __main_start + 0x1969b4;
_ZN13GetInfoPacket4readEP15DataInputStream = __main_start + 0x1983dc;
_ZN13GetInfoPacket5writeEP16DataOutputStream = __main_start + 0x1983e0;
_ZN13GetInfoPacket6handleEP14PacketListener = __main_start + 0x1983e4;
_ZN13GetInfoPacket16getEstimatedSizeEv = __main_start + 0x198444;
_ZN5Ghast10staticCtorEv = __main_start + 0x19844c;
_ZN5Ghast14addDataWalkersEP14DataFixerUpper = __main_start + 0x1989dc;
_ZN5Giant14addDataWalkersEP14DataFixerUpper = __main_start + 0x199684;
_ZN10GlassBlock16getResourceCountEP6Random = __main_start + 0x199d40;
_ZN10GlassBlock14getRenderLayerEv = __main_start + 0x199d48;
_ZN10GlassBlock12isCubeShapedEPK10BlockState = __main_start + 0x199d50;
_ZN10GlassBlock15isSilkTouchableEv = __main_start + 0x199d58;
_ZN21GlazedTerracottaBlock26createBlockStateDefinitionEv = __main_start + 0x199de8;
_ZN21GlazedTerracottaBlock6rotateEPK10BlockStateP8Rotation = __main_start + 0x199e5c;
_ZN21GlazedTerracottaBlock6mirrorEPK10BlockStateP6Mirror = __main_start + 0x199eb4;
_ZN21GlazedTerracottaBlock20getStateForPlacementEP5LevelRK8BlockPosPK9DirectionfffiSt10shared_ptrI12LivingEntityE = __main_start + 0x199f14;
_ZN21GlazedTerracottaBlock29convertBlockStateToLegacyDataEPK10BlockState = __main_start + 0x199f6c;
_ZN21GlazedTerracottaBlock13getBlockStateEi = __main_start + 0x199f94;
_ZN21GlazedTerracottaBlock21getPistonPushReactionEPK10BlockState = __main_start + 0x199fe0;
_ZN21GlazedTerracottaBlock14getRenderShapeEPK10BlockState = __main_start + 0x199fe8;
_ZN14Glowstoneblock28getResourceCountForLootBonusEiP6Random = __main_start + 0x19a570;
_ZN14Glowstoneblock16getResourceCountEP6Random = __main_start + 0x19a5c4;
_ZN14Glowstoneblock11getResourceEPK10BlockStateP6Randomi = __main_start + 0x19a5e8;
_ZN14Glowstoneblock11getMapColorEPK10BlockStateP11LevelSourceRK8BlockPos = __main_start + 0x19a5f8;
_ZNK10GrassBlock8getColorEv = __main_start + 0x19b1c0;
_ZN10GrassBlock8getColorEPK10BlockState = __main_start + 0x19b1dc;
_ZN10GrassBlock8getColorEP11LevelSourceRK8BlockPosi = __main_start + 0x19b1e8;
_ZN10GrassBlock8getColorEP11LevelSourceRK8BlockPosPK10BlockState = __main_start + 0x19b248;
_ZN10GrassBlock4tickEP5LevelRK8BlockPosPK10BlockStateP6Random = __main_start + 0x19b254;
_ZN10GrassBlock11getResourceEPK10BlockStateP6Randomi = __main_start + 0x19b584;
_ZN10GrassBlock14getRenderLayerEv = __main_start + 0x19b918;
_ZN10GrassBlock29convertBlockStateToLegacyDataEPK10BlockState = __main_start + 0x19b920;
_ZN10GrassBlock18GetInteractTooltipERK22BlockTooltipDataHolder = __main_start + 0x19b928;
_ZN10GrassBlock26createBlockStateDefinitionEv = __main_start + 0x19b9e8;
_ZN10GrassBlock15shouldBlockTickEP5LevelRK8BlockPosPK10BlockState = __main_start + 0x19ba5c;
_ZN10GrassBlock10getTextureEPK9DirectionPK10BlockState = __main_start + 0x19bb1c;
_ZN10GrassBlock10getTextureEP11LevelSourceRK8BlockPosPK9DirectionPK10BlockState = __main_start + 0x19bb6c;
_ZN10GrassBlock13registerIconsEP12IconRegister = __main_start + 0x19bc5c;
_ZN10GrassColor4initE15arrayWithLengthIiE = __main_start + 0x19bdc0;
_ZN10GrassColor3getEdd = __main_start + 0x19bde4;
_ZN10GrassColor3setEddj = __main_start + 0x19be4c;
_ZN14GrassPathBlock16shouldRenderFaceEPK10BlockStateP11LevelSourceRK8BlockPosPK9Direction = __main_start + 0x19bf0c;
_ZN14GrassPathBlock7onPlaceEP5LevelRK8BlockPosPK10BlockState = __main_start + 0x19c020;
_ZN14GrassPathBlock15isSilkTouchableEv = __main_start + 0x19c0e4;
_ZN14GrassPathBlock8getShapeEPK10BlockStateP11LevelSourceRK8BlockPos = __main_start + 0x19c0ec;
_ZNK14GrassPathBlock13isSolidRenderEPK10BlockState = __main_start + 0x19c0fc;
_ZN14GrassPathBlock12isCubeShapedEPK10BlockState = __main_start + 0x19c104;
_ZN14GrassPathBlock11getResourceEPK10BlockStateP6Randomi = __main_start + 0x19c10c;
_ZN14GrassPathBlock20getCloneItemInstanceEP5LevelRK8BlockPosPK10BlockState = __main_start + 0x19c184;
_ZN14GrassPathBlock15neighborChangedEPK10BlockStateP5LevelRK8BlockPosP5BlockRK8BlockPos = __main_start + 0x19c1c8;
_ZN14GrassPathBlock17getBlockFaceShapeEP11LevelSourcePK10BlockStateRK8BlockPosPK9Direction = __main_start + 0x19c1f4;
_ZN14GrassPathBlock18GetInteractTooltipERK22BlockTooltipDataHolder = __main_start + 0x19c210;
_ZN14GrassPathBlock10getTextureEPK9DirectionPK10BlockState = __main_start + 0x19c274;
_ZN14GrassPathBlock10getTextureEP11LevelSourceRK8BlockPosPK9DirectionPK10BlockState = __main_start + 0x19c2c4;
_ZN14GrassPathBlock13registerIconsEP12IconRegister = __main_start + 0x19c318;
_ZN11GravelBlock11getResourceEPK10BlockStateP6Randomi = __main_start + 0x19c40c;
_ZN11GravelBlock11getMapColorEPK10BlockStateP11LevelSourceRK8BlockPos = __main_start + 0x19c484;
_ZN23GrowMushroomIslandLayerC1ExNSt3__110shared_ptrI5LayerEE = __main_start + 0x19d508;
_ZN23GrowMushroomIslandLayer7getAreaEiiii = __main_start + 0x19d588;
_ZN8Guardian10staticCtorEv = __main_start + 0x19d700;
_ZN8Guardian14addDataWalkersEP14DataFixerUpper = __main_start + 0x19db84;
_ZN13HalfSlabBlock11DerivedInitEv = __main_start + 0x19f970;
_ZN13WoodSlabBlock15isSilkTouchableEv = __main_start + 0x19fa38;
_ZN13WoodSlabBlock8getShapeEPK10BlockStateP11LevelSourceRK8BlockPos = __main_start + 0x19fa40;
_ZN13WoodSlabBlock17getBlockFaceShapeEP11LevelSourcePK10BlockStateRK8BlockPosPK9Direction = __main_start + 0x19fb48;
_ZNK13WoodSlabBlock13isSolidRenderEPK10BlockState = __main_start + 0x19fc14;
_ZN13WoodSlabBlock20getStateForPlacementEP5LevelRK8BlockPosPK9DirectionfffiSt10shared_ptrI12LivingEntityE = __main_start + 0x19fc20;
_ZN13WoodSlabBlock16getResourceCountEP6Random = __main_start + 0x19fd50;
_ZN13WoodSlabBlock12isCubeShapedEPK10BlockState = __main_start + 0x19fd78;
_ZN13WoodSlabBlock16shouldRenderFaceEPK10BlockStateP11LevelSourceRK8BlockPosPK9Direction = __main_start + 0x19fd84;
_ZN13WoodSlabBlock14isPathfindableEP11LevelSourceRK8BlockPos = __main_start + 0x19ffb4;
_ZNK17StainedGlassBlock13isSolidRenderEPK10BlockState = __main_start + 0x1a019c;
_ZN17StainedGlassBlock16shouldRenderFaceEPK10BlockStateP11LevelSourceRK8BlockPosPK9Direction = __main_start + 0x1a01a4;
_ZN10SlimeBlock13registerIconsEP12IconRegister = __main_start + 0x1a0290;
_ZN17HardenedClayBlock11getMapColorEPK10BlockStateP11LevelSourceRK8BlockPos = __main_start + 0x1a1830;
_ZN8HayBlock6fallOnEP5LevelRK8BlockPosSt10shared_ptrI6EntityEf = __main_start + 0x1a1fb8;
_ZN8HayBlock13registerIconsEP12IconRegister = __main_start + 0x1a1fd8;
_ZN8HayBlock14getRenderShapeEPK10BlockState = __main_start + 0x1a20dc;
_ZN9HellBiomeC1EN5Biome9EBiomeIDsEPN5Biome15BiomePropertiesE = __main_start + 0x1a21c4;
_ZN15HellFireFeature5placeEP5LevelR6RandomRK8BlockPos = __main_start + 0x1a256c;
_ZN17HellSpringFeatureC1EP5Blockb = __main_start + 0x1a2904;
_ZN17HellSpringFeature5placeEP5LevelR6RandomRK8BlockPos = __main_start + 0x1a2950;
_ZN11HopperBlock8getShapeEPK10BlockStateP11LevelSourceRK8BlockPos = __main_start + 0x1a3714;
_ZN11HopperBlock17addCollisionAABBsEPK10BlockStateP5LevelRK8BlockPosPK4AABBPSt6vectorIP4AABBSt9allocatorIP4AABBEESt10shared_ptrI6EntityEb = __main_start + 0x1a3724;
_ZN11HopperBlock20getStateForPlacementEP5LevelRK8BlockPosPK9DirectionfffiSt10shared_ptrI12LivingEntityE = __main_start + 0x1a3814;
_ZN11HopperBlock11setPlacedByEP5LevelRK8BlockPosPK10BlockStateSt10shared_ptrI12LivingEntityE12not_null_ptrI12ItemInstanceE = __main_start + 0x1a3a8c;
_ZN11HopperBlock7onPlaceEP5LevelRK8BlockPosPK10BlockState = __main_start + 0x1a3c0c;
_ZN11HopperBlock3useEP5LevelRK8BlockPosPK10BlockStateSt10shared_ptrI6PlayerEN15InteractionHand16EInteractionHandEPK9Directionfffb = __main_start + 0x1a3cb8;
_ZN11HopperBlock15neighborChangedEPK10BlockStateP5LevelRK8BlockPosP5BlockRK8BlockPos = __main_start + 0x1a3dcc;
_ZN11HopperBlock8onRemoveEP5LevelRK8BlockPosPK10BlockState = __main_start + 0x1a3de0;
_ZN11HopperBlock14getRenderShapeEPK10BlockState = __main_start + 0x1a3f24;
_ZN11HopperBlock12isCubeShapedEPK10BlockState = __main_start + 0x1a3f2c;
_ZNK11HopperBlock13isSolidRenderEPK10BlockState = __main_start + 0x1a3f34;
_ZN11HopperBlock16shouldRenderFaceEPK10BlockStateP11LevelSourceRK8BlockPosPK9Direction = __main_start + 0x1a3f3c;
_ZN11HopperBlock21hasAnalogOutputSignalEPK10BlockState = __main_start + 0x1a3f58;
_ZN11HopperBlock21getAnalogOutputSignalEPK10BlockStateP5LevelRK8BlockPos = __main_start + 0x1a3f60;
_ZN11HopperBlock14getRenderLayerEv = __main_start + 0x1a3fb0;
_ZN11HopperBlock13getBlockStateEi = __main_start + 0x1a3fb8;
_ZN11HopperBlock29convertBlockStateToLegacyDataEPK10BlockState = __main_start + 0x1a402c;
_ZN11HopperBlock18GetInteractTooltipERK22BlockTooltipDataHolder = __main_start + 0x1a4084;
_ZN11HopperBlock6rotateEPK10BlockStateP8Rotation = __main_start + 0x1a40ac;
_ZN11HopperBlock6mirrorEPK10BlockStateP6Mirror = __main_start + 0x1a4104;
_ZN11HopperBlock26createBlockStateDefinitionEv = __main_start + 0x1a416c;
_ZN11HopperBlock17getBlockFaceShapeEP11LevelSourcePK10BlockStateRK8BlockPosPK9Direction = __main_start + 0x1a41ec;
_ZN11HopperBlock10getTextureEPK9DirectionPK10BlockState = __main_start + 0x1a4208;
_ZN11HopperBlock13registerIconsEP12IconRegister = __main_start + 0x1a422c;
_ZN11HopperBlock19getTileItemIconNameEv = __main_start + 0x1a43fc;
_ZN17HopperBlockEntity14addDataWalkersEP14DataFixerUpper = __main_start + 0x1a4578;
_ZN5Horse10staticCtorEv = __main_start + 0x1a6ca4;
_ZN5Horse14addDataWalkersEP14DataFixerUpper = __main_start + 0x1a6f24;
_ZNSt3__1plIwNS_11char_traitsIwEENS_9allocatorIwEEEENS_12basic_stringIT_T0_T1_EEPKS6_RKS9_ = __main_start + 0x1a76dc;
_ZN17HugeMushroomBlock16getResourceCountEP6Random = __main_start + 0x1aa924;
_ZN17HugeMushroomBlock11getMapColorEPK10BlockStateP11LevelSourceRK8BlockPos = __main_start + 0x1aa94c;
_ZN17HugeMushroomBlock11getResourceEPK10BlockStateP6Randomi = __main_start + 0x1aaa10;
_ZN17HugeMushroomBlock20getCloneItemInstanceEP5LevelRK8BlockPosPK10BlockState = __main_start + 0x1aaa18;
_ZN17HugeMushroomBlock24getSilkTouchItemInstanceEPK10BlockState = __main_start + 0x1aaa90;
_ZN17HugeMushroomBlock20getStateForPlacementEP5LevelRK8BlockPosPK9DirectionfffiSt10shared_ptrI12LivingEntityE = __main_start + 0x1aaafc;
_ZN17HugeMushroomBlock13getBlockStateEi = __main_start + 0x1aab0c;
_ZN17HugeMushroomBlock29convertBlockStateToLegacyDataEPK10BlockState = __main_start + 0x1aac94;
_ZN17HugeMushroomBlock6rotateEPK10BlockStateP8Rotation = __main_start + 0x1aacbc;
_ZN17HugeMushroomBlock6mirrorEPK10BlockStateP6Mirror = __main_start + 0x1aae34;
_ZN17HugeMushroomBlock26createBlockStateDefinitionEv = __main_start + 0x1aaf8c;
_ZN17HugeMushroomBlock10getTextureEPK9DirectionPK10BlockState = __main_start + 0x1ab06c;
_ZN17HugeMushroomBlock13registerIconsEP12IconRegister = __main_start + 0x1ab1bc;
_ZN4Husk14addDataWalkersEP14DataFixerUpper = __main_start + 0x1ac37c;
_ZN8IceBiomeC1EN5Biome9EBiomeIDsEbPN5Biome15BiomePropertiesE = __main_start + 0x1ac604;
_ZN15FrostedIceBlock14getRenderLayerEv = __main_start + 0x1acbb0;
_ZN15FrostedIceBlock13playerDestroyEP5LevelSt10shared_ptrI6PlayerERK8BlockPosPK10BlockStateSt10shared_ptrI11BlockEntityE12not_null_ptrI12ItemInstanceE = __main_start + 0x1acbb8;
_ZN15FrostedIceBlock16getResourceCountEP6Random = __main_start + 0x1acdac;
_ZN15FrostedIceBlock21getPistonPushReactionEPK10BlockState = __main_start + 0x1ace38;
_ZN13ImprovedNoise4initEP6Random = __main_start + 0x1ae9f8;
_ZN13ImprovedNoiseC1EP6Random = __main_start + 0x1aeb0c;
_ZN13ImprovedNoiseD2Ev = __main_start + 0x1aeb48;
_ZN13ImprovedNoiseD0Ev = __main_start + 0x1aeb84;
_ZN13ImprovedNoise8getValueEdd = __main_start + 0x1aef18;
_ZN13ImprovedNoise3addE15arrayWithLengthIdEdddiiidddd = __main_start + 0x1aef20;
_ZN11IntArrayTagD1Ev = __main_start + 0x1b0054;
_ZN11IntArrayTagD0Ev = __main_start + 0x1b0090;
_ZN11IntArrayTag5writeEP10DataOutput = __main_start + 0x1b00b4;
_ZN11IntArrayTag4loadEP9DataInputi = __main_start + 0x1b0138;
_ZN11IntArrayTag5getIdEv = __main_start + 0x1b01ec;
_ZN11IntArrayTag8toStringEv = __main_start + 0x1b01f4;
_ZN11IntArrayTag6equalsEP3Tag = __main_start + 0x1b024c;
_ZN11IntArrayTag4copyEv = __main_start + 0x1b02b4;
_ZN9IntBufferC1EjPi = __main_start + 0x1b0374;
_ZN9IntBufferD2Ev = __main_start + 0x1b03b4;
_ZN9IntBufferD0Ev = __main_start + 0x1b03f8;
_ZN9IntBuffer4flipEv = __main_start + 0x1b041c;
_ZN8IntCache22CreateNewThreadStorageEv = __main_start + 0x1b0434;
_ZN8IntCache5ResetEv = __main_start + 0x1b098c;
_ZN6IntTagC1Ev = __main_start + 0x1b11e4;
_ZN6IntTagC1Ei = __main_start + 0x1b1214;
_ZN6IntTag5writeEP10DataOutput = __main_start + 0x1b124c;
_ZN6IntTag4loadEP9DataInputi = __main_start + 0x1b1264;
_ZN6IntTag5getIdEv = __main_start + 0x1b1294;
_ZN6IntTag8toStringEv = __main_start + 0x1b129c;
_ZN6IntTag4copyEv = __main_start + 0x1b12f4;
_ZN6IntTag6equalsEP3Tag = __main_start + 0x1b1328;
_ZN6IntTag9getAsLongEv = __main_start + 0x1b1368;
_ZN6IntTag8getAsIntEv = __main_start + 0x1b1370;
_ZN6IntTag10getAsShortEv = __main_start + 0x1b1378;
_ZN6IntTag9getAsByteEv = __main_start + 0x1b1380;
_ZN6IntTag11getAsDoubleEv = __main_start + 0x1b1388;
_ZN6IntTag10getAsFloatEv = __main_start + 0x1b1398;
_ZN12ItemInstance11isEnchantedEv = __main_start + 0x1b1f20;
_ZN9Inventory9swapPaintEi = __main_start + 0x1b1ffc;
_ZN13InventoryMenu10staticCtorEv = __main_start + 0x1b4e1c;
_ZN11IslandLayerC1Ex = __main_start + 0x1b637c;
_ZN11IslandLayer7getAreaEiiii = __main_start + 0x1b63ac;
_ZN4Item10staticCtorEv = __main_start + 0x1b67e4;
_ZN4Item13registerBlockEP5Block = __main_start + 0x1c12b0;
_ZN4Item13registerBlockEP5BlockP4Item = __main_start + 0x1c12e8;
_ZN4Item22StoneBlockNameResolverE12not_null_ptrI12ItemInstanceE = __main_start + 0x1c1370;
_ZN4Item22StoneBlockDescResolverE12not_null_ptrI12ItemInstanceE = __main_start + 0x1c138c;
_ZN13ItemPotionFix10staticCtorEv = __main_start + 0x1c5298;
_ZN4Item13canBeDepletedEv = __main_start + 0x1c5464;
_ZN10ItemEntity10staticCtorEv = __main_start + 0x1c6538;
_ZN10ItemEntity14addDataWalkersEP14DataFixerUpper = __main_start + 0x1c7364;
_ZN9ItemFrame10staticCtorEv = __main_start + 0x1c7ec8;
_ZN9ItemFrame14addDataWalkersEP14DataFixerUpper = __main_start + 0x1c8a2c;
_ZN12ItemInstance5_initEP4Itemii = __main_start + 0x1c977c;
_ZN12ItemInstance20updateEmptyCacheFlagEv = __main_start + 0x1c9820;
_ZN12ItemInstanceC1EP4Itemii = __main_start + 0x1c997c;
_ZN12ItemInstanceD2Ev = __main_start + 0x1c9b8c;
_ZN12ItemInstance14addDataWalkersEP14DataFixerUpper = __main_start + 0x1c9be0;
_ZN12JukeboxBlock14addDataWalkersEP14DataFixerUpper = __main_start + 0x1cddd0;
_ZN12JukeboxBlock7TestUseEP5LevelRK8BlockPosPK10BlockStateSt10shared_ptrI6PlayerE = __main_start + 0x1ce33c;
_ZN12JukeboxBlock3useEP5LevelRK8BlockPosPK10BlockStateSt10shared_ptrI6PlayerEN15InteractionHand16EInteractionHandEPK9Directionfffb = __main_start + 0x1ce350;
_ZN12JukeboxBlock8onRemoveEP5LevelRK8BlockPosPK10BlockState = __main_start + 0x1ce794;
_ZN12JukeboxBlock14spawnResourcesEP5LevelRK8BlockPosPK10BlockStatefi = __main_start + 0x1ce7d8;
_ZN12JukeboxBlock21hasAnalogOutputSignalEPK10BlockState = __main_start + 0x1ce868;
_ZN12JukeboxBlock21getAnalogOutputSignalEPK10BlockStateP5LevelRK8BlockPos = __main_start + 0x1ce870;
_ZN12JukeboxBlock14getRenderShapeEPK10BlockState = __main_start + 0x1ce948;
_ZN12JukeboxBlock13getBlockStateEi = __main_start + 0x1ce950;
_ZN12JukeboxBlock29convertBlockStateToLegacyDataEPK10BlockState = __main_start + 0x1ce984;
_ZN12JukeboxBlock18GetInteractTooltipERK22BlockTooltipDataHolder = __main_start + 0x1ce9b0;
_ZN12JukeboxBlock26createBlockStateDefinitionEv = __main_start + 0x1cea58;
_ZN12JukeboxBlock10getTextureEPK9DirectionPK10BlockState = __main_start + 0x1ceacc;
_ZN12JukeboxBlock13registerIconsEP12IconRegister = __main_start + 0x1ceaf0;
_ZN11JumpControlC1Ev = __main_start + 0x1cebf4;
_ZN11JungleBiome10staticCtorEv = __main_start + 0x1cec40;
_ZN11JungleBiomeC1EN5Biome9EBiomeIDsEbPN5Biome15BiomePropertiesE = __main_start + 0x1ced10;
_ZN16KickPlayerPacketC1Ev = __main_start + 0x1cf184;
_ZN16KickPlayerPacket6handleEP14PacketListener = __main_start + 0x1cf1f8;
_ZN16KickPlayerPacket4readEP15DataInputStream = __main_start + 0x1cf258;
_ZN16KickPlayerPacket5writeEP16DataOutputStream = __main_start + 0x1cf288;
_ZN16KickPlayerPacket16getEstimatedSizeEv = __main_start + 0x1cf2a0;
_ZN13GetInfoPacketD2Ev = __main_start + 0x1cf4ec;
_ZN13GetInfoPacketD0Ev = __main_start + 0x1cf514;
_ZN13GetInfoPacket11getPacketIdEv = __main_start + 0x1cf538;
_ZN7FeatureD0Ev = __main_start + 0x1cffa0;
_ZN6EntityD2Ev = __main_start + 0x1cffcc;
_ZN12FallingBlockD0Ev = __main_start + 0x1d00bc;
_ZN9FarmBlockD0Ev = __main_start + 0x1d00ec;
_ZN10FenceBlockD2Ev = __main_start + 0x1d0110;
_ZN10FenceBlockD0Ev = __main_start + 0x1d0144;
_ZN14FenceGateBlockD2Ev = __main_start + 0x1d0168;
_ZN14FenceGateBlockD0Ev = __main_start + 0x1d019c;
vtbl_7101057EB0_func_6 = __main_start + 0x1d01c0;
_ZN9FireBlockD2Ev = __main_start + 0x1d026c;
_ZN9FireBlockD0Ev = __main_start + 0x1d02b0;
_ZN14FlexiblePacketD0Ev = __main_start + 0x1d0598;
_ZN8FloatTagD0Ev = __main_start + 0x1d0668;
_ZN11FlowerBlockD0Ev = __main_start + 0x1d06bc;
_ZN13FlowerFeatureD0Ev = __main_start + 0x1d06e0;
_ZN14FlowerPotBlockD0Ev = __main_start + 0x1d0704;
_ZN20HalfTransparentBlockD0Ev = __main_start + 0x1d0a88;
_ZN8IceBlockD0Ev = __main_start + 0x1d0aac;
_ZN17StainedGlassBlockD2Ev = __main_start + 0x1d0ad0;
_ZN15FrostedIceBlockD0Ev = __main_start + 0x1d0b04;
_ZN15FrostedIceBlock15isSilkTouchableEv = __main_start + 0x1d0b28;
_ZN13HalfSlabBlockD0Ev = __main_start + 0x1d0b54;
_ZN21FullNewStoneSlabBlockD0Ev = __main_start + 0x1d0b78;
_ZN18FullStoneSlabBlockD0Ev = __main_start + 0x1d0b9c;
_ZN17FullWoodSlabBlockD0Ev = __main_start + 0x1d0bc0;
_ZN12FurnaceBlockD0Ev = __main_start + 0x1d0c3c;
_ZN14FuzzyZoomLayerD0Ev = __main_start + 0x1d0ce8;
_ZN17GameCommandPacket11getPacketIdEv = __main_start + 0x1d0d0c;
_ZN14GameModePacketD2Ev = __main_start + 0x1d0d5c;
_ZN14GameModePacketD0Ev = __main_start + 0x1d0d84;
_ZN14GameModePacket11getPacketIdEv = __main_start + 0x1d0da8;
_ZN10GlassBlockD0Ev = __main_start + 0x1d1288;
_ZN21GlazedTerracottaBlockD0Ev = __main_start + 0x1d12ac;
_ZN14GlowstoneblockD0Ev = __main_start + 0x1d12d0;
_ZN10GrassBlockD0Ev = __main_start + 0x1d133c;
_ZN14GrassPathBlockD0Ev = __main_start + 0x1d1360;
_ZN11GravelBlockD0Ev = __main_start + 0x1d1384;
_ZN23GrowMushroomIslandLayerD0Ev = __main_start + 0x1d142c;
_ZN21HalfNewStoneSlabBlockD0Ev = __main_start + 0x1d1508;
_ZN18HalfStoneSlabBlockD0Ev = __main_start + 0x1d152c;
_ZN17HalfWoodSlabBlockD0Ev = __main_start + 0x1d1550;
_ZN17HardenedClayBlockD0Ev = __main_start + 0x1d15e8;
_ZN8HayBlockD0Ev = __main_start + 0x1d1670;
_ZN15HellFireFeatureD0Ev = __main_start + 0x1d1708;
_ZN17HellSpringFeatureD0Ev = __main_start + 0x1d1750;
_ZN11HopperBlockD0Ev = __main_start + 0x1d1798;
_ZN17HugeMushroomBlockD0Ev = __main_start + 0x1d1978;
_ZN6IntTagD0Ev = __main_start + 0x1d1cd4;
_ZN11IslandLayerD0Ev = __main_start + 0x1d1d84;
_ZN12JukeboxBlockD0Ev = __main_start + 0x1d1f18;
_ZN16KickPlayerPacketD2Ev = __main_start + 0x1d1f78;
_ZN16KickPlayerPacketD0Ev = __main_start + 0x1d1fa0;
_ZN16KickPlayerPacket11getPacketIdEv = __main_start + 0x1d1fc4;
_ZN26HorizontalDirectionalBlockD0Ev = __main_start + 0x1d21c4;
_ZN11LadderBlock8getShapeEPK10BlockStateP11LevelSourceRK8BlockPos = __main_start + 0x1f0f90;
_ZNK11LadderBlock13isSolidRenderEPK10BlockState = __main_start + 0x1f0fe4;
_ZN11LadderBlock12isCubeShapedEPK10BlockState = __main_start + 0x1f0fec;
_ZN11LadderBlock8mayPlaceEP5LevelRK8BlockPosPK9Direction = __main_start + 0x1f0ff4;
_ZN11LadderBlock20getStateForPlacementEP5LevelRK8BlockPosPK9DirectionfffiSt10shared_ptrI12LivingEntityE = __main_start + 0x1f1170;
_ZN11LadderBlock15neighborChangedEPK10BlockStateP5LevelRK8BlockPosP5BlockRK8BlockPos = __main_start + 0x1f12a0;
_ZN11LadderBlock14getRenderLayerEv = __main_start + 0x1f1384;
_ZN11LadderBlock13getBlockStateEi = __main_start + 0x1f138c;
_ZN11LadderBlock29convertBlockStateToLegacyDataEPK10BlockState = __main_start + 0x1f13f0;
_ZN11LadderBlock6rotateEPK10BlockStateP8Rotation = __main_start + 0x1f1418;
_ZN11LadderBlock6mirrorEPK10BlockStateP6Mirror = __main_start + 0x1f1470;
_ZN11LadderBlock26createBlockStateDefinitionEv = __main_start + 0x1f155c;
_ZN11LadderBlock17getBlockFaceShapeEP11LevelSourcePK10BlockStateRK8BlockPosPK9Direction = __main_start + 0x1f15d0;
_ZN11LadderBlock14getRenderShapeEPK10BlockState = __main_start + 0x1f15d8;
_ZN11LakeFeatureC1EP5Block = __main_start + 0x1f15e0;
_ZN11LakeFeature5placeEP5LevelR6RandomRK8BlockPos = __main_start + 0x1f161c;
_ZN8Language11getInstanceEv = __main_start + 0x1f24f8;
_ZN8Language10getElementERKNSt3__112basic_stringIwNS0_11char_traitsIwEENS0_9allocatorIwEEEEz = __main_start + 0x1f2508;
_ZN16LargeCaveFeature7addRoomExiiP11ChunkPrimerddd = __main_start + 0x1f256c;
_ZN16LargeCaveFeature9addTunnelExiiP11ChunkPrimerdddfffiid = __main_start + 0x1f2610;
_ZN3Mth3sinEf = __main_start + 0x1f3028;
_ZN3Mth3cosEf = __main_start + 0x1f307c;
_ZN3Mth5floorEd = __main_start + 0x1f30dc;
_ZN16LargeCaveFeature10addFeatureEP5LeveliiiiP11ChunkPrimer = __main_start + 0x1f31a8;
_ZN12LargeFeatureC1Ev = __main_start + 0x1f3438;
_ZN12LargeFeatureD0Ev = __main_start + 0x1f349c;
_ZN12LargeFeature5applyEP5LeveliiP11ChunkPrimer = __main_start + 0x1f34a0;
_ZN5Level7getSeedEv = __main_start + 0x1f3624;
_ZN5Level12getGameRulesEv = __main_start + 0x1f38b4;
_ZN13LargeFireball14addDataWalkersEP14DataFixerUpper = __main_start + 0x1f38c4;
_ZN5Layer16getDefaultLayersExP9LevelTypeP15SuperflatConfigP9LevelDataPN11BiomeSource21LayerOverrideSettingsE = __main_start + 0x1f4638;
_ZN15arrayWithLengthINSt3__110shared_ptrI5LayerEEEC1Ejb = __main_start + 0x1f605c;
_ZN5Layer12modeOrRandomEiiii = __main_start + 0x1f6300;
_ZN5LayerC1Ex = __main_start + 0x1f63ec;
_ZN5Layer4initEx = __main_start + 0x1f6488;
_ZN5Layer10initRandomExx = __main_start + 0x1f6508;
_ZN9LeafBlockD0Ev = __main_start + 0x1f6c38;
_ZN9LeafBlock11DerivedInitEv = __main_start + 0x1f6c5c;
_ZNK9LeafBlock8getColorEv = __main_start + 0x1f6cdc;
_ZN9LeafBlock8getColorEPK10BlockState = __main_start + 0x1f6ce8;
_ZN9LeafBlock8getColorEP11LevelSourceRK8BlockPosi = __main_start + 0x1f6cec;
_ZN9LeafBlock8getColorEP11LevelSourceRK8BlockPosPK10BlockState = __main_start + 0x1f6d4c;
_ZN9LeafBlock8onRemoveEP5LevelRK8BlockPosPK10BlockState = __main_start + 0x1f6d58;
_ZN9LeafBlock4tickEP5LevelRK8BlockPosPK10BlockStateP6Random = __main_start + 0x1f6fe0;
_ZN9LeafBlock11animateTickEPK10BlockStateP5LevelRK8BlockPosP6Random = __main_start + 0x1f73bc;
_ZN5Level11addParticleEPK12ParticleTypedddddd15arrayWithLengthIiE = __main_start + 0x1f75b0;
_ZN9LeafBlock16getResourceCountEP6Random = __main_start + 0x1f7658;
_ZN9LeafBlock11getResourceEPK10BlockStateP6Randomi = __main_start + 0x1f7680;
_ZN9LeafBlock14spawnResourcesEP5LevelRK8BlockPosPK10BlockStatefi = __main_start + 0x1f7690;
_ZN9LeafBlock13isSolidRenderEPK10BlockState = __main_start + 0x1f77e4;
_ZN9LeafBlock8setFancyEb = __main_start + 0x1f77f4;
_ZN9LeafBlock14getRenderLayerEv = __main_start + 0x1f7834;
_ZN9LeafBlock14isViewBlockingEPK10BlockState = __main_start + 0x1f783c;
_ZN9LeafBlock16shouldRenderFaceEPK10BlockStateP11LevelSourceRK8BlockPosPK9Direction = __main_start + 0x1f7844;
_ZN9LeafBlock15shouldBlockTickEP5LevelRK8BlockPosPK10BlockState = __main_start + 0x1f78f0;
_ZN9LeafBlock8isLeavesEP5Block = __main_start + 0x1f7944;
_ZN9LeafBlock16getDescriptionIdEi = __main_start + 0x1f7974;
_ZN9LeafBlock10getTextureEPK9DirectionPK10BlockState = __main_start + 0x1f79d4;
_ZN9LeafBlock13registerIconsEP12IconRegister = __main_start + 0x1f7a28;
_ZN5Level13getDifficultyEv = __main_start + 0x1f7e58;
_ZN5Level22clampWithinLevelBoundsERdRdd = __main_start + 0x1f86f0;
_ZN5Level12getLevelDataEv = __main_start + 0x1f8824;
_ZN3Mth5clampEddd = __main_start + 0x1f882c;
_ZN5Level19isWithinLevelBoundsEii = __main_start + 0x1f8840;
_ZN5Level19enableLightingCacheEv = __main_start + 0x1f8984;
_ZN5Level14setBlocksDirtyERK8BlockPosRK8BlockPos = __main_start + 0x1f8f7c;
_ZN5Level12setInstaTickEb = __main_start + 0x1f9088;
_ZN5Level4initEv = __main_start + 0x1f90b0;
_ZN5LevelC1ESt10shared_ptrI12LevelStorageEP9LevelDataP9Dimensionb = __main_start + 0x1f9204;
_ZN11LevelSourceC1Ev = __main_start + 0x1f9358;
_ZN5LevelD2Ev = __main_start + 0x1f936c;
_ZN5LevelD0Ev = __main_start + 0x1f9578;
_ZN5Level13postConstructEv = __main_start + 0x1f959c;
_ZN5Level8getBiomeERK8BlockPos = __main_start + 0x1f95a0;
_ZN5Level10hasChunkAtERK8BlockPos = __main_start + 0x1f9624;
_ZN5Level10getChunkAtERK8BlockPos = __main_start + 0x1f962c;
_ZN5Level14getBiomeSourceEv = __main_start + 0x1f9674;
_ZN5Level15initializeLevelEP13LevelSettings = __main_start + 0x1f967c;
_ZN5Level9getServerEv = __main_start + 0x1f9690;
_ZN5Level13validateSpawnEv = __main_start + 0x1f9698;
_ZN5Level11setSpawnPosERK8BlockPos = __main_start + 0x1f96dc;
_ZN5Level16getTopBlockStateERK8BlockPos = __main_start + 0x1f96ec;
_ZN5Level11getSeaLevelEv = __main_start + 0x1f97e4;
_ZN5Level15isInWorldBoundsERK8BlockPos = __main_start + 0x1f97ec;
_ZN5Level15isInWorldBoundsEiii = __main_start + 0x1f980c;
_ZN5Level20isOutsideBuildHeightERK8BlockPos = __main_start + 0x1f9818;
_ZN5Level12isEmptyBlockERK8BlockPos = __main_start + 0x1f9858;
_ZN5Level8getChunkEii = __main_start + 0x1f9be0;
_ZN5Level18isChunkGeneratedAtEii = __main_start + 0x1f9c14;
_ZN5Level8setBlockERK8BlockPosPK10BlockStateib = __main_start + 0x1f9c7c;
_ZN5Level10checkLightERK8BlockPosbb = __main_start + 0x1f9ec4;
_ZN10LevelChunk7isReadyEv = __main_start + 0x1f9f74;
_ZN5Level12blockUpdatedERK8BlockPosP5Blockb = __main_start + 0x1f9fa4;
_ZN5Level23updateObservingBlocksAtERK8BlockPosP5Block = __main_start + 0x1f9fac;
_ZN5Level7setDataERK8BlockPosiib = __main_start + 0x1fa0b8;
_ZN5Level7setDataEiiiiib = __main_start + 0x1fa148;
_ZN10LevelChunk10getBlockIdEiii = __main_start + 0x1fa52c;
_ZN5Level11removeBlockERK8BlockPos = __main_start + 0x1fa57c;
_ZN5Level12destroyBlockERK8BlockPosb = __main_start + 0x1fa5d8;
_ZN5Level10levelEventEiRK8BlockPosi = __main_start + 0x1fa6dc;
_ZN5Level17setBlockAndUpdateERK8BlockPosPK10BlockState = __main_start + 0x1fa720;
_ZN5Level16sendBlockUpdatedERK8BlockPosPK10BlockStatePK10BlockStateib = __main_start + 0x1fa734;
_ZN5Level17updateNeighborsAtERK8BlockPosP5Blockb = __main_start + 0x1fa7b8;
_ZN5Level18lightColumnChangedEiiii = __main_start + 0x1fa8dc;
_ZN5Level10checkLightEN10LightLayer7varietyERK8BlockPosbb = __main_start + 0x1faa2c;
_ZN5Level23observedNeighborChangedERK8BlockPosP5BlockRK8BlockPos = __main_start + 0x1fb70c;
_ZN5Level15neighborChangedERK8BlockPosP5BlockRK8BlockPos = __main_start + 0x1fb7a8;
_ZN5Level33updateNeighborsAtExceptFromFacingERK8BlockPosP5BlockPK9Direction = __main_start + 0x1fb81c;
_ZN5Level19isBlockToBeTickedAtERK8BlockPosP5Block = __main_start + 0x1fba3c;
_ZN5Level9canSeeSkyERK8BlockPos = __main_start + 0x1fba44;
_ZN5Level23canSeeSkyFromBelowWaterERK8BlockPos = __main_start + 0x1fba70;
_ZN5Level16getRawBrightnessERK8BlockPos = __main_start + 0x1fbc38;
_ZN5Level16getRawBrightnessERK8BlockPosb = __main_start + 0x1fbc40;
_ZN5Level15getHeightmapPosERK8BlockPos = __main_start + 0x1fbe34;
_ZN5Level18getHeightmapHeightEii = __main_start + 0x1fbebc;
_ZN5Level12getHeightmapEii = __main_start + 0x1fbf68;
_ZN5Level22getBrightnessPropagateEN10LightLayer7varietyERK8BlockPos = __main_start + 0x1fc00c;
_ZN5Level13getBrightnessEN10LightLayer7varietyERK8BlockPos = __main_start + 0x1fc228;
_ZN5Level24getNeighbourBrightnessesEPiN10LightLayer7varietyEiii = __main_start + 0x1fc368;
_ZN5Level13getLightColorERK8BlockPosii = __main_start + 0x1fc5d0;
_ZN5Level13getBrightnessERK8BlockPosi = __main_start + 0x1fc62c;
_ZN5Level13getBrightnessERK8BlockPos = __main_start + 0x1fc664;
_ZN5Level13getBlockStateERK8BlockPos = __main_start + 0x1fc6a8;
_ZN5Level10getBlockIdEiii = __main_start + 0x1fc700;
_ZN5Level8getBlockERK8BlockPos = __main_start + 0x1fc768;
_ZN5Level12getBlockDataEiii = __main_start + 0x1fc7d4;
_ZN5Level9playSoundESt10shared_ptrI6PlayerERK8BlockPosPK10SoundEventN11SoundSource12ESoundSourceEfff = __main_start + 0x1fcff4;
_ZN5Level9playSoundESt10shared_ptrI6PlayerEdddPK10SoundEventN11SoundSource12ESoundSourceEfff = __main_start + 0x1fd0d8;
_ZN5Level14playLocalSoundEdddPK10SoundEventN11SoundSource12ESoundSourceEffbf = __main_start + 0x1fd1bc;
_ZN5Level15addGlobalEntityESt10shared_ptrI6EntityE = __main_start + 0x1fd468;
_ZN5Level9addEntityESt10shared_ptrI6EntityE = __main_start + 0x1fd4c4;
_ZN5Level11entityAddedESt10shared_ptrI6EntityE = __main_start + 0x1fd744;
_ZN5Level13entityRemovedESt10shared_ptrI6EntityE = __main_start + 0x1fd7c8;
_ZN5Level13playerRemovedESt10shared_ptrI6EntityE = __main_start + 0x1fd84c;
_ZN5Level12removeEntityESt10shared_ptrI6EntityE = __main_start + 0x1fd8d0;
_ZN5Level25internalGetCollisionAABBsESt10shared_ptrI6EntityEPK4AABBbPSt6vectorIP4AABBSt9allocatorIP4AABBEEbbb = __main_start + 0x1fde18;
_ZN3Mth5clampEfff = __main_start + 0x1febd4;
_ZN5Level12getSkyDarkenEf = __main_start + 0x1fec34;
_ZN5Level17getMoonBrightnessEv = __main_start + 0x1fef88;
_ZN5Level18getTopRainBlockPosEPK8BlockPos = __main_start + 0x1ff278;
_ZN5Level19getTopSolidBlockPosEPK8BlockPos = __main_start + 0x1ff5a4;
_ZN5Level15hasTickNextTickERK8BlockPosP5Block = __main_start + 0x1ff74c;
_ZN5Level17addToTickNextTickERK8BlockPosP5Blocki = __main_start + 0x1ff754;
_ZN5Level17addToTickNextTickERK8BlockPosP5Blockii = __main_start + 0x1ff758;
_ZN5Level17forceAddBlockTickERK8BlockPosP5Blockii = __main_start + 0x1ff75c;
_ZN5Level12tickEntitiesEv = __main_start + 0x1ff760;
_ZN5Level17tickServerPlayersEv = __main_start + 0x2005b8;
_ZN5Level4tickESt10shared_ptrI6EntityEb = __main_start + 0x200824;
_ZN5Level10levelEventESt10shared_ptrI6PlayerEiRK8BlockPosi = __main_start + 0x201a08;
_ZN5Level14getBlockEntityERK8BlockPos = __main_start + 0x201aac;
_ZN5Level23getPendingBlockEntityAtERK8BlockPos = __main_start + 0x201bec;
_ZN5Level4tickEv = __main_start + 0x202490;
_ZN5Level11tickWeatherEb = __main_start + 0x202520;
_ZN5Level27buildAndPrepareChunksToPollEv = __main_start + 0x202838;
_ZN5Level20tickClientSideBlocksEiiP10LevelChunk = __main_start + 0x202a60;
_ZN5Level10tickBlocksEv = __main_start + 0x202a64;
_ZN5Level9instaTickERK8BlockPosPK10BlockStateR6Random = __main_start + 0x202a70;
_ZN5Level16tickPendingTicksEb = __main_start + 0x2036b4;
_ZN5Level17fetchTicksInChunkEP10LevelChunkb = __main_start + 0x2036bc;
_ZN5Level16fetchTicksInAreaEP11BoundingBoxb = __main_start + 0x2036c4;
_ZN5Level9getEntityEi = __main_start + 0x203e7c;
_ZN5Level11addEntitiesEPSt6vectorISt10shared_ptrI6EntityESt9allocatorISt10shared_ptrI6EntityEEE = __main_start + 0x204074;
_ZN5Level14removeEntitiesEPSt6vectorISt10shared_ptrI6EntityESt9allocatorISt10shared_ptrI6EntityEEE = __main_start + 0x204340;
_ZN5Level11setSeaLevelEi = __main_start + 0x2044c0;
_ZN5Level15getDirectSignalERK8BlockPosPK9Direction = __main_start + 0x2044c8;
_ZN5Level16getGeneratorTypeEv = __main_start + 0x204514;
_ZN5Level10disconnectEb = __main_start + 0x205c18;
_ZN5Level12checkSessionEv = __main_start + 0x205c1c;
_ZN5Level11getGameTimeEv = __main_start + 0x205c3c;
_ZN5Level10getDayTimeEv = __main_start + 0x205c4c;
_ZN5Level17getSharedSpawnPosEv = __main_start + 0x205d6c;
_ZN5Level14getWorldBorderEv = __main_start + 0x205e5c;
_ZN5Level11mayInteractESt10shared_ptrI6PlayerERK8BlockPosP5Block = __main_start + 0x20610c;
_ZN5Level20broadcastEntityEventESt10shared_ptrI6EntityEji = __main_start + 0x206114;
_ZN5Level10blockEventERK8BlockPosP5Blockii = __main_start + 0x206120;
_ZN5Level24updateSleepingPlayerListEv = __main_start + 0x20617c;
_ZN5Level17getMaxBuildHeightEv = __main_start + 0x20645c;
_ZN5Level9getHeightEv = __main_start + 0x206464;
_ZN5Level10isAllEmptyEv = __main_start + 0x206500;
_ZN5Level15createFireworksEddddddP11CompoundTag = __main_start + 0x20656c;
_ZN5Level30updateNeighbourForOutputSignalERK8BlockPosP5Block = __main_start + 0x206570;
_ZN10LevelChunk16getInhabitedTimeEv = __main_start + 0x20676c;
_ZN5Level14getFogDistanceEv = __main_start + 0x206784;
_ZN5Level15getSkyFlashTimeEv = __main_start + 0x2067a4;
_ZN5Level18sendPacketToServerESt10shared_ptrI6PacketE = __main_start + 0x2069f8;
_ZN5Level21findNearestMapFeatureERKSt12basic_stringIwSt11char_traitsIwESt9allocatorIwEERK8BlockPosb = __main_start + 0x206a04;
_ZN5Level13canCreateMoreE11eINSTANCEOFN5Level11ESPAWN_TYPEE = __main_start + 0x206cfc;
_ZN5Level21AllPlayersAreSleepingEv = __main_start + 0x207108;
_ZN10LevelChunk10staticCtorEv = __main_start + 0x207498;
_ZN10LevelChunk4initEP5Levelii = __main_start + 0x2074c8;
_ZN10LevelChunkC1EP5LevelP11ChunkPrimerii = __main_start + 0x207870;
_ZN10LevelChunk14reSyncLightingEv = __main_start + 0x207c3c;
_ZN10LevelChunk20reSyncLightingNearbyEv = __main_start + 0x207e00;
_ZN10LevelChunk12dropLightingEv = __main_start + 0x207f68;
_ZN10LevelChunkD1Ev = __main_start + 0x208078;
_ZN10LevelChunkD0Ev = __main_start + 0x208234;
_ZN10LevelChunk4isAtEii = __main_start + 0x20836c;
_ZN10LevelChunk12getHeightmapEii = __main_start + 0x2083e8;
_ZN10LevelChunk17recalcBlockLightsEv = __main_start + 0x208420;
_ZN10LevelChunk19recalcHeightmapOnlyEv = __main_start + 0x208424;
_ZN10LevelChunk15recalcHeightmapEv = __main_start + 0x2085a8;
_ZN10LevelChunk9lightLavaEv = __main_start + 0x2088a4;
_ZN10LevelChunk18getBlockLightBlockERK8BlockPos = __main_start + 0x209580;
_ZN10LevelChunk8getBlockERK8BlockPos = __main_start + 0x2095b0;
_ZN10LevelChunk13getBlockStateERK8BlockPos = __main_start + 0x209608;
_ZN10LevelChunk7setDataEiiiiiPb = __main_start + 0x209750;
_ZN10LevelChunk7getDataERK8BlockPos = __main_start + 0x2098e0;
_ZN10LevelChunk8setBlockERK8BlockPosPK10BlockState = __main_start + 0x209938;
_ZN10LevelChunk15setBlockAndDataEiiiiib = __main_start + 0x209e8c;
_ZN10LevelChunk13getBrightnessEN10LightLayer7varietyERK8BlockPos = __main_start + 0x20a2fc;
_ZN10LevelChunk24getNeighbourBrightnessesEPiN10LightLayer7varietyEiii = __main_start + 0x20a3e0;
_ZN10LevelChunk13setBrightnessEN10LightLayer7varietyERK8BlockPosi = __main_start + 0x20a55c;
_ZN10LevelChunk16getRawBrightnessERK8BlockPosi = __main_start + 0x20a640;
_ZN10LevelChunk9addEntityENSt3__110shared_ptrI6EntityEE = __main_start + 0x20a730;
_ZN10LevelChunk12removeEntityENSt3__110shared_ptrI6EntityEE = __main_start + 0x20a860;
_ZN10LevelChunk12removeEntityENSt3__110shared_ptrI6EntityEEi = __main_start + 0x20a8cc;
_ZN10LevelChunk8isSkyLitERK8BlockPos = __main_start + 0x20aa44;
_ZN10LevelChunk14getBlockEntityERK8BlockPosNS_18EntityCreationTypeE = __main_start + 0x20ab84;
_ZN10LevelChunk14addBlockEntityENSt3__110shared_ptrI11BlockEntityEE = __main_start + 0x20ad80;
_ZN10LevelChunk14setBlockEntityERK8BlockPosNSt3__110shared_ptrI11BlockEntityEE = __main_start + 0x20ae50;
_ZN10LevelChunk17removeBlockEntityERK8BlockPos = __main_start + 0x20b1ac;
_ZN10LevelChunk4loadEb = __main_start + 0x20b25c;
_ZN10LevelChunk6unloadEbb = __main_start + 0x20b9c0;
_ZN10LevelChunk14containsPlayerEv = __main_start + 0x20c0f8;
_ZN10LevelChunk11markUnsavedEv = __main_start + 0x20c1bc;
_ZN10LevelChunk11getEntitiesENSt3__110shared_ptrI6EntityEEPK4AABBRNS0_6vectorIS3_NS0_9allocatorIS3_EEEEPK9PredicateIS3_E = __main_start + 0x20c1c4;
_ZN10LevelChunk18getEntitiesOfClassERKSt9type_infoPK4AABBRNSt3__16vectorINS6_10shared_ptrI6EntityEENS6_9allocatorISA_EEEEPK9PredicateISA_Eb = __main_start + 0x20c534;
_ZN10LevelChunk13countEntitiesEv = __main_start + 0x20c994;
_ZN10LevelChunk10shouldSaveEb = __main_start + 0x20ca3c;
_ZN10LevelChunk16getBlocksAndDataEP15arrayWithLengthIhEiiiiiiib = __main_start + 0x20cac4;
_ZN10LevelChunk20testSetBlocksAndDataE15arrayWithLengthIhEiiiiiii = __main_start + 0x20cd24;
_ZN10LevelChunk16setBlocksAndDataE15arrayWithLengthIhEiiiiiiib = __main_start + 0x20cf2c;
_ZN10LevelChunk9getRandomEx = __main_start + 0x20d320;
_ZN10LevelChunk7isEmptyEv = __main_start + 0x20d3b0;
_ZN10LevelChunk8getBiomeERK8BlockPosP11BiomeSource = __main_start + 0x20dd68;
_ZN10LevelChunk16setCheckAllLightEv = __main_start + 0x20df58;
_ZN10LevelChunk11getDataDataE15arrayWithLengthIhE = __main_start + 0x20e118;
_ZN10LevelChunk16getDataDataRangeE15arrayWithLengthIhEii = __main_start + 0x20e188;
_ZN10LevelChunk11setDataDataE15arrayWithLengthIhE = __main_start + 0x20e224;
_ZN10LevelChunk15getSkyLightDataE15arrayWithLengthIhE = __main_start + 0x20e2d4;
_ZN10LevelChunk17getBlockLightDataE15arrayWithLengthIhE = __main_start + 0x20e334;
_ZN10LevelChunk15setSkyLightDataE15arrayWithLengthIhE = __main_start + 0x20e394;
_ZN10LevelChunk17setBlockLightDataE15arrayWithLengthIhE = __main_start + 0x20e444;
_ZN10LevelChunk16compressLightingEv = __main_start + 0x20e51c;
_ZN10LevelChunk14compressBlocksEv = __main_start + 0x20e554;
_ZN10LevelChunk12compressDataEv = __main_start + 0x20e864;
_ZN10LevelChunk12setBlockDataE15arrayWithLengthIhE = __main_start + 0x20e96c;
_ZN10LevelChunk12getBlockDataE15arrayWithLengthIhE = __main_start + 0x20e9cc;
_ZN10LevelChunk17getBlockDataRangeE15arrayWithLengthIhEii = __main_start + 0x20ea3c;
_ZN10LevelChunk25getReorderedBlocksAndDataEiiiiRii = __main_start + 0x20eb18;
_ZN9LevelDataC1Ev = __main_start + 0x20f0b4;
_ZN9LevelDataC1EP11CompoundTag = __main_start + 0x20f198;
_ZN9LevelDataC1EP13LevelSettingsRKNSt3__112basic_stringIwNS2_11char_traitsIwEENS2_9allocatorIwEEEE = __main_start + 0x210904;
_ZN9LevelDataC1EPS_ = __main_start + 0x210c2c;
_ZN9LevelDataD1Ev = __main_start + 0x210df8;
_ZN9LevelDataD0Ev = __main_start + 0x210e6c;
_ZN9LevelData10addWalkersEP14DataFixerUpper = __main_start + 0x210e90;
_ZN9LevelData9createTagEv = __main_start + 0x210f1c;
_ZN9LevelData9createTagEPNSt3__16vectorINS0_10shared_ptrI6PlayerEENS0_9allocatorIS4_EEEE = __main_start + 0x210f60;
_ZN9LevelData10setTagDataEP11CompoundTag = __main_start + 0x210f6c;
_ZN9LevelData7getSeedEv = __main_start + 0x211bec;
_ZN9LevelData9getXSpawnEv = __main_start + 0x211bf4;
_ZN9LevelData9getYSpawnEv = __main_start + 0x211bfc;
_ZN9LevelData9getZSpawnEv = __main_start + 0x211c04;
_ZN9LevelData14getXStrongholdEv = __main_start + 0x211c0c;
_ZN9LevelData14getZStrongholdEv = __main_start + 0x211c14;
_ZN9LevelData23getXStrongholdEndPortalEv = __main_start + 0x211c1c;
_ZN9LevelData23getZStrongholdEndPortalEv = __main_start + 0x211c24;
_ZN9LevelData11getGameTimeEv = __main_start + 0x211c2c;
_ZN9LevelData10getDayTimeEv = __main_start + 0x211c34;
_ZN9LevelData13getSizeOnDiskEv = __main_start + 0x211c3c;
_ZN9LevelData18getLoadedPlayerTagEv = __main_start + 0x211c44;
_ZN9LevelData7setSeedEx = __main_start + 0x211c4c;
_ZN9LevelData9setXSpawnEi = __main_start + 0x211c54;
_ZN9LevelData9setYSpawnEi = __main_start + 0x211c5c;
_ZN9LevelData9setZSpawnEi = __main_start + 0x211c64;
_ZN9LevelData16setHasStrongholdEv = __main_start + 0x211c6c;
_ZN9LevelData16getHasStrongholdEv = __main_start + 0x211c78;
_ZN9LevelData14setXStrongholdEi = __main_start + 0x211c80;
_ZN9LevelData14setZStrongholdEi = __main_start + 0x211c88;
_ZN9LevelData25setHasStrongholdEndPortalEv = __main_start + 0x211c90;
_ZN9LevelData25getHasStrongholdEndPortalEv = __main_start + 0x211c9c;
_ZN9LevelData23setXStrongholdEndPortalEi = __main_start + 0x211ca4;
_ZN9LevelData23setZStrongholdEndPortalEi = __main_start + 0x211cac;
_ZN9LevelData11setGameTimeEx = __main_start + 0x211cb4;
_ZN9LevelData10setDayTimeEx = __main_start + 0x211cbc;
_ZN9LevelData13setSizeOnDiskEx = __main_start + 0x211cc4;
_ZN9LevelData18setLoadedPlayerTagEP11CompoundTag = __main_start + 0x211ccc;
_ZN9LevelData8setSpawnERK8BlockPos = __main_start + 0x211cd0;
_ZN9LevelData12getLevelNameEv = __main_start + 0x211d14;
_ZN9LevelData12setLevelNameERKNSt3__112basic_stringIwNS0_11char_traitsIwEENS0_9allocatorIwEEEE = __main_start + 0x211d20;
_ZN9LevelData10getVersionEv = __main_start + 0x211d28;
_ZN9LevelData10setVersionEi = __main_start + 0x211d30;
_ZN9LevelData13getLastPlayedEv = __main_start + 0x211d38;
_ZN9LevelData19getClearWeatherTimeEv = __main_start + 0x211d40;
_ZN9LevelData19setClearWeatherTimeEi = __main_start + 0x211d48;
_ZN9LevelData12isThunderingEv = __main_start + 0x211d50;
_ZN9LevelData13setThunderingEb = __main_start + 0x211d58;
_ZN9LevelData14getThunderTimeEv = __main_start + 0x211d64;
_ZN9LevelData14setThunderTimeEi = __main_start + 0x211d6c;
_ZN9LevelData9isRainingEv = __main_start + 0x211d74;
_ZN9LevelData10setRainingEb = __main_start + 0x211d7c;
_ZN9LevelData11getRainTimeEv = __main_start + 0x211d88;
_ZN9LevelData11setRainTimeEi = __main_start + 0x211d90;
_ZN9LevelData11getGameTypeEv = __main_start + 0x211d98;
_ZN9LevelData21isGenerateMapFeaturesEv = __main_start + 0x211da0;
_ZN9LevelData22setGenerateMapFeaturesEb = __main_start + 0x211da8;
_ZN9LevelData18getSpawnBonusChestEv = __main_start + 0x211db4;
_ZN9LevelData11setGameTypeEPK8GameType = __main_start + 0x211dbc;
_ZN9LevelData14useNewSeaLevelEv = __main_start + 0x211e1c;
_ZN9LevelData20getHasBeenInCreativeEv = __main_start + 0x211e24;
_ZN9LevelData20setHasBeenInCreativeEb = __main_start + 0x211e2c;
_ZN9LevelData16getGeneratorTypeEv = __main_start + 0x211e38;
_ZN9LevelData16setGeneratorTypeEP9LevelType = __main_start + 0x211e40;
_ZN9LevelData19getGeneratorOptionsEv = __main_start + 0x211e68;
_ZN9LevelData19setGeneratorOptionsEP15SuperflatConfig = __main_start + 0x211e70;
_ZN9LevelData10isHardcoreEv = __main_start + 0x211e78;
_ZN9LevelData11setHardcoreEb = __main_start + 0x211e80;
_ZN9LevelData16getAllowCommandsEv = __main_start + 0x211e8c;
_ZN9LevelData16setAllowCommandsEb = __main_start + 0x211e94;
_ZN9LevelData13isInitializedEv = __main_start + 0x211ea0;
_ZN9LevelData14setInitializedEb = __main_start + 0x211ea8;
_ZN9LevelData12getGameRulesEv = __main_start + 0x211eb4;
_ZN9LevelData9getXZSizeEv = __main_start + 0x211ebc;
_ZN9LevelData13getDifficultyEv = __main_start + 0x211ec4;
_ZN9LevelData13setDifficultyEPK10Difficulty = __main_start + 0x211ecc;
_ZN9LevelData14getCloudHeightEv = __main_start + 0x211ef8;
_ZN9LevelData14setCloudHeightEi = __main_start + 0x211f00;
_ZN9LevelData18isDifficultyLockedEv = __main_start + 0x211f08;
_ZN9LevelData19setDifficultyLockedEb = __main_start + 0x211f10;
_ZN9LevelData16getDimensionDataEPK13DimensionType = __main_start + 0x211f1c;
_ZN9LevelData16setDimensionDataEPK13DimensionTypeP11CompoundTag = __main_start + 0x211f64;
_ZN9LevelData16getCurrentXZSizeEv = __main_start + 0x212214;
_ZN9LevelData15func_710021221CEv = __main_start + 0x21221c;
_ZN9LevelData15func_7100212238Ev = __main_start + 0x212238;
_ZN9LevelData12getHellScaleEv = __main_start + 0x21229c;
_ZN9LevelData12setModernEndEv = __main_start + 0x2122a4;
_ZN9LevelData12getModernEndEv = __main_start + 0x2122b0;
_ZN9LevelData13getBiomeScaleEv = __main_start + 0x2122b8;
_ZN9LevelData20getBiomeCentreXChunkEv = __main_start + 0x2122c0;
_ZN9LevelData20getBiomeCentreZChunkEv = __main_start + 0x2122c8;
_ZN9LevelType10staticCtorEv = __main_start + 0x212564;
_ZN10LeverBlock11getClipAABBEPK10BlockStateP11LevelSourceRK8BlockPos = __main_start + 0x21305c;
_ZNK10LeverBlock13isSolidRenderEPK10BlockState = __main_start + 0x21306c;
_ZN10LeverBlock12isCubeShapedEPK10BlockState = __main_start + 0x213074;
_ZN10LeverBlock8mayPlaceEP5LevelRK8BlockPosPK9Direction = __main_start + 0x21307c;
_ZN10LeverBlock8mayPlaceEP5LevelRK8BlockPos = __main_start + 0x213090;
_ZN10LeverBlock20getStateForPlacementEP5LevelRK8BlockPosPK9DirectionfffiSt10shared_ptrI12LivingEntityE = __main_start + 0x2130f8;
_ZN10LeverBlock15neighborChangedEPK10BlockStateP5LevelRK8BlockPosP5BlockRK8BlockPos = __main_start + 0x2133cc;
_ZN10LeverBlock25getSpawnResourcesAuxValueEPK10BlockState = __main_start + 0x213578;
_ZN10LeverBlock8getShapeEPK10BlockStateP11LevelSourceRK8BlockPos = __main_start + 0x213588;
_ZN10LeverBlock7TestUseEv = __main_start + 0x2135e0;
_ZN10LeverBlock3useEP5LevelRK8BlockPosPK10BlockStateSt10shared_ptrI6PlayerEN15InteractionHand16EInteractionHandEPK9Directionfffb = __main_start + 0x2135e8;
_ZN10LeverBlock8onRemoveEP5LevelRK8BlockPosPK10BlockState = __main_start + 0x213820;
_ZN10LeverBlock9getSignalEPK10BlockStateP11LevelSourceRK8BlockPosPK9Direction = __main_start + 0x2138dc;
_ZN10LeverBlock15getDirectSignalEPK10BlockStateP11LevelSourceRK8BlockPosPK9Direction = __main_start + 0x213920;
_ZN10LeverBlock14isSignalSourceEPK10BlockState = __main_start + 0x213994;
_ZN10LeverBlock13getBlockStateEi = __main_start + 0x21399c;
_ZN10LeverBlock29convertBlockStateToLegacyDataEPK10BlockState = __main_start + 0x213a18;
_ZN10LeverBlock18GetInteractTooltipERK22BlockTooltipDataHolder = __main_start + 0x213a70;
_ZN10LeverBlock6rotateEPK10BlockStateP8Rotation = __main_start + 0x213a98;
_ZN10LeverBlock6mirrorEPK10BlockStateP6Mirror = __main_start + 0x213c10;
_ZN10LeverBlock26createBlockStateDefinitionEv = __main_start + 0x213c7c;
_ZN10LeverBlock17getBlockFaceShapeEP11LevelSourcePK10BlockStateRK8BlockPosPK9Direction = __main_start + 0x213cfc;
_ZN10LeverBlock14getRenderShapeEPK10BlockState = __main_start + 0x213d04;
_ZN15LightGemFeature5placeEP5LevelR6RandomRK8BlockPos = __main_start + 0x213d84;
_ZN17StaticLiquidBlock11DerivedInitEv = __main_start + 0x214ad4;
_ZN17StaticLiquidBlock8getShapeEPK10BlockStateP11LevelSourceRK8BlockPos = __main_start + 0x214b58;
_ZN17StaticLiquidBlock11getClipAABBEPK10BlockStateP11LevelSourceRK8BlockPos = __main_start + 0x214b68;
_ZN17StaticLiquidBlock14isPathfindableEP11LevelSourceRK8BlockPos = __main_start + 0x214b78;
_ZN17StaticLiquidBlock8getColorEP11LevelSourceRK8BlockPosi = __main_start + 0x214b94;
_ZN17StaticLiquidBlock8getColorEP11LevelSourceRK8BlockPosPK10BlockState = __main_start + 0x214ba4;
_ZN17StaticLiquidBlock12isCubeShapedEPK10BlockState = __main_start + 0x214c50;
_ZNK17StaticLiquidBlock13isSolidRenderEPK10BlockState = __main_start + 0x214c58;
_ZN17StaticLiquidBlock7mayPickEPK10BlockStateb = __main_start + 0x214c60;
_ZN17StaticLiquidBlock11isSolidFaceEP11LevelSourceRK8BlockPosPK9Direction = __main_start + 0x214c9c;
_ZN17StaticLiquidBlock16shouldRenderFaceEPK10BlockStateP11LevelSourceRK8BlockPosPK9Direction = __main_start + 0x214db4;
_ZN17StaticLiquidBlock14getRenderShapeEPK10BlockState = __main_start + 0x214ff4;
_ZN17StaticLiquidBlock11getResourceEPK10BlockStateP6Randomi = __main_start + 0x214ffc;
_ZN17StaticLiquidBlock16getResourceCountEP6Random = __main_start + 0x21500c;
_ZN17StaticLiquidBlock18handleEntityInsideEP5LevelRK8BlockPosSt10shared_ptrI6EntityEP4Vec3 = __main_start + 0x2152e0;
_ZN17StaticLiquidBlock12getTickDelayEP5Level = __main_start + 0x215350;
_ZN17StaticLiquidBlock13getLightColorEPK10BlockStateP11LevelSourceRK8BlockPosi = __main_start + 0x2153b4;
_ZN17StaticLiquidBlock14getRenderLayerEv = __main_start + 0x215460;
_ZN17StaticLiquidBlock11animateTickEPK10BlockStateP5LevelRK8BlockPosP6Random = __main_start + 0x215480;
_ZN17StaticLiquidBlock7onPlaceEP5LevelRK8BlockPosPK10BlockState = __main_start + 0x215c14;
_ZN11LiquidBlock15neighborChangedEPK10BlockStateP5LevelRK8BlockPosP5BlockRK8BlockPos = __main_start + 0x215c20;
_ZN17StaticLiquidBlock13getBlockStateEi = __main_start + 0x215fa8;
_ZN17StaticLiquidBlock29convertBlockStateToLegacyDataEPK10BlockState = __main_start + 0x215fd8;
_ZN17StaticLiquidBlock26createBlockStateDefinitionEv = __main_start + 0x215ff0;
_ZN17StaticLiquidBlock13registerIconsEP12IconRegister = __main_start + 0x2160ac;
_ZN17StaticLiquidBlock10getTextureEPK9DirectionPK10BlockState = __main_start + 0x216144;
_ZN17StaticLiquidBlock17getBlockFaceShapeEP11LevelSourcePK10BlockStateRK8BlockPosPK9Direction = __main_start + 0x216278;
_ZN7ListTagD1Ev = __main_start + 0x2162bc;
_ZN7ListTagD0Ev = __main_start + 0x21637c;
_ZN7ListTag5writeEP10DataOutput = __main_start + 0x2163a0;
_ZN7ListTag4loadEP9DataInputi = __main_start + 0x216448;
_ZN7ListTag5getIdEv = __main_start + 0x216544;
_ZN7ListTag8toStringEv = __main_start + 0x21654c;
_ZN7ListTag5printERKNSt3__112basic_stringIwNS0_11char_traitsIwEENS0_9allocatorIwEEEEPcRNS0_13basic_ostreamIwS3_EE = __main_start + 0x2165c4;
_ZN7ListTag18stripEmptyChildrenEv = __main_start + 0x2168f0;
_ZNK7ListTag7isEmptyEv = __main_start + 0x2169a8;
_ZNK7ListTag9getDoubleEi = __main_start + 0x216a54;
_ZNK7ListTag8getFloatEi = __main_start + 0x216ac8;
_ZN7ListTag4copyEv = __main_start + 0x216be4;
_ZN7ListTag6equalsEP3Tag = __main_start + 0x216c8c;
_ZN12LivingEntity10staticCtorEv = __main_start + 0x216d50;
_ZN12LivingEntity4killEv = __main_start + 0x216e14;
_ZN12LivingEntity4initEv = __main_start + 0x216e38;
_ZN12LivingEntityC1EP5Level = __main_start + 0x21706c;
_ZN12LivingEntity17defineSynchedDataEv = __main_start + 0x217308;
_ZN12LivingEntity18registerAttributesEv = __main_start + 0x217398;
_ZN12LivingEntity15checkFallDamageEdbP5BlockRK8BlockPos = __main_start + 0x217474;
_ZN12LivingEntity10isWaterMobEv = __main_start + 0x217608;
_ZN12LivingEntity8baseTickEv = __main_start + 0x217610;
_ZN12LivingEntity14onChangedBlockERK8BlockPos = __main_start + 0x217c54;
_ZN12LivingEntity6isBabyEv = __main_start + 0x217d20;
_ZN12LivingEntity9tickDeathEv = __main_start + 0x217d28;
_ZN12LivingEntity20shouldDropExperienceEv = __main_start + 0x217fac;
_ZN12LivingEntity17decreaseAirSupplyEi = __main_start + 0x217fd0;
_ZN12LivingEntity19getExperienceRewardESt10shared_ptrI6PlayerE = __main_start + 0x21806c;
_ZN12LivingEntity25isAlwaysExperienceDropperEv = __main_start + 0x218074;
_ZN12LivingEntity9getRandomEv = __main_start + 0x21807c;
_ZN12LivingEntity16getLastHurtByMobEv = __main_start + 0x218084;
_ZN12LivingEntity25getLastHurtByMobTimestampEv = __main_start + 0x21808c;
_ZN12LivingEntity16setLastHurtByMobESt10shared_ptrI12LivingEntityE = __main_start + 0x218094;
_ZN12LivingEntity14getLastHurtMobEv = __main_start + 0x218104;
_ZN12LivingEntity23getLastHurtMobTimestampEv = __main_start + 0x21810c;
_ZN12LivingEntity14setLastHurtMobESt10shared_ptrI6EntityE = __main_start + 0x218114;
_ZN12LivingEntity15getNoActionTimeEv = __main_start + 0x2181d4;
_ZN12LivingEntity20addAdditonalSaveDataEP11CompoundTag = __main_start + 0x2182e8;
_ZN12LivingEntity22readAdditionalSaveDataEP11CompoundTag = __main_start + 0x218820;
_ZN12LivingEntity11tickEffectsEv = __main_start + 0x21910c;
_ZN12LivingEntity24updateInvisibilityStatusEv = __main_start + 0x2194c0;
_ZN12LivingEntity21removeEffectParticlesEv = __main_start + 0x2196b8;
_ZN12LivingEntity16removeAllEffectsEv = __main_start + 0x219708;
_ZN12LivingEntity16getActiveEffectsEv = __main_start + 0x21977c;
_ZN12LivingEntity9hasEffectE9MobEffect = __main_start + 0x219804;
_ZN12LivingEntity9getEffectE9MobEffect = __main_start + 0x219834;
_ZN12LivingEntity9addEffectEP17MobEffectInstanceRKSt10shared_ptrI6EntityE = __main_start + 0x219864;
_ZN12LivingEntity17addEffectNoUpdateEP17MobEffectInstance = __main_start + 0x219be0;
_ZN12LivingEntity13canBeAffectedEP17MobEffectInstance = __main_start + 0x219c90;
_ZN12LivingEntity21isInvertedHealAndHarmEv = __main_start + 0x219cfc;
_ZN12LivingEntity20removeEffectNoUpdateE9MobEffect = __main_start + 0x219d20;
_ZN12LivingEntity12removeEffectE9MobEffect = __main_start + 0x219d78;
_ZN12LivingEntity13onEffectAddedEP17MobEffectInstance = __main_start + 0x219df0;
_ZN12LivingEntity15onEffectUpdatedEP17MobEffectInstanceb = __main_start + 0x219eb0;
_ZN12LivingEntity15onEffectRemovedEP17MobEffectInstance = __main_start + 0x219fe0;
_ZN12LivingEntity4healEf = __main_start + 0x21a098;
_ZN12LivingEntity9getHealthEv = __main_start + 0x21a0f4;
_ZN12LivingEntity9setHealthEf = __main_start + 0x21a108;
_ZN12LivingEntity4hurtEP12DamageSourcef = __main_start + 0x21a164;
_ZN12LivingEntity16blockUsingShieldERKSt10shared_ptrI12LivingEntityE = __main_start + 0x21aa74;
_ZN12LivingEntity25checkTotemDeathProtectionEP12DamageSource = __main_start + 0x21aaf4;
_ZN12LivingEntity19getLastDamageSourceEv = __main_start + 0x21ad80;
_ZN12LivingEntity13playHurtSoundEP12DamageSource = __main_start + 0x21add0;
_ZN12LivingEntity21isDamageSourceBlockedEP12DamageSource = __main_start + 0x21ae58;
_ZN12LivingEntity9breakItemE12not_null_ptrI12ItemInstanceE = __main_start + 0x21aea0;
_ZN12LivingEntity3dieEP12DamageSource = __main_start + 0x21b120;
_ZN12LivingEntity16dropAllDeathLootEbiP12DamageSource = __main_start + 0x21b4c4;
_ZN12LivingEntity13dropEquipmentEbi = __main_start + 0x21b518;
_ZN12LivingEntity9knockbackESt10shared_ptrI6EntityEfdd = __main_start + 0x21b51c;
_ZN12LivingEntity12getHurtSoundEP12DamageSource = __main_start + 0x21b670;
_ZN12LivingEntity13getDeathSoundEv = __main_start + 0x21b680;
_ZN12LivingEntity18getFallDamageSoundEi = __main_start + 0x21b690;
_ZN12LivingEntity13dropDeathLootEbi = __main_start + 0x21b6b0;
_ZN12LivingEntity8onLadderEv = __main_start + 0x21b6b4;
_ZN12LivingEntity11isShootableEv = __main_start + 0x21b8c8;
_ZN12LivingEntity7isAliveEv = __main_start + 0x21b8d0;
_ZN12LivingEntity15causeFallDamageEff = __main_start + 0x21b904;
_ZN12LivingEntity11animateHurtEv = __main_start + 0x21bb10;
_ZN12LivingEntity13getArmorValueEv = __main_start + 0x21bb28;
_ZN12LivingEntity9hurtArmorEf = __main_start + 0x21bb5c;
_ZN12LivingEntity23hurtCurrentlyUsedShieldEf = __main_start + 0x21bb60;
_ZN12LivingEntity25getDamageAfterArmorAbsorbE12DamageSourcef = __main_start + 0x21bb64;
_ZN12LivingEntity25getDamageAfterMagicAbsorbE12DamageSourcef = __main_start + 0x21bc08;
_ZN12LivingEntity12actuallyHurtE12DamageSourcef = __main_start + 0x21bd3c;
_ZN12LivingEntity17spawnEatParticlesERK12ItemInstancei = __main_start + 0x21be80;
_ZN12LivingEntity16getCombatTrackerEv = __main_start + 0x21c074;
_ZN12LivingEntity13getKillCreditEv = __main_start + 0x21c07c;
_ZN12LivingEntity12getMaxHealthEv = __main_start + 0x21c12c;
_ZN12LivingEntity13getArrowCountEv = __main_start + 0x21c164;
_ZN12LivingEntity13setArrowCountEi = __main_start + 0x21c178;
_ZN12LivingEntity5swingEN15InteractionHand16EInteractionHandE = __main_start + 0x21c23c;
_ZN12LivingEntity17handleEntityEventEhi = __main_start + 0x21c488;
_ZN12LivingEntity10outOfWorldEv = __main_start + 0x21c7c0;
_ZN12LivingEntity15updateSwingTimeEv = __main_start + 0x21c7dc;
_ZN12LivingEntity12getAttributeEP9Attribute = __main_start + 0x21c83c;
_ZN12LivingEntity13getAttributesEv = __main_start + 0x21c870;
_ZN12LivingEntity10getMobTypeEv = __main_start + 0x21c8fc;
_ZN12LivingEntity15getMainHandItemEv = __main_start + 0x21c904;
_ZN12LivingEntity14getOffhandItemEv = __main_start + 0x21c91c;
_ZN12LivingEntity13getItemInHandEN15InteractionHand16EInteractionHandE = __main_start + 0x21c934;
_ZN12LivingEntity13setItemInHandEN15InteractionHand16EInteractionHandE12not_null_ptrI12ItemInstanceE = __main_start + 0x21c980;
_ZN12LivingEntity13hasItemInSlotEPK13EquipmentSlot = __main_start + 0x21ca28;
_ZN12LivingEntity12setSprintingEb = __main_start + 0x21ca70;
_ZN12LivingEntity17getItemInHandIconE12not_null_ptrI12ItemInstanceEi = __main_start + 0x21cb30;
_ZN12LivingEntity14getSoundVolumeEv = __main_start + 0x21cb88;
_ZN12LivingEntity13getVoicePitchEv = __main_start + 0x21cb90;
_ZN12LivingEntity10isImmobileEv = __main_start + 0x21cbfc;
_ZN12LivingEntity19findStandUpPositionESt10shared_ptrI6EntityE = __main_start + 0x21cc20;
_ZN12LivingEntity14shouldShowNameEv = __main_start + 0x21d1ec;
_ZN12LivingEntity12getJumpPowerEv = __main_start + 0x21d1f8;
_ZN12LivingEntity14jumpFromGroundEv = __main_start + 0x21d204;
_ZN12LivingEntity11jumpInWaterEv = __main_start + 0x21d304;
_ZN12LivingEntity10jumpInLavaEv = __main_start + 0x21d31c;
_ZN12LivingEntity16getWaterSlowDownEv = __main_start + 0x21d334;
_ZN12LivingEntity6travelEfff = __main_start + 0x21d340;
_ZN12LivingEntity20updateModelAnimationEv = __main_start + 0x21e8b8;
_ZN19MultiPlayerGameMode10isCutSceneEv = __main_start + 0x21eae4;
_ZN12LivingEntity13getLightColorEv = __main_start + 0x21eda8;
_ZN12LivingEntity14setBoundingBoxEP4AABB = __main_start + 0x21f200;
_ZN12LivingEntity8getSpeedEv = __main_start + 0x21f2f0;
_ZN12LivingEntity8setSpeedEf = __main_start + 0x21f2f8;
_ZN12LivingEntity12doHurtTargetESt10shared_ptrI6EntityE = __main_start + 0x21f300;
_ZN12LivingEntity10isSleepingEv = __main_start + 0x21f35c;
_ZN12LivingEntity4tickEv = __main_start + 0x21f364;
_ZN3Mth11wrapDegreesEf = __main_start + 0x21fb10;
_ZN12LivingEntity12tickHeadTurnEff = __main_start + 0x21fb68;
_ZN12LivingEntity6aiStepEv = __main_start + 0x21fc28;
_ZN12LivingEntity12serverAiStepEv = __main_start + 0x22033c;
_ZN12LivingEntity12pushEntitiesEv = __main_start + 0x220340;
_ZN12LivingEntity6doPushESt10shared_ptrI6EntityE = __main_start + 0x220548;
_ZN12LivingEntity10stopRidingEv = __main_start + 0x220598;
_ZN12LivingEntity8rideTickEv = __main_start + 0x220684;
_ZN12LivingEntity6lerpToEdddffib = __main_start + 0x2206b4;
_ZN12LivingEntity10setJumpingEb = __main_start + 0x2206d8;
_ZN12LivingEntity4takeESt10shared_ptrI6EntityEi = __main_start + 0x2206e4;
_ZN12LivingEntity6canSeeESt10shared_ptrI6EntityE = __main_start + 0x2208e8;
_ZN12LivingEntity13getViewVectorEf = __main_start + 0x2209a0;
_ZN12LivingEntity13getAttackAnimEf = __main_start + 0x2209e4;
_ZN12LivingEntity14getSweptVolumeEv = __main_start + 0x220a0c;
_ZN12LivingEntity13isEffectiveAiEv = __main_start + 0x220a50;
_ZN12LivingEntity10isPickableEv = __main_start + 0x220a64;
_ZN12LivingEntity10isPushableEv = __main_start + 0x220a74;
_ZN12LivingEntity8markHurtEv = __main_start + 0x220ac0;
_ZN12LivingEntity11getYHeadRotEv = __main_start + 0x220b24;
_ZN12LivingEntity11setYHeadRotEf = __main_start + 0x220b2c;
_ZN12LivingEntity11setYBodyRotEf = __main_start + 0x220b34;
_ZN12LivingEntity19getAbsorptionAmountEv = __main_start + 0x220b3c;
_ZN12LivingEntity19setAbsorptionAmountEf = __main_start + 0x220b44;
_ZN12LivingEntity13onEnterCombatEv = __main_start + 0x220b54;
_ZN12LivingEntity13onLeaveCombatEv = __main_start + 0x220b58;
_ZN12LivingEntity22updateEffectVisibilityEv = __main_start + 0x220b5c;
_ZN12LivingEntity11isUsingItemEv = __main_start + 0x220b68;
_ZN12LivingEntity15getUsedItemHandEv = __main_start + 0x220b90;
_ZN12LivingEntity17updatingUsingItemEv = __main_start + 0x220bb8;
_ZN12LivingEntity14startUsingItemEN15InteractionHand16EInteractionHandE = __main_start + 0x220cb8;
_ZN12LivingEntity19onSyncedDataUpdatedEPK23EntityDataAccessor_Base = __main_start + 0x220d60;
_ZN12LivingEntity21spawnItemUseParticlesE12not_null_ptrI12ItemInstanceEi = __main_start + 0x220e64;
_ZN12LivingEntity17completeUsingItemEv = __main_start + 0x2211bc;
_ZN12LivingEntity17getTicksUsingItemEv = __main_start + 0x221304;
_ZN12LivingEntity16releaseUsingItemEv = __main_start + 0x22135c;
_ZN12LivingEntity16releaseUsingItemEi = __main_start + 0x221398;
_ZN12LivingEntity13stopUsingItemEv = __main_start + 0x22144c;
_ZN12LivingEntity10isBlockingEv = __main_start + 0x2214a4;
_ZN12LivingEntity12isFallFlyingEv = __main_start + 0x221558;
_ZN12LivingEntity18getFallFlyingTicksEv = __main_start + 0x221568;
_ZN12LivingEntity19isAffectedByPotionsEv = __main_start + 0x221920;
_ZN12LivingEntity10attackableEv = __main_start + 0x221928;
_ZN12LivingEntity22setRecordPlayingNearbyERK8BlockPosb = __main_start + 0x221930;
_ZN12LivingEntity7getTeamEv = __main_start + 0x221934;
_ZN12LivingEntity15stopCurrentLerpEv = __main_start + 0x221a18;
_ZN12LivingEntity16IsCreativeFlyingEv = __main_start + 0x221ac8;
_ZN5Llama10staticCtorEv = __main_start + 0x221b6c;
_ZN11OldLogBlock8onRemoveEP5LevelRK8BlockPosPK10BlockState = __main_start + 0x225fa8;
_ZN11OldLogBlock20getStateForPlacementEP5LevelRK8BlockPosPK9DirectionfffiSt10shared_ptrI12LivingEntityE = __main_start + 0x22614c;
_ZN11OldLogBlock6rotateEPK10BlockStateP8Rotation = __main_start + 0x2261e0;
_ZN11OldLogBlock16getDescriptionIdEi = __main_start + 0x2262d4;
_ZN11OldLogBlock13registerIconsEP12IconRegister = __main_start + 0x226394;
_ZN7LongTag5writeEP10DataOutput = __main_start + 0x2266e4;
_ZN7LongTag4loadEP9DataInputi = __main_start + 0x2266fc;
_ZN7LongTag5getIdEv = __main_start + 0x22672c;
_ZN7LongTag8toStringEv = __main_start + 0x226734;
_ZN7LongTag4copyEv = __main_start + 0x22678c;
_ZN7LongTag6equalsEP3Tag = __main_start + 0x2267c0;
_ZN7LongTag9getAsLongEv = __main_start + 0x226800;
_ZN7LongTag8getAsIntEv = __main_start + 0x226808;
_ZN7LongTag10getAsShortEv = __main_start + 0x226810;
_ZN7LongTag9getAsByteEv = __main_start + 0x226818;
_ZN7LongTag11getAsDoubleEv = __main_start + 0x226820;
_ZN7LongTag10getAsFloatEv = __main_start + 0x22682c;
_ZN11LookControl9setLookAtEdddff = __main_start + 0x226f4c;
_ZN11LookControlC1EP3Mob = __main_start + 0x227094;
_ZN11LookControl9setLookAtENSt3__110shared_ptrI6EntityEEff = __main_start + 0x2270a8;
_ZN11LookControl4tickEv = __main_start + 0x2271a0;
_ZN11LookControl7rotlerpEfff = __main_start + 0x22735c;
_ZN14PathNavigation6isDoneEv = __main_start + 0x2273c4;
_ZN11LookControl11isHasWantedEv = __main_start + 0x2273d8;
_ZN11LookControl10getWantedXEv = __main_start + 0x2273e0;
_ZN11LookControl10getWantedYEv = __main_start + 0x2273e8;
_ZN11LookControl10getWantedZEv = __main_start + 0x2273f0;
_ZN10MagmaBlock11getMapColorEPK10BlockStateP11LevelSourceRK8BlockPos = __main_start + 0x228ff4;
_ZN10MagmaBlock6stepOnEP5LevelRK8BlockPosSt10shared_ptrI6EntityE = __main_start + 0x229004;
_ZN10MagmaBlock13getLightColorEPK10BlockStateP11LevelSourceRK8BlockPosi = __main_start + 0x2290e4;
_ZN10MagmaBlock4tickEP5LevelRK8BlockPosPK10BlockStateP6Random = __main_start + 0x2290ec;
_ZN10MagmaBlock12isValidSpawnEPK10BlockStateSt10shared_ptrI6EntityE = __main_start + 0x2292c4;
_ZN9MagmaCube14addDataWalkersEP14DataFixerUpper = __main_start + 0x22930c;
_ZN3Mob18registerAttributesEv = __main_start + 0x22947c;
_ZN18MapExtendingRecipe10StaticCtorEv = __main_start + 0x22a91c;
_ZN19MapSelectInfoPacketC1Ev = __main_start + 0x22f148;
_ZN6PacketC2Ev = __main_start + 0x22f18c;
_ZN19MapSelectInfoPacketD2Ev = __main_start + 0x22f22c;
_ZN19MapSelectInfoPacketD0Ev = __main_start + 0x22f278;
_ZN19MapSelectInfoPacket4readEP15DataInputStream = __main_start + 0x22f29c;
_ZN19MapSelectInfoPacket5writeEP16DataOutputStream = __main_start + 0x22f338;
_ZN19MapSelectInfoPacket6handleEP14PacketListener = __main_start + 0x22f390;
_ZN19MapSelectInfoPacket16getEstimatedSizeEv = __main_start + 0x22f3f0;
_ZN8Material10staticCtorEv = __main_start + 0x22f3fc;
_ZN11GasMaterialC1EPK13MaterialColor = __main_start + 0x22fae8;
_ZN8Material11notPushableEv = __main_start + 0x22fb1c;
_ZN14LiquidMaterialC1EPK13MaterialColor = __main_start + 0x22fb28;
_ZN8Material13destroyOnPushEv = __main_start + 0x22fb60;
_ZN18DecorationMaterialC1EPK13MaterialColor = __main_start + 0x22fb6c;
_ZN8Material19makeDestroyedByHandEv = __main_start + 0x22fba0;
_ZN14PortalMaterialC1EPK13MaterialColor = __main_start + 0x22fbac;
_ZN11WebMaterialC1EPK13MaterialColor = __main_start + 0x22fbdc;
_ZN8MaterialC2EPK13MaterialColor = __main_start + 0x22fc0c;
_ZN8Material8isLiquidEv = __main_start + 0x22fc3c;
_ZN8Material16letsWaterThroughEv = __main_start + 0x22fc44;
_ZN8Material7isSolidEv = __main_start + 0x22fc90;
_ZN8Material11blocksLightEv = __main_start + 0x22fc98;
_ZN8Material12blocksMotionEv = __main_start + 0x22fca0;
_ZN8Material14neverBuildableEv = __main_start + 0x22fca8;
_ZN8Material20notAlwaysDestroyableEv = __main_start + 0x22fcb4;
_ZN8Material9flammableEv = __main_start + 0x22fcbc;
_ZN8Material11isFlammableEv = __main_start + 0x22fcc8;
_ZN8Material11replaceableEv = __main_start + 0x22fcd0;
_ZN8Material13isReplaceableEv = __main_start + 0x22fcdc;
_ZN8Material15isSolidBlockingEv = __main_start + 0x22fce4;
_ZN8Material19isAlwaysDestroyableEv = __main_start + 0x22fd00;
_ZN8Material15getPushReactionEv = __main_start + 0x22fd08;
_ZN8Material17isDestroyedByHandEv = __main_start + 0x22fd10;
_ZNK8Material8getColorEv = __main_start + 0x22fd18;
_ZN13MaterialColor10staticCtorEv = __main_start + 0x22fd20;
_ZN13MaterialColor23staticCtorAfterDyeColorEv = __main_start + 0x23049c;
_ZN13MaterialColorC1Ei16eMinecraftColour = __main_start + 0x230710;
_ZNK13MaterialColor17calculateRGBColorEi = __main_start + 0x230728;
_ZN13MaterialColor14getDyeMaterialEPK8DyeColor = __main_start + 0x2307b4;
_ZN15OldChunkStorage4saveEP10LevelChunkP5LevelP11CompoundTag = __main_start + 0x232aa4;
_ZN20McRegionChunkStorage10addWalkersEP14DataFixerUpper = __main_start + 0x2339e4;
_ZN20McRegionChunkStorage10staticCtorEv = __main_start + 0x233aa4;
_ZN26McRegionLevelStorageSourceC1E4FileP14DataFixerUpper = __main_start + 0x23436c;
_ZN19MegaPineTreeFeature10staticCtorEv = __main_start + 0x234e04;
_ZN10MelonBlock11getResourceEPK10BlockStateP6Randomi = __main_start + 0x23677c;
_ZN10MelonBlock16getResourceCountEP6Random = __main_start + 0x23678c;
_ZN10MelonBlock28getResourceCountForLootBonusEiP6Random = __main_start + 0x2367b0;
_ZN10MelonBlock10getTextureEPK9DirectionPK10BlockState = __main_start + 0x236808;
_ZN10MelonBlock13registerIconsEP12IconRegister = __main_start + 0x23683c;
_ZN9MesaBiome10staticCtorEv = __main_start + 0x2396b8;
_ZN9MesaBiomeC1EN5Biome9EBiomeIDsEbbPN5Biome15BiomePropertiesE = __main_start + 0x239938;
_ZN8Minecart10staticCtorEv = __main_start + 0x23a94c;
_ZN13MinecartChest14addDataWalkersEP14DataFixerUpper = __main_start + 0x23e428;
_ZN20MinecartCommandBlock10staticCtorEv = __main_start + 0x23e86c;
_ZN20MinecartCommandBlock14addDataWalkersEP14DataFixerUpper = __main_start + 0x23e8d4;
_ZN15MinecartFurnace10staticCtorEv = __main_start + 0x23f5d8;
_ZN15MinecartFurnace14addDataWalkersEP14DataFixerUpper = __main_start + 0x23f69c;
_ZN14MinecartHopper14addDataWalkersEP14DataFixerUpper = __main_start + 0x24032c;
_ZN16MinecartRideable14addDataWalkersEP14DataFixerUpper = __main_start + 0x241058;
_ZN15MinecartSpawner14addDataWalkersEP14DataFixerUpper = __main_start + 0x241420;
_ZN11MinecartTNT14addDataWalkersEP14DataFixerUpper = __main_start + 0x24162c;
MinecraftWorld_RunStaticCtors = __main_start + 0x241f58;
_ZN6Packet10staticCtorEv = __main_start + 0x242258;
_ZN9MobEffect10staticCtorEv = __main_start + 0x244c34;
_ZN10MobEffects10staticCtorEv = __main_start + 0x246450;
_ZN11MobCategory10staticCtorEv = __main_start + 0x246bd8;
_ZN20OceanMonumentFeature10staticCtorEv = __main_start + 0x246efc;
_ZN19OceanMonumentPieces18OceanMonumentPiece10staticCtorEv = __main_start + 0x24714c;
_ZN3Mob10staticCtorEv = __main_start + 0x24722c;
_ZN6Ocelot10staticCtorEv = __main_start + 0x247274;
_ZN6Parrot10staticCtorEv = __main_start + 0x2472e0;
_ZN3Mob4initEv = __main_start + 0x24c4bc;
_ZN3MobC1Ev = __main_start + 0x24c6b4;
_ZN3Mob4tickEv = __main_start + 0x24d18c;
_ZN3Mob6aiStepEv = __main_start + 0x24e948;
_ZN15MobSpawnerBlock11getResourceEPK10BlockStateP6Randomi = __main_start + 0x253454;
_ZN15MobSpawnerBlock16getResourceCountEP6Random = __main_start + 0x25345c;
_ZN15MobSpawnerBlock14spawnResourcesEP5LevelRK8BlockPosPK10BlockStatefi = __main_start + 0x253464;
_ZNK15MobSpawnerBlock13isSolidRenderEPK10BlockState = __main_start + 0x2534cc;
_ZN15MobSpawnerBlock14getRenderShapeEPK10BlockState = __main_start + 0x2534d4;
_ZN15MobSpawnerBlock14getRenderLayerEv = __main_start + 0x2534dc;
_ZN15MobSpawnerBlock20getCloneItemInstanceEP5LevelRK8BlockPosPK10BlockState = __main_start + 0x2534e4;
_ZN21MobSpawnerBlockEntity14addDataWalkersEP14DataFixerUpper = __main_start + 0x2536e4;
_ZN7MonsterC1Ev = __main_start + 0x255d44;
_ZN7Monster14getSoundSourceEv = __main_start + 0x255df8;
_ZN7Monster6aiStepEv = __main_start + 0x255e00;
_ZN7Monster4tickEv = __main_start + 0x255e54;
_ZN15MonsterEggBlock16getResourceCountEP6Random = __main_start + 0x2568c0;
_ZN15MonsterEggBlock24getSilkTouchItemInstanceEPK10BlockState = __main_start + 0x256954;
_ZN15MonsterEggBlock14spawnResourcesEP5LevelRK8BlockPosPK10BlockStatefi = __main_start + 0x256ab4;
_ZN15MonsterEggBlock20getCloneItemInstanceEP5LevelRK8BlockPosPK10BlockState = __main_start + 0x256cf8;
_ZN15MonsterEggBlock13getBlockStateEi = __main_start + 0x256d6c;
_ZN15MonsterEggBlock29convertBlockStateToLegacyDataEPK10BlockState = __main_start + 0x256dd4;
_ZN15MonsterEggBlock26createBlockStateDefinitionEv = __main_start + 0x256dfc;
_ZN15MonsterEggBlock10getTextureEPK9DirectionPK10BlockState = __main_start + 0x256e70;
_ZN15MonsterEggBlock13registerIconsEP12IconRegister = __main_start + 0x256ff4;
_ZN18MonsterRoomFeature5placeEP5LevelR6RandomRK8BlockPos = __main_start + 0x257248;
_ZN11MoveControlC1Ev = __main_start + 0x257b34;
_ZN21MoveEntityPacketSmallC1Ev = __main_start + 0x2581c4;
_ZN21MoveEntityPacketSmall4readEP15DataInputStream = __main_start + 0x258260;
_ZN21MoveEntityPacketSmall5writeEP16DataOutputStream = __main_start + 0x258294;
_ZN21MoveEntityPacketSmall6handleEP14PacketListener = __main_start + 0x2582d4;
_ZN21MoveEntityPacketSmall16getEstimatedSizeEv = __main_start + 0x258334;
_ZN21MoveEntityPacketSmall16canBeInvalidatedEv = __main_start + 0x25833c;
_ZN21MoveEntityPacketSmall15isInvalidatedByESt10shared_ptrI6PacketE = __main_start + 0x258344;
_ZN21MoveEntityPacketSmall6PosRotC1Ev = __main_start + 0x2583e4;
_ZN21MoveEntityPacketSmall6PosRot4readEP15DataInputStream = __main_start + 0x25849c;
_ZN21MoveEntityPacketSmall6PosRot5writeEP16DataOutputStream = __main_start + 0x25857c;
_ZN21MoveEntityPacketSmall6PosRot16getEstimatedSizeEv = __main_start + 0x25864c;
_ZN21MoveEntityPacketSmall3PosC1Ev = __main_start + 0x258654;
_ZN21MoveEntityPacketSmall3Pos4readEP15DataInputStream = __main_start + 0x2586e4;
_ZN21MoveEntityPacketSmall3Pos5writeEP16DataOutputStream = __main_start + 0x25877c;
_ZN21MoveEntityPacketSmall3Pos16getEstimatedSizeEv = __main_start + 0x258814;
_ZN21MoveEntityPacketSmall3RotC1Ev = __main_start + 0x25881c;
_ZN21MoveEntityPacketSmall3Rot4readEP15DataInputStream = __main_start + 0x2588ac;
_ZN21MoveEntityPacketSmall3Rot5writeEP16DataOutputStream = __main_start + 0x25892c;
_ZN21MoveEntityPacketSmall3Rot16getEstimatedSizeEv = __main_start + 0x2589ac;
_ZN3Mth17cached_atan_indexEii = __main_start + 0x25a290;
_ZN3Mth4initEv = __main_start + 0x25a34c;
_ZN3Mth6lfloorEd = __main_start + 0x25a568;
_ZN3Mth11clampedLerpEddd = __main_start + 0x25a5b0;
_ZN3Mth4fracEd = __main_start + 0x25a98c;
_ZN3Mth8hsvToRgbEfff = __main_start + 0x25aaf8;
_ZN4Mule14addDataWalkersEP14DataFixerUpper = __main_start + 0x25aca0;
_ZN13MushroomBlock8getShapeEPK10BlockStateP11LevelSourceRK8BlockPos = __main_start + 0x25b700;
_ZN13MushroomBlock4tickEP5LevelRK8BlockPosPK10BlockStateP6Random = __main_start + 0x25b710;
_ZN13MushroomBlock8mayPlaceEP5LevelRK8BlockPos = __main_start + 0x25b9c8;
_ZN13MushroomBlock18GetInteractTooltipERK22BlockTooltipDataHolder = __main_start + 0x25bd08;
_ZN11MushroomCow14addDataWalkersEP14DataFixerUpper = __main_start + 0x25bde4;
_ZN19MushroomIslandBiomeC1EN5Biome9EBiomeIDsEPN5Biome15BiomePropertiesE = __main_start + 0x25c620;
_ZN18MutatedForestBiomeC1EN5Biome9EBiomeIDsEPN5Biome15BiomePropertiesE = __main_start + 0x25cd10;
_ZN19MutatedSavannaBiomeC1EN5Biome9EBiomeIDsEPN5Biome15BiomePropertiesE = __main_start + 0x25cda4;
_ZN13MyceliumBlock31fillVirtualBlockStatePropertiesEPK10BlockStateP11LevelSourceRK8BlockPos = __main_start + 0x25cfd0;
_ZN13MyceliumBlock4tickEP5LevelRK8BlockPosPK10BlockStateP6Random = __main_start + 0x25d070;
_ZN13MyceliumBlock11animateTickEPK10BlockStateP5LevelRK8BlockPosP6Random = __main_start + 0x25d2d4;
_ZN13MyceliumBlock11getResourceEPK10BlockStateP6Randomi = __main_start + 0x25d3bc;
_ZN13MyceliumBlock29convertBlockStateToLegacyDataEPK10BlockState = __main_start + 0x25d434;
_ZN13MyceliumBlock26createBlockStateDefinitionEv = __main_start + 0x25d43c;
_ZN13MyceliumBlock10getTextureEPK9DirectionPK10BlockState = __main_start + 0x25d4b0;
_ZN13MyceliumBlock10getTextureEP11LevelSourceRK8BlockPosPK9DirectionPK10BlockState = __main_start + 0x25d500;
_ZN13MyceliumBlock13registerIconsEP12IconRegister = __main_start + 0x25d5f0;
_ZN5NbtIo15writeCompressedEP11CompoundTagP12OutputStream = __main_start + 0x25f778;
_ZN16NetherBrickBlock11getMapColorEPK10BlockStateP11LevelSourceRK8BlockPos = __main_start + 0x260090;
_ZN19NetherBridgeFeatureC1Ev = __main_start + 0x2600a0;
_ZN15NetherDimension15updateLightRampEv = __main_start + 0x26a3d0;
_ZN15NetherDimension11getFogColorEff = __main_start + 0x26a418;
_ZN15NetherDimension4initEv = __main_start + 0x26a430;
_ZNK15NetherDimension26createRandomLevelGeneratorEv = __main_start + 0x26a48c;
_ZN15NetherDimension18isNaturalDimensionEv = __main_start + 0x26a558;
_ZNK15NetherDimension12isValidSpawnEii = __main_start + 0x26a560;
m_ZNK15NetherDimension12getTimeOfDayExf = __main_start + 0x26a568;
_ZNK15NetherDimension10mayRespawnEv = __main_start + 0x26a570;
_ZN15NetherDimension9isFoggyAtEii = __main_start + 0x26a578;
_ZN15NetherDimension17createWorldBorderEP5Level = __main_start + 0x26a580;
_ZNK15NetherDimension7getTypeEv = __main_start + 0x26a5b4;
_ZN15NetherDimension9getXZSizeEv = __main_start + 0x26a62c;
_ZN15NetherDimension20getPlayerConstraintsERK8BlockPos = __main_start + 0x26a68c;
_ZN15NetherDimension19getBlockLightColourEv = __main_start + 0x26a6ac;
_ZN21NetherFlatLevelSourceC1EP5Levelbx = __main_start + 0x26a6c8;
_ZN21NetherFlatLevelSourceD1Ev = __main_start + 0x26a790;
_ZN21NetherFlatLevelSourceD0Ev = __main_start + 0x26a7d8;
_ZN21NetherFlatLevelSource14prepareHeightsEiiP11ChunkPrimer = __main_start + 0x26a7fc;
_ZN21NetherFlatLevelSource13buildSurfacesEiiP11ChunkPrimer = __main_start + 0x26a8a4;
_ZN21NetherFlatLevelSource11createChunkEii = __main_start + 0x26ab1c;
_ZN21NetherFlatLevelSource10lightChunkEP10LevelChunk = __main_start + 0x26ac60;
_ZN21NetherFlatLevelSource11postProcessEii = __main_start + 0x26ac70;
_ZN15HellFireFeatureC1Ev = __main_start + 0x26aecc;
_ZN15LightGemFeatureC1Ev = __main_start + 0x26af00;
_ZN21NetherFlatLevelSource9getMobsAtEP11MobCategoryRK8BlockPos = __main_start + 0x26af34;
_ZN21NetherFlatLevelSource22postProcessLoadedChunkEP10LevelChunkii = __main_start + 0x26af78;
_ZN21NetherFlatLevelSource21findNearestMapFeatureEP5LevelRKNSt3__112basic_stringIwNS2_11char_traitsIwEENS2_9allocatorIwEEEERK8BlockPosb = __main_start + 0x26af80;
_ZN21NetherFlatLevelSource14isPosInFeatureEP5LevelRKNSt3__112basic_stringIwNS2_11char_traitsIwEENS2_9allocatorIwEEEERK8BlockPos = __main_start + 0x26af88;
_ZN21NetherFlatLevelSource31recreateLogicStructuresForChunkEP10LevelChunkii = __main_start + 0x26af90;
_ZN17NetherLevelSourceC1EP5Levelbx = __main_start + 0x26af98;
_ZN17HellPortalFeatureC2Ev = __main_start + 0x26b2d0;
_ZN20LargeHellCaveFeatureC1Ev = __main_start + 0x26b304;
_ZN17NetherLevelSourceD1Ev = __main_start + 0x26b334;
_ZN17NetherLevelSourceD0Ev = __main_start + 0x26b4cc;
_ZN17NetherLevelSource14prepareHeightsEiiP11ChunkPrimer = __main_start + 0x26b4f0;
_ZN17NetherLevelSource13buildSurfacesEiiP11ChunkPrimer = __main_start + 0x26b9e8;
_ZN17NetherLevelSource11createChunkEii = __main_start + 0x26c170;
_ZN17NetherLevelSource10lightChunkEP10LevelChunk = __main_start + 0x26c310;
_ZN17NetherLevelSource11postProcessEii = __main_start + 0x26c7a8;
_ZN17NetherLevelSource22postProcessLoadedChunkEP10LevelChunkii = __main_start + 0x26cf58;
_ZN17NetherLevelSource9getMobsAtEP11MobCategoryRK8BlockPos = __main_start + 0x26cf60;
_ZN17NetherLevelSource21findNearestMapFeatureEP5LevelRKNSt3__112basic_stringIwNS2_11char_traitsIwEENS2_9allocatorIwEEEERK8BlockPosb = __main_start + 0x26d070;
_ZN17NetherLevelSource14isPosInFeatureEP5LevelRKNSt3__112basic_stringIwNS2_11char_traitsIwEENS2_9allocatorIwEEEERK8BlockPos = __main_start + 0x26d138;
_ZN17NetherLevelSource31recreateLogicStructuresForChunkEP10LevelChunkii = __main_start + 0x26d1f8;
_ZN15NetherrackBlock11getMapColorEPK10BlockStateP11LevelSourceRK8BlockPos = __main_start + 0x26d254;
_ZN15NetherWartBlock8getShapeEPK10BlockStateP11LevelSourceRK8BlockPos = __main_start + 0x26d2ec;
_ZN15NetherWartBlock4tickEP5LevelRK8BlockPosPK10BlockStateP6Random = __main_start + 0x26d3c0;
_ZN15NetherWartBlock14spawnResourcesEP5LevelRK8BlockPosPK10BlockStatefi = __main_start + 0x26d47c;
_ZN15NetherWartBlock11getResourceEPK10BlockStateP6Randomi = __main_start + 0x26d55c;
_ZN15NetherWartBlock16getResourceCountEP6Random = __main_start + 0x26d56c;
_ZN15NetherWartBlock20getCloneItemInstanceEP5LevelRK8BlockPosPK10BlockState = __main_start + 0x26d574;
_ZN15NetherWartBlock13getBlockStateEi = __main_start + 0x26d5b4;
_ZN15NetherWartBlock29convertBlockStateToLegacyDataEPK10BlockState = __main_start + 0x26d5e4;
_ZN15NetherWartBlock26createBlockStateDefinitionEv = __main_start + 0x26d5fc;
_ZN15NetherWartBlock10getTextureEPK9DirectionPK10BlockState = __main_start + 0x26d670;
_ZN15NetherWartBlock13registerIconsEP12IconRegister = __main_start + 0x26d6d8;
_ZN15NetherWartBlock14getRenderShapeEPK10BlockState = __main_start + 0x26d974;
_ZN12NewLeafBlock25getSpawnResourcesAuxValueEPK10BlockState = __main_start + 0x26de24;
_ZN12NewLeafBlock20getCloneItemInstanceEP5LevelRK8BlockPosPK10BlockState = __main_start + 0x26de4c;
_ZN12NewLeafBlock24getSilkTouchItemInstanceEPK10BlockState = __main_start + 0x26dec0;
_ZN12NewLeafBlock13getBlockStateEi = __main_start + 0x26df38;
_ZN12NewLeafBlock29convertBlockStateToLegacyDataEPK10BlockState = __main_start + 0x26dfc0;
_ZN12NewLeafBlock26createBlockStateDefinitionEv = __main_start + 0x26e044;
_ZN12NewLeafBlock13playerDestroyEP5LevelSt10shared_ptrI6PlayerERK8BlockPosPK10BlockStateSt10shared_ptrI11BlockEntityE12not_null_ptrI12ItemInstanceE = __main_start + 0x26e0d4;
_ZN11NewLogBlock11getMapColorEPK10BlockStateP11LevelSourceRK8BlockPos = __main_start + 0x26e3a8;
_ZN11NewLogBlock13getBlockStateEi = __main_start + 0x26e438;
_ZN11NewLogBlock29convertBlockStateToLegacyDataEPK10BlockState = __main_start + 0x26e4d4;
_ZN11NewLogBlock26createBlockStateDefinitionEv = __main_start + 0x26e548;
_ZN11NewLogBlock24getSilkTouchItemInstanceEPK10BlockState = __main_start + 0x26e5c8;
_ZN11NewLogBlock25getSpawnResourcesAuxValueEPK10BlockState = __main_start + 0x26e640;
_ZN17NewStoneSlabBlock11DerivedInitEv = __main_start + 0x26eac0;
_ZN17NewStoneSlabBlock7getNameEv = __main_start + 0x26ebfc;
_ZN17NewStoneSlabBlock11getResourceEPK10BlockStateP6Randomi = __main_start + 0x26ec40;
_ZN17NewStoneSlabBlock20getCloneItemInstanceEP5LevelRK8BlockPosPK10BlockState = __main_start + 0x26ec50;
_ZN17NewStoneSlabBlock13getBlockStateEi = __main_start + 0x26ed48;
_ZN17NewStoneSlabBlock29convertBlockStateToLegacyDataEPK10BlockState = __main_start + 0x26ee04;
_ZN17NewStoneSlabBlock26createBlockStateDefinitionEv = __main_start + 0x26eed4;
_ZN17NewStoneSlabBlock11getMapColorEPK10BlockStateP11LevelSourceRK8BlockPos = __main_start + 0x26efb4;
_ZN17NewStoneSlabBlock25getSpawnResourcesAuxValueEPK10BlockState = __main_start + 0x26efdc;
_ZN17NewStoneSlabBlock10getTextureEPK9DirectionPK10BlockState = __main_start + 0x26f004;
_ZN17NewStoneSlabBlock13registerIconsEP12IconRegister = __main_start + 0x26f038;
_ZNK15NormalDimension7getTypeEv = __main_start + 0x26f9e4;
_ZN15NormalDimension14canUnloadChunkEii = __main_start + 0x26f9f4;
_ZN9NoteBlock15neighborChangedEPK10BlockStateP5LevelRK8BlockPosP5BlockRK8BlockPos = __main_start + 0x26fa94;
_ZN9NoteBlock7TestUseEv = __main_start + 0x26fb70;
_ZN9NoteBlock3useEP5LevelRK8BlockPosPK10BlockStateSt10shared_ptrI6PlayerEN15InteractionHand16EInteractionHandEPK9Directionfffb = __main_start + 0x26fb78;
_ZN9NoteBlock6attackEP5LevelRK8BlockPosSt10shared_ptrI6PlayerE = __main_start + 0x26fc60;
_ZN9NoteBlock18GetInteractTooltipERK22BlockTooltipDataHolder = __main_start + 0x26fda0;
_ZN9NoteBlock13GetHitTooltipERK22BlockTooltipDataHolder = __main_start + 0x26fdc8;
_ZN9NoteBlock12triggerEventEPK10BlockStateP5LevelRK8BlockPosii = __main_start + 0x26fe68;
_ZN9NoteBlock14getRenderShapeEPK10BlockState = __main_start + 0x26ffa0;
_ZN13ObserverBlock26createBlockStateDefinitionEv = __main_start + 0x27017c;
_ZN13ObserverBlock6rotateEPK10BlockStateP8Rotation = __main_start + 0x2701fc;
_ZN13ObserverBlock6mirrorEPK10BlockStateP6Mirror = __main_start + 0x270254;
_ZN13ObserverBlock4tickEP5LevelRK8BlockPosPK10BlockStateP6Random = __main_start + 0x2702b4;
_ZN13ObserverBlock15neighborChangedEPK10BlockStateP5LevelRK8BlockPosP5BlockRK8BlockPos = __main_start + 0x270414;
_ZN13ObserverBlock14isSignalSourceEPK10BlockState = __main_start + 0x2704a4;
_ZN13ObserverBlock15getDirectSignalEPK10BlockStateP11LevelSourceRK8BlockPosPK9Direction = __main_start + 0x2704ac;
_ZN13ObserverBlock9getSignalEPK10BlockStateP11LevelSourceRK8BlockPosPK9Direction = __main_start + 0x2704c8;
_ZN13ObserverBlock7onPlaceEP5LevelRK8BlockPosPK10BlockState = __main_start + 0x270534;
_ZN13ObserverBlock8onRemoveEP5LevelRK8BlockPosPK10BlockState = __main_start + 0x2705c4;
_ZN13ObserverBlock14getRenderShapeEPK10BlockState = __main_start + 0x270664;
_ZN13ObserverBlock20getStateForPlacementEP5LevelRK8BlockPosPK9DirectionfffiSt10shared_ptrI12LivingEntityE = __main_start + 0x27066c;
_ZN13ObserverBlock29convertBlockStateToLegacyDataEPK10BlockState = __main_start + 0x2706c4;
_ZN13ObserverBlock13getBlockStateEi = __main_start + 0x27071c;
_ZN13ObserverBlock10getTextureEPK9DirectionPK10BlockState = __main_start + 0x27077c;
_ZN13ObserverBlock13registerIconsEP12IconRegister = __main_start + 0x27087c;
_ZN13ObserverBlock7TestUseEv = __main_start + 0x270a14;
_ZN13ObsidianBlock11getResourceEPK10BlockStateP6Randomi = __main_start + 0x270a5c;
_ZN13ObsidianBlock11getMapColorEPK10BlockStateP11LevelSourceRK8BlockPos = __main_start + 0x270a6c;
_ZN10OceanBiomeC1EN5Biome9EBiomeIDsEPN5Biome15BiomePropertiesE = __main_start + 0x270a7c;
_ZN6Ocelot14addDataWalkersEP14DataFixerUpper = __main_start + 0x2816ec;
_ZN15OldChunkStorage22CreateNewThreadStorageEv = __main_start + 0x283838;
_ZN15OldChunkStorageC1E4Fileb = __main_start + 0x2838b4;
_ZN15OldChunkStorage7getFileEii = __main_start + 0x283934;
._ZN4FileaSERKS_ = __main_start + 0x283b1c;
_ZN15OldChunkStorage4loadEP5LeveliiP10LevelChunk = __main_start + 0x283bcc;
_ZN15OldChunkStorage4saveEP5LevelP10LevelChunk = __main_start + 0x283ef0;
_ZN15OldChunkStorage4tickEv = __main_start + 0x284758;
_ZN15OldChunkStorage5flushEv = __main_start + 0x28475c;
_ZN15OldChunkStorage12saveEntitiesEP5LevelP10LevelChunk = __main_start + 0x284760;
_ZN12OldLeafBlock8getColorEPK10BlockState = __main_start + 0x2849f4;
_ZN12OldLeafBlock8getColorEP11LevelSourceRK8BlockPosi = __main_start + 0x284a80;
_ZN12OldLeafBlock24getSilkTouchItemInstanceEPK10BlockState = __main_start + 0x284c38;
_ZN12OldLeafBlock13getBlockStateEi = __main_start + 0x284cb0;
_ZN12OldLeafBlock29convertBlockStateToLegacyDataEPK10BlockState = __main_start + 0x284d38;
_ZN12OldLeafBlock26createBlockStateDefinitionEv = __main_start + 0x284db8;
_ZN12OldLeafBlock25getSpawnResourcesAuxValueEPK10BlockState = __main_start + 0x284e48;
_ZN12OldLeafBlock13playerDestroyEP5LevelSt10shared_ptrI6PlayerERK8BlockPosPK10BlockStateSt10shared_ptrI11BlockEntityE12not_null_ptrI12ItemInstanceE = __main_start + 0x284e70;
_ZN11OldLogBlock11getMapColorEPK10BlockStateP11LevelSourceRK8BlockPos = __main_start + 0x285144;
_ZN11OldLogBlock13getBlockStateEi = __main_start + 0x2851ec;
_ZN11OldLogBlock29convertBlockStateToLegacyDataEPK10BlockState = __main_start + 0x285284;
_ZN11OldLogBlock26createBlockStateDefinitionEv = __main_start + 0x2852f8;
_ZN11OldLogBlock24getSilkTouchItemInstanceEPK10BlockState = __main_start + 0x285378;
_ZN11OldLogBlock25getSpawnResourcesAuxValueEPK10BlockState = __main_start + 0x2853f0;
_ZN8OreBlock11getResourceEPK10BlockStateP6Randomi = __main_start + 0x2855a0;
_ZN8OreBlock16getResourceCountEP6Random = __main_start + 0x285658;
_ZN8OreBlock28getResourceCountForLootBonusEiP6Random = __main_start + 0x285698;
_ZN8OreBlock14spawnResourcesEP5LevelRK8BlockPosPK10BlockStatefi = __main_start + 0x285770;
_ZN8OreBlock20getCloneItemInstanceEP5LevelRK8BlockPosPK10BlockState = __main_start + 0x2858a8;
_ZN8OreBlock25getSpawnResourcesAuxValueEPK10BlockState = __main_start + 0x2858ec;
_ZN10OreFeatureC1EPK10BlockStatei = __main_start + 0x2859a8;
_ZN10OreFeatureC1EPK10BlockStateiPK9PredicateIRKN5Biome9BlockPairEE = __main_start + 0x285a58;
_ZN10OreFeature5placeEP5LevelR6RandomRK8BlockPos = __main_start + 0x285ac0;
_ZN20OverworldLevelSourceC1EP5LevelxbP15SuperflatConfig = __main_start + 0x286c88;
_ZN20OverworldLevelSourceD1Ev = __main_start + 0x2870fc;
_ZN20OverworldLevelSourceD0Ev = __main_start + 0x2872a0;
_ZN20OverworldLevelSource16getHeightFalloffEiiPi = __main_start + 0x287454;
_ZN20OverworldLevelSource14prepareHeightsEiiP11ChunkPrimer = __main_start + 0x287578;
_ZN20OverworldLevelSource10getHeightsEiiiR15arrayWithLengthIP5BiomeERS0_IdE = __main_start + 0x287aa4;
vtbl_710108D4E0_func_0 = __main_start + 0x288098;
_ZN20OverworldLevelSource13buildSurfacesEiiP11ChunkPrimer15arrayWithLengthIP5BiomeE = __main_start + 0x2880a0;
_ZN20OverworldLevelSource11createChunkEii = __main_start + 0x28825c;
_ZN20OverworldLevelSource10lightChunkEP10LevelChunk = __main_start + 0x288678;
_ZN20OverworldLevelSource11postProcessEii = __main_start + 0x288688;
_ZN20OverworldLevelSource22postProcessLoadedChunkEP10LevelChunkii = __main_start + 0x288d34;
_ZN20OverworldLevelSource9getMobsAtEP11MobCategoryRK8BlockPos = __main_start + 0x288d3c;
_ZN20OverworldLevelSource14isPosInFeatureEP5LevelRKNSt3__112basic_stringIwNS2_11char_traitsIwEENS2_9allocatorIwEEEERK8BlockPos = __main_start + 0x288e24;
_ZN20OverworldLevelSource21findNearestMapFeatureEP5LevelRKNSt3__112basic_stringIwNS2_11char_traitsIwEENS2_9allocatorIwEEEERK8BlockPosb = __main_start + 0x289118;
_ZN20OverworldLevelSource31recreateLogicStructuresForChunkEP10LevelChunkii = __main_start + 0x28941c;
_ZN14PackedIceBlock16getResourceCountEP6Random = __main_start + 0x289cac;
Packet__map = __main_start + 0x289cb4;
_ZN26ClientboundKeepAlivePacket6createEv = __main_start + 0x28a4d0;
_ZN22ClientboundLoginPacket6createEv = __main_start + 0x28a508;
_ZN21ClientboundChatPacket6createEv = __main_start + 0x28a540;
_ZN24ClientboundSetTimePacket6createEv = __main_start + 0x28a578;
_ZN32ClientboundSetEquippedItemPacket6createEv = __main_start + 0x28a5b0;
_ZN33ClientboundSetSpawnPositionPacket6createEv = __main_start + 0x28a5e8;
_ZN25ServerboundInteractPacket6createEv = __main_start + 0x28a620;
_ZN26ClientboundSetHealthPacket6createEv = __main_start + 0x28a658;
_ZN24ClientboundRespawnPacket6createEv = __main_start + 0x28a690;
_ZN27ServerboundMovePlayerPacket6createEv = __main_start + 0x28a6c8;
_ZN27ServerboundMovePlayerPacket3Pos6createEv = __main_start + 0x28a700;
_ZN27ServerboundMovePlayerPacket3Rot6createEv = __main_start + 0x28a738;
_ZN27ServerboundMovePlayerPacket6PosRot6createEv = __main_start + 0x28a770;
_ZN29ServerboundPlayerActionPacket6createEv = __main_start + 0x28a7a8;
_ZN24ServerboundUseItemPacket6createEv = __main_start + 0x28a7e0;
_ZN31ClientboundSetCarriedItemPacket6createEv = __main_start + 0x28a818;
_ZN28ClientboundPlayerSleepPacket6createEv = __main_start + 0x28a850;
_ZN24ClientboundAnimatePacket6createEv = __main_start + 0x28a888;
_ZN30ServerboundPlayerCommandPacket6createEv = __main_start + 0x28a8c0;
_ZN26ClientboundAddPlayerPacket6createEv = __main_start + 0x28a8f8;
_ZN31ClientboundTakeItemEntityPacket6createEv = __main_start + 0x28a930;
_ZN26ClientboundAddEntityPacket6createEv = __main_start + 0x28a968;
_ZN23ClientboundAddMobPacket6createEv = __main_start + 0x28a9a0;
_ZN28ClientboundAddPaintingPacket6createEv = __main_start + 0x28a9d8;
_ZN33ClientboundAddExperienceOrbPacket6createEv = __main_start + 0x28aa10;
_ZN28ServerboundPlayerInputPacket6createEv = __main_start + 0x28aa48;
_ZN32ClientboundSetEntityMotionPacket6createEv = __main_start + 0x28aa80;
_ZN31ClientboundRemoveEntitiesPacket6createEv = __main_start + 0x28aab8;
_ZN27ClientboundMoveEntityPacket6createEv = __main_start + 0x28aaf0;
_ZN27ClientboundMoveEntityPacket3Pos6createEv = __main_start + 0x28ab28;
_ZN27ClientboundMoveEntityPacket3Rot6createEv = __main_start + 0x28ab60;
_ZN27ClientboundMoveEntityPacket6PosRot6createEv = __main_start + 0x28ab98;
_ZN31ClientboundTeleportEntityPacket6createEv = __main_start + 0x28abd0;
_ZN27ClientboundRotateHeadPacket6createEv = __main_start + 0x28ac08;
_ZN28ClientboundEntityEventPacket6createEv = __main_start + 0x28ac40;
_ZN30ClientboundSetEntityLinkPacket6createEv = __main_start + 0x28ac78;
_ZN30ClientboundSetEntityDataPacket6createEv = __main_start + 0x28acb0;
_ZN32ClientboundUpdateMobEffectPacket6createEv = __main_start + 0x28ace8;
_ZN32ClientboundRemoveMobEffectPacket6createEv = __main_start + 0x28ad20;
_ZN30ClientboundSetExperiencePacket6createEv = __main_start + 0x28ad58;
_ZN33ClientboundUpdateAttributesPacket6createEv = __main_start + 0x28ad90;
_ZN21ChunkVisibilityPacket6createEv = __main_start + 0x28adc8;
_ZN23BlockRegionUpdatePacket6createEv = __main_start + 0x28ae00;
_ZN34ClientboundChunkBlocksUpdatePacket6createEv = __main_start + 0x28ae38;
_ZN28ClientboundBlockUpdatePacket6createEv = __main_start + 0x28ae70;
_ZN27ClientboundBlockEventPacket6createEv = __main_start + 0x28aea8;
_ZN33ClientboundBlockDestructionPacket6createEv = __main_start + 0x28aee0;
_ZN24ClientboundExplodePacket6createEv = __main_start + 0x28af18;
_ZN27ClientboundLevelEventPacket6createEv = __main_start + 0x28af50;
_ZN22ClientboundSoundPacket6createEv = __main_start + 0x28af88;
_ZN31ClientboundLevelParticlesPacket6createEv = __main_start + 0x28afc0;
_ZN26ClientboundGameEventPacket6createEv = __main_start + 0x28aff8;
_ZN32ClientboundAddGlobalEntityPacket6createEv = __main_start + 0x28b030;
_ZN30ClientboundContainerOpenPacket6createEv = __main_start + 0x28b068;
_ZN31ClientboundContainerClosePacket6createEv = __main_start + 0x28b0a0;
_ZN31ServerboundContainerClickPacket6createEv = __main_start + 0x28b0d8;
_ZN33ClientboundContainerSetSlotPacket6createEv = __main_start + 0x28b110;
_ZN36ClientboundContainerSetContentPacket6createEv = __main_start + 0x28b148;
_ZN33ClientboundContainerSetDataPacket6createEv = __main_start + 0x28b180;
_ZN29ClientboundContainerAckPacket6createEv = __main_start + 0x28b1b8;
_ZN36ServerboundSetCreativeModeSlotPacket6createEv = __main_start + 0x28b1f0;
_ZN37ServerboundContainerButtonClickPacket6createEv = __main_start + 0x28b228;
_ZN32ClientboundBlockEntityDataPacket6createEv = __main_start + 0x28b260;
_ZN28ClientboundMoveVehiclePacket6createEv = __main_start + 0x28b298;
_ZN30ClientboundSetPassengersPacket6createEv = __main_start + 0x28b2d0;
_ZN36ServerboundAcceptTeleportationPacket6createEv = __main_start + 0x28b308;
_ZN28ServerboundMoveVehiclePacket6createEv = __main_start + 0x28b340;
_ZN26ServerboundUseItemOnPacket6createEv = __main_start + 0x28b378;
_ZN27ServerboundPaddleBoatPacket6createEv = __main_start + 0x28b3b0;
_ZN26ClientboundBossEventPacket6createEv = __main_start + 0x28b3e8;
_ZN15CraftItemPacket6createEv = __main_start + 0x28b420;
_ZN15TradeItemPacket6createEv = __main_start + 0x28b458;
_ZN18DebugOptionsPacket6createEv = __main_start + 0x28b490;
_ZN27ServerSettingsChangedPacket6createEv = __main_start + 0x28b4c8;
_ZN13TexturePacket6createEv = __main_start + 0x28b500;
_ZN25ChunkVisibilityAreaPacket6createEv = __main_start + 0x28b538;
_ZN20UpdateProgressPacket6createEv = __main_start + 0x28b570;
_ZN19TextureChangePacket6createEv = __main_start + 0x28b5a8;
_ZN28UpdateGameRuleProgressPacket6createEv = __main_start + 0x28b5e0;
_ZN16KickPlayerPacket6createEv = __main_start + 0x28b618;
_ZN24TextureAndGeometryPacket6createEv = __main_start + 0x28b650;
_ZN30TextureAndGeometryChangePacket6createEv = __main_start + 0x28b688;
_ZN21MoveEntityPacketSmall6createEv = __main_start + 0x28b6c0;
_ZN21MoveEntityPacketSmall3Pos6createEv = __main_start + 0x28b6f8;
_ZN21MoveEntityPacketSmall3Rot6createEv = __main_start + 0x28b730;
_ZN21MoveEntityPacketSmall6PosRot6createEv = __main_start + 0x28b768;
_ZN8XZPacket6createEv = __main_start + 0x28b7a0;
_ZN17GameCommandPacket6createEv = __main_start + 0x28b7d8;
_ZN19MapSelectInfoPacket6createEv = __main_start + 0x28b810;
_ZN10VotePacket6createEv = __main_start + 0x28b848;
_ZN17PlayerReadyPacket6createEv = __main_start + 0x28b880;
_ZN24ClientboundPowerupPacket6createEv = __main_start + 0x28b8b8;
_ZN26ClientboundAwardStatPacket6createEv = __main_start + 0x28b8f0;
_ZN16PlayerInfoPacket6createEv = __main_start + 0x28b928;
_ZN32ClientboundPlayerAbilitiesPacket6createEv = __main_start + 0x28b960;
_ZN30ServerboundClientCommandPacket6createEv = __main_start + 0x28b998;
_ZN16ScoreboardPacket6createEv = __main_start + 0x28b9d0;
_ZN30ClientboundSetPlayerTeamPacket6createEv = __main_start + 0x28ba08;
_ZN14GameModePacket6createEv = __main_start + 0x28ba40;
_ZN28ClientboundMapItemDataPacket6createEv = __main_start + 0x28ba78;
_ZN31ClientboundOpenSignEditorPacket6createEv = __main_start + 0x28bab0;
_ZN29ClientboundPlayerCombatPacket6createEv = __main_start + 0x28bae8;
_ZN31ClientboundPlayerPositionPacket6createEv = __main_start + 0x28bb20;
_ZN29ClientboundResourcePackPacket6createEv = __main_start + 0x28bb58;
_ZN26ClientboundSetBorderPacket6createEv = __main_start + 0x28bb90;
_ZN26ClientboundSetCameraPacket6createEv = __main_start + 0x28bbc8;
_ZN26ClientboundSetTitlesPacket6createEv = __main_start + 0x28bc00;
_ZN24ClientboundTabListPacket6createEv = __main_start + 0x28bc38;
_ZN33ServerboundChatAutoCompletePacket6createEv = __main_start + 0x28bc70;
_ZN21ServerboundChatPacket6createEv = __main_start + 0x28bca8;
_ZN29ServerboundContainerAckPacket6createEv = __main_start + 0x28bce0;
_ZN31ServerboundContainerClosePacket6createEv = __main_start + 0x28bd18;
_ZN30ServerboundCustomPayloadPacket6createEv = __main_start + 0x28bd50;
_ZN26ServerboundKeepAlivePacket6createEv = __main_start + 0x28bd88;
_ZN32ServerboundPlayerAbilitiesPacket6createEv = __main_start + 0x28bdc0;
_ZN29ServerboundResourcePackPacket6createEv = __main_start + 0x28bdf8;
_ZN31ServerboundSetCarriedItemPacket6createEv = __main_start + 0x28be30;
_ZN27ServerboundSignUpdatePacket6createEv = __main_start + 0x28be68;
_ZN33ServerboundTeleportToEntityPacket6createEv = __main_start + 0x28bea0;
_ZN25ServerboundPreLoginPacket6createEv = __main_start + 0x28bed8;
_ZN22ServerboundSwingPacket6createEv = __main_start + 0x28bf10;
_ZN32ClientboundDamageIndicatorPacket6createEv = __main_start + 0x28bf48;
_ZN43ClientboundBlockCollectionDestructionPacket6createEv = __main_start + 0x28bf80;
_ZN25ClientboundCooldownPacket6createEv = __main_start + 0x28bfb8;
_ZN39ClientboundMGPlayerSettingsUpdatePacket6createEv = __main_start + 0x28bff0;
_ZN30ClientboundCustomPayloadPacket6createEv = __main_start + 0x28c028;
_ZN33ClientboundChangeDifficultyPacket6createEv = __main_start + 0x28c060;
_ZN13GetInfoPacket6createEv = __main_start + 0x28c098;
_ZN16DisconnectPacket6createEv = __main_start + 0x28c0dc;
_ZN6Packet6handleEP14PacketListener = __main_start + 0x28c384;
_ZN6Packet16canBeInvalidatedEv = __main_start + 0x28c76c;
_ZN6Packet15isInvalidatedByENSt3__110shared_ptrIS_EE = __main_start + 0x28c774;
_ZN6Packet6isAyncEv = __main_start + 0x28c77c;
_ZN6Packet16getEstimatedSizeEv = __main_start + 0x28c784;
_ZN6Packet25tryReplaceDuplicatePacketEPNSt3__15dequeINS0_10shared_ptrIS_EENS0_9allocatorIS3_EEEE = __main_start + 0x28c78c;
_ZN14PacketListener23handleBlockRegionUpdateESt10shared_ptrI23BlockRegionUpdatePacketE = __main_start + 0x28c794;
_ZN14PacketListener17onUnhandledPacketESt10shared_ptrI6PacketE = __main_start + 0x28c798;
_ZN14PacketListener12onDisconnectEN16DisconnectPacket17eDisconnectReasonEPv = __main_start + 0x28c79c;
_ZN14PacketListener16handleDisconnectESt10shared_ptrI16DisconnectPacketE = __main_start + 0x28c7a0;
_ZN14PacketListener11handleLoginESt10shared_ptrI22ClientboundLoginPacketE = __main_start + 0x28c7f8;
_ZN14PacketListener16handleMovePlayerESt10shared_ptrI27ServerboundMovePlayerPacketE = __main_start + 0x28c850;
_ZN14PacketListener23handleChunkBlocksUpdateESt10shared_ptrI34ClientboundChunkBlocksUpdatePacketE = __main_start + 0x28c8a8;
_ZN14PacketListener18handlePlayerActionESt10shared_ptrI29ServerboundPlayerActionPacketE = __main_start + 0x28c900;
_ZN14PacketListener17handleBlockUpdateESt10shared_ptrI28ClientboundBlockUpdatePacketE = __main_start + 0x28c958;
_ZN14PacketListener21handleChunkVisibilityESt10shared_ptrI21ChunkVisibilityPacketE = __main_start + 0x28c9b0;
_ZN14PacketListener15handleAddPlayerESt10shared_ptrI26ClientboundAddPlayerPacketE = __main_start + 0x28ca08;
_ZN14PacketListener16handleMoveEntityESt10shared_ptrI27ClientboundMoveEntityPacketE = __main_start + 0x28ca60;
_ZN14PacketListener21handleMoveEntitySmallESt10shared_ptrI21MoveEntityPacketSmallE = __main_start + 0x28cab8;
_ZN14PacketListener20handleTeleportEntityESt10shared_ptrI31ClientboundTeleportEntityPacketE = __main_start + 0x28cb10;
_ZN14PacketListener13handleUseItemESt10shared_ptrI24ServerboundUseItemPacketE = __main_start + 0x28cb68;
_ZN14PacketListener20handleSetCarriedItemESt10shared_ptrI31ClientboundSetCarriedItemPacketE = __main_start + 0x28cbc0;
_ZN14PacketListener18handleRemoveEntityESt10shared_ptrI31ClientboundRemoveEntitiesPacketE = __main_start + 0x28cc18;
_ZN14PacketListener20handleTakeItemEntityESt10shared_ptrI31ClientboundTakeItemEntityPacketE = __main_start + 0x28cc70;
_ZN14PacketListener10handleChatESt10shared_ptrI21ClientboundChatPacketE = __main_start + 0x28ccc8;
_ZN14PacketListener15handleAddEntityESt10shared_ptrI26ClientboundAddEntityPacketE = __main_start + 0x28cd20;
_ZN14PacketListener13handleAnimateESt10shared_ptrI24ClientboundAnimatePacketE = __main_start + 0x28cd78;
_ZN14PacketListener19handlePlayerCommandESt10shared_ptrI30ServerboundPlayerCommandPacketE = __main_start + 0x28cdd0;
_ZN14PacketListener14handlePreLoginESt10shared_ptrI25ClientboundPreLoginPacketE = __main_start + 0x28ce28;
_ZN14PacketListener12handleAddMobESt10shared_ptrI23ClientboundAddMobPacketE = __main_start + 0x28ce80;
_ZN14PacketListener13handleSetTimeESt10shared_ptrI24ClientboundSetTimePacketE = __main_start + 0x28ced8;
_ZN14PacketListener14handleSetSpawnESt10shared_ptrI33ClientboundSetSpawnPositionPacketE = __main_start + 0x28cf30;
_ZN14PacketListener21handleSetEntityMotionESt10shared_ptrI32ClientboundSetEntityMotionPacketE = __main_start + 0x28cf88;
_ZN14PacketListener19handleSetEntityDataESt10shared_ptrI30ClientboundSetEntityDataPacketE = __main_start + 0x28cfe0;
_ZN14PacketListener22handleEntityLinkPacketESt10shared_ptrI30ClientboundSetEntityLinkPacketE = __main_start + 0x28d038;
_ZN14PacketListener31handleSetEntityPassengersPacketESt10shared_ptrI30ClientboundSetPassengersPacketE = __main_start + 0x28d090;
_ZN14PacketListener14handleInteractESt10shared_ptrI25ServerboundInteractPacketE = __main_start + 0x28d0e8;
_ZN14PacketListener17handleEntityEventESt10shared_ptrI28ClientboundEntityEventPacketE = __main_start + 0x28d140;
_ZN14PacketListener15handleSetHealthESt10shared_ptrI26ClientboundSetHealthPacketE = __main_start + 0x28d198;
_ZN14PacketListener13handleRespawnESt10shared_ptrI24ClientboundRespawnPacketE = __main_start + 0x28d1f0;
_ZN14PacketListener13handleTextureESt10shared_ptrI13TexturePacketE = __main_start + 0x28d248;
_ZN14PacketListener24handleTextureAndGeometryESt10shared_ptrI24TextureAndGeometryPacketE = __main_start + 0x28d2a0;
_ZN14PacketListener15handleExplosionESt10shared_ptrI24ClientboundExplodePacketE = __main_start + 0x28d2f8;
_ZN14PacketListener19handleContainerOpenESt10shared_ptrI30ClientboundContainerOpenPacketE = __main_start + 0x28d350;
_ZN14PacketListener20handleContainerCloseESt10shared_ptrI31ClientboundContainerClosePacketE = __main_start + 0x28d3a8;
_ZN14PacketListener20handleContainerClickESt10shared_ptrI31ServerboundContainerClickPacketE = __main_start + 0x28d400;
_ZN14PacketListener22handleContainerSetSlotESt10shared_ptrI33ClientboundContainerSetSlotPacketE = __main_start + 0x28d458;
_ZN14PacketListener22handleContainerContentESt10shared_ptrI36ClientboundContainerSetContentPacketE = __main_start + 0x28d4b0;
_ZN14PacketListener22handleContainerSetDataESt10shared_ptrI33ClientboundContainerSetDataPacketE = __main_start + 0x28d508;
_ZN14PacketListener21handleSetEquippedItemESt10shared_ptrI32ClientboundSetEquippedItemPacketE = __main_start + 0x28d560;
_ZN14PacketListener18handleContainerAckESt10shared_ptrI29ClientboundContainerAckPacketE = __main_start + 0x28d5b8;
_ZN14PacketListener17handleAddPaintingESt10shared_ptrI28ClientboundAddPaintingPacketE = __main_start + 0x28d610;
_ZN14PacketListener16handleBlockEventESt10shared_ptrI27ClientboundBlockEventPacketE = __main_start + 0x28d668;
_ZN14PacketListener15handleAwardStatESt10shared_ptrI26ClientboundAwardStatPacketE = __main_start + 0x28d6c0;
_ZN14PacketListener28handleEntityActionAtPositionESt10shared_ptrI28ClientboundPlayerSleepPacketE = __main_start + 0x28d718;
_ZN14PacketListener17handlePlayerInputESt10shared_ptrI28ServerboundPlayerInputPacketE = __main_start + 0x28d770;
_ZN14PacketListener15handleGameEventESt10shared_ptrI26ClientboundGameEventPacketE = __main_start + 0x28d7c8;
_ZN14PacketListener21handleAddGlobalEntityESt10shared_ptrI32ClientboundAddGlobalEntityPacketE = __main_start + 0x28d820;
_ZN14PacketListener17handleMapItemDataESt10shared_ptrI28ClientboundMapItemDataPacketE = __main_start + 0x28d878;
_ZN14PacketListener16handleLevelEventESt10shared_ptrI27ClientboundLevelEventPacketE = __main_start + 0x28d8d0;
_ZN14PacketListener13handleGetInfoESt10shared_ptrI13GetInfoPacketE = __main_start + 0x28d928;
_ZN14PacketListener21handleUpdateMobEffectESt10shared_ptrI32ClientboundUpdateMobEffectPacketE = __main_start + 0x28d980;
_ZN14PacketListener21handleRemoveMobEffectESt10shared_ptrI32ClientboundRemoveMobEffectPacketE = __main_start + 0x28d9d8;
_ZN14PacketListener16handlePlayerInfoESt10shared_ptrI16PlayerInfoPacketE = __main_start + 0x28da30;
_ZN14PacketListener15handleKeepAliveESt10shared_ptrI26ClientboundKeepAlivePacketE = __main_start + 0x28da88;
_ZN14PacketListener19handleSetExperienceESt10shared_ptrI30ClientboundSetExperiencePacketE = __main_start + 0x28dae0;
_ZN14PacketListener25handleSetCreativeModeSlotESt10shared_ptrI36ServerboundSetCreativeModeSlotPacketE = __main_start + 0x28db38;
_ZN14PacketListener22handleAddExperienceOrbESt10shared_ptrI33ClientboundAddExperienceOrbPacketE = __main_start + 0x28db90;
_ZN14PacketListener26handleContainerButtonClickESt10shared_ptrI37ServerboundContainerButtonClickPacketE = __main_start + 0x28dbe8;
_ZN14PacketListener21handleBlockEntityDataESt10shared_ptrI32ClientboundBlockEntityDataPacketE = __main_start + 0x28dc40;
_ZN14PacketListener19handleCustomPayloadESt10shared_ptrI30ClientboundCustomPayloadPacketE = __main_start + 0x28dc98;
_ZN14PacketListener15handleRotateMobESt10shared_ptrI27ClientboundRotateHeadPacketE = __main_start + 0x28dcf0;
_ZN14PacketListener21handlePlayerAbilitiesESt10shared_ptrI32ClientboundPlayerAbilitiesPacketE = __main_start + 0x28dd48;
_ZN14PacketListener22handleChatAutoCompleteESt10shared_ptrI33ClientboundChatAutoCompletePacketE = __main_start + 0x28dda0;
_ZN14PacketListener23handleClientInformationESt10shared_ptrI34ServerboundClientInformationPacketE = __main_start + 0x28ddf8;
_ZN14PacketListener16handleSoundEventESt10shared_ptrI22ClientboundSoundPacketE = __main_start + 0x28de50;
_ZN14PacketListener22handleBlockDestructionESt10shared_ptrI33ClientboundBlockDestructionPacketE = __main_start + 0x28dea8;
_ZN14PacketListener32handleBlockCollectionDestructionESt10shared_ptrI43ClientboundBlockCollectionDestructionPacketE = __main_start + 0x28df00;
_ZN14PacketListener19handleClientCommandESt10shared_ptrI30ServerboundClientCommandPacketE = __main_start + 0x28df58;
_ZN14PacketListener21canHandleAsyncPacketsEv = __main_start + 0x28df5c;
_ZN14PacketListener22handleScoreboardPacketESt10shared_ptrI16ScoreboardPacketE = __main_start + 0x28df64;
_ZN14PacketListener36handleClientboundSetPlayerTeamPacketESt10shared_ptrI30ClientboundSetPlayerTeamPacketE = __main_start + 0x28dfbc;
_ZN14PacketListener19handleParticleEventESt10shared_ptrI31ClientboundLevelParticlesPacketE = __main_start + 0x28e014;
_ZN14PacketListener22handleUpdateAttributesESt10shared_ptrI33ClientboundUpdateAttributesPacketE = __main_start + 0x28e06c;
_ZN14PacketListener15handleCraftItemESt10shared_ptrI15CraftItemPacketE = __main_start + 0x28e0c4;
_ZN14PacketListener15handleTradeItemESt10shared_ptrI15TradeItemPacketE = __main_start + 0x28e11c;
_ZN14PacketListener18handleDebugOptionsESt10shared_ptrI18DebugOptionsPacketE = __main_start + 0x28e174;
_ZN14PacketListener27handleServerSettingsChangedESt10shared_ptrI27ServerSettingsChangedPacketE = __main_start + 0x28e1cc;
_ZN14PacketListener25handleChunkVisibilityAreaESt10shared_ptrI25ChunkVisibilityAreaPacketE = __main_start + 0x28e224;
_ZN14PacketListener20handleUpdateProgressESt10shared_ptrI20UpdateProgressPacketE = __main_start + 0x28e27c;
_ZN14PacketListener19handleTextureChangeESt10shared_ptrI19TextureChangePacketE = __main_start + 0x28e2d4;
_ZN14PacketListener30handleTextureAndGeometryChangeESt10shared_ptrI30TextureAndGeometryChangePacketE = __main_start + 0x28e32c;
_ZN14PacketListener34handleUpdateGameRuleProgressPacketESt10shared_ptrI28UpdateGameRuleProgressPacketE = __main_start + 0x28e384;
_ZN14PacketListener16handleKickPlayerESt10shared_ptrI16KickPlayerPacketE = __main_start + 0x28e3dc;
_ZN14PacketListener8handleXZESt10shared_ptrI8XZPacketE = __main_start + 0x28e434;
_ZN14PacketListener17handleGameCommandESt10shared_ptrI17GameCommandPacketE = __main_start + 0x28e48c;
_ZN14PacketListener14handleGameModeESt10shared_ptrI14GameModePacketE = __main_start + 0x28e4e4;
_ZN14PacketListener19handleMapSelectInfoESt10shared_ptrI19MapSelectInfoPacketE = __main_start + 0x28e53c;
_ZN14PacketListener10handleVoteESt10shared_ptrI10VotePacketE = __main_start + 0x28e594;
_ZN14PacketListener17handlePlayerReadyESt10shared_ptrI17PlayerReadyPacketE = __main_start + 0x28e5ec;
_ZN14PacketListener13handlePowerupESt10shared_ptrI24ClientboundPowerupPacketE = __main_start + 0x28e644;
_ZN14PacketListener21handleDamageIndicatorESt10shared_ptrI32ClientboundDamageIndicatorPacketE = __main_start + 0x28e69c;
_ZN14PacketListener40handleMiniGamePlayerSettingsUpdatePacketESt10shared_ptrI39ClientboundMGPlayerSettingsUpdatePacketE = __main_start + 0x28e6f4;
_ZN14PacketListener18handleItemCooldownESt10shared_ptrI25ClientboundCooldownPacketE = __main_start + 0x28e74c;
_ZN14PacketListener17handleMoveVehicleESt10shared_ptrI28ClientboundMoveVehiclePacketE = __main_start + 0x28e7a4;
_ZN14PacketListener19handleAcceptedLoginESt10shared_ptrI22ClientboundLoginPacketE = __main_start + 0x28e7fc;
_ZN14PacketListener20handleOpenSignEditorESt10shared_ptrI31ClientboundOpenSignEditorPacketE = __main_start + 0x28e854;
_ZN14PacketListener16handleMovePlayerESt10shared_ptrI31ClientboundPlayerPositionPacketE = __main_start + 0x28e8ac;
_ZN14PacketListener25handleSetPlayerTeamPacketESt10shared_ptrI30ClientboundSetPlayerTeamPacketE = __main_start + 0x28e904;
_ZN14PacketListener18handlePlayerCombatESt10shared_ptrI29ClientboundPlayerCombatPacketE = __main_start + 0x28e95c;
_ZN14PacketListener22handleChangeDifficultyESt10shared_ptrI33ClientboundChangeDifficultyPacketE = __main_start + 0x28e9b4;
_ZN14PacketListener15handleSetCameraESt10shared_ptrI26ClientboundSetCameraPacketE = __main_start + 0x28ea0c;
_ZN14PacketListener15handleSetBorderESt10shared_ptrI26ClientboundSetBorderPacketE = __main_start + 0x28ea64;
_ZN14PacketListener15handleSetTitlesESt10shared_ptrI26ClientboundSetTitlesPacketE = __main_start + 0x28eabc;
_ZN14PacketListener26handleTabListCustomisationESt10shared_ptrI24ClientboundTabListPacketE = __main_start + 0x28eb14;
_ZN14PacketListener18handleResourcePackESt10shared_ptrI29ClientboundResourcePackPacketE = __main_start + 0x28eb6c;
_ZN14PacketListener16handleBossUpdateESt10shared_ptrI26ClientboundBossEventPacketE = __main_start + 0x28ebc4;
_ZN14PacketListener13handleAnimateESt10shared_ptrI22ServerboundSwingPacketE = __main_start + 0x28ec1c;
_ZN14PacketListener10handleChatESt10shared_ptrI21ServerboundChatPacketE = __main_start + 0x28ec74;
_ZN14PacketListener22handleChatAutoCompleteESt10shared_ptrI33ServerboundChatAutoCompletePacketE = __main_start + 0x28eccc;
_ZN14PacketListener18handleContainerAckESt10shared_ptrI29ServerboundContainerAckPacketE = __main_start + 0x28ed24;
_ZN14PacketListener20handleContainerCloseESt10shared_ptrI31ServerboundContainerClosePacketE = __main_start + 0x28ed7c;
_ZN14PacketListener19handleCustomPayloadESt10shared_ptrI30ServerboundCustomPayloadPacketE = __main_start + 0x28edd4;
_ZN14PacketListener15handleKeepAliveESt10shared_ptrI26ServerboundKeepAlivePacketE = __main_start + 0x28ee2c;
_ZN14PacketListener21handlePlayerAbilitiesESt10shared_ptrI32ServerboundPlayerAbilitiesPacketE = __main_start + 0x28ee84;
_ZN14PacketListener14handlePreLoginESt10shared_ptrI25ServerboundPreLoginPacketE = __main_start + 0x28eedc;
_ZN14PacketListener20handleSetCarriedItemESt10shared_ptrI31ServerboundSetCarriedItemPacketE = __main_start + 0x28ef34;
_ZN14PacketListener16handleSignUpdateESt10shared_ptrI27ServerboundSignUpdatePacketE = __main_start + 0x28ef8c;
_ZN14PacketListener15handleUseItemOnESt10shared_ptrI26ServerboundUseItemOnPacketE = __main_start + 0x28efe4;
_ZN14PacketListener28handleTeleportToEntityPacketESt10shared_ptrI33ServerboundTeleportToEntityPacketE = __main_start + 0x28f03c;
_ZN14PacketListener26handleResourcePackResponseESt10shared_ptrI29ServerboundResourcePackPacketE = __main_start + 0x28f094;
_ZN14PacketListener16handlePaddleBoatESt10shared_ptrI27ServerboundPaddleBoatPacketE = __main_start + 0x28f0ec;
_ZN14PacketListener17handleMoveVehicleESt10shared_ptrI28ServerboundMoveVehiclePacketE = __main_start + 0x28f144;
_ZN14PacketListener26handleAcceptTeleportPacketESt10shared_ptrI36ServerboundAcceptTeleportationPacketE = __main_start + 0x28f19c;
_ZN12ParticleType10staticCtorEv = __main_start + 0x29193c;
_ZN4Path6isDoneEv = __main_start + 0x292840;
_ZN22PathNavigationListenerC2Ev = __main_start + 0x294550;
_ZN16PerformanceTimerC2Ev = __main_start + 0x294a04;
_ZN16PerformanceTimer16PrintElapsedTimeERKNSt7__cxx1112basic_stringIwSt11char_traitsIwESaIwEEE = __main_start + 0x294a08;
_ZN6PacketD0Ev = __main_start + 0x294a0c;
_ZN8MaterialD2Ev = __main_start + 0x294a30;
_ZN8MaterialD0Ev = __main_start + 0x294a34;
_ZN11LadderBlockD0Ev = __main_start + 0x294a58;
_ZN11LakeFeatureD0Ev = __main_start + 0x294a7c;
_ZN12LargeFeatureD2Ev = __main_start + 0x294b38;
_ZN12LargeFeature10addFeatureEP5LeveliiiiP11ChunkPrimer = __main_start + 0x294b40;
_ZN5LayerD0Ev = __main_start + 0x294b78;
_ZN5Level21blockEntityAddedExtraESt10shared_ptrI11BlockEntityE = __main_start + 0x294cd0;
_ZN5Level23blockEntityRemovedExtraESt10shared_ptrI11BlockEntityE = __main_start + 0x294cd4;
_ZN5Level19newPrimedTntAllowedEv = __main_start + 0x294cd8;
_ZN5Level22newFallingBlockAllowedEv = __main_start + 0x294ce0;
_ZN5Level23explodeNextEnderCrystalEv = __main_start + 0x294ce8;
_ZN10LeverBlockD0Ev = __main_start + 0x294cf0;
_ZN15LightGemFeatureD0Ev = __main_start + 0x294d14;
_ZN11LiquidBlockD0Ev = __main_start + 0x294d8c;
_ZN14PacketListenerD0Ev = __main_start + 0x294db0;
_ZN8LogBlockD0Ev = __main_start + 0x2950e0;
_ZN7LongTagD0Ev = __main_start + 0x295104;
_ZN10MagmaBlockD0Ev = __main_start + 0x2951d4;
_ZN19MapSelectInfoPacket11getPacketIdEv = __main_start + 0x295488;
_ZN10MelonBlockD0Ev = __main_start + 0x2954d8;
_ZN15MobSpawnerBlockD0Ev = __main_start + 0x295bc8;
_ZN18MockedLevelStorage9getFolderEv = __main_start + 0x295c50;
_ZN15MonsterEggBlockD0Ev = __main_start + 0x295cdc;
_ZN21MoveEntityPacketSmallD0Ev = __main_start + 0x295d24;
_ZN21MoveEntityPacketSmall11getPacketIdEv = __main_start + 0x295d48;
_ZN21MoveEntityPacketSmall6PosRotD0Ev = __main_start + 0x295d58;
_ZN21MoveEntityPacketSmall6PosRot11getPacketIdEv = __main_start + 0x295d7c;
_ZN21MoveEntityPacketSmallD2Ev = __main_start + 0x295d84;
_ZN21MoveEntityPacketSmall3PosD0Ev = __main_start + 0x295dac;
_ZN21MoveEntityPacketSmall3Pos11getPacketIdEv = __main_start + 0x295dd0;
_ZN21MoveEntityPacketSmall3RotD0Ev = __main_start + 0x295dd8;
_ZN21MoveEntityPacketSmall3Rot11getPacketIdEv = __main_start + 0x295dfc;
_ZN13MushroomBlockD0Ev = __main_start + 0x296120;
_ZN13MyceliumBlockD0Ev = __main_start + 0x2961f4;
_ZN16NetherBrickBlockD0Ev = __main_start + 0x296264;
_ZN15NetherDimensionD0Ev = __main_start + 0x296514;
_ZN15NetherrackBlockD0Ev = __main_start + 0x29655c;
_ZN15NetherWartBlockD0Ev = __main_start + 0x296580;
_ZN9LeafBlockD2Ev = __main_start + 0x2965a4;
_ZN12NewLeafBlockD0Ev = __main_start + 0x2965e0;
_ZN11NewLogBlockD0Ev = __main_start + 0x296604;
_ZN17NewStoneSlabBlockD0Ev = __main_start + 0x296628;
_ZN15NormalDimensionD0Ev = __main_start + 0x2966b0;
_ZN9NoteBlockD0Ev = __main_start + 0x2966d4;
_ZN13ObserverBlockD0Ev = __main_start + 0x296708;
_ZN13ObsidianBlockD0Ev = __main_start + 0x29672c;
_ZN15OldChunkStorageD2Ev = __main_start + 0x296cec;
_ZN15OldChunkStorageD0Ev = __main_start + 0x296d20;
_ZN12OldLeafBlockD0Ev = __main_start + 0x296d44;
_ZN11OldLogBlockD0Ev = __main_start + 0x296d68;
_ZN8OreBlockD0Ev = __main_start + 0x296e14;
_ZN10OreFeatureD0Ev = __main_start + 0x296e64;
_ZN14PackedIceBlockD0Ev = __main_start + 0x296fdc;
_ZN11LevelSourceD1Ev = __main_start + 0x2974cc;
_ZN11LevelSourceD0Ev = __main_start + 0x2974d0;
_ZN11GasMaterialD0Ev = __main_start + 0x297cc8;
_ZN11GasMaterial7isSolidEv = __main_start + 0x297cec;
_ZN11GasMaterial11blocksLightEv = __main_start + 0x297cf4;
_ZN11GasMaterial12blocksMotionEv = __main_start + 0x297cfc;
_ZN14LiquidMaterialD0Ev = __main_start + 0x297d04;
_ZN14LiquidMaterial8isLiquidEv = __main_start + 0x297d28;
_ZN14LiquidMaterial7isSolidEv = __main_start + 0x297d30;
_ZN14LiquidMaterial12blocksMotionEv = __main_start + 0x297d38;
_ZN18DecorationMaterialD0Ev = __main_start + 0x297d40;
_ZN18DecorationMaterial7isSolidEv = __main_start + 0x297d64;
_ZN18DecorationMaterial11blocksLightEv = __main_start + 0x297d6c;
_ZN18DecorationMaterial12blocksMotionEv = __main_start + 0x297d74;
_ZN14PortalMaterialD0Ev = __main_start + 0x297d7c;
_ZN14PortalMaterial7isSolidEv = __main_start + 0x297da0;
_ZN14PortalMaterial11blocksLightEv = __main_start + 0x297da8;
_ZN14PortalMaterial12blocksMotionEv = __main_start + 0x297db0;
_ZN11WebMaterialD0Ev = __main_start + 0x297db8;
_ZN11WebMaterial12blocksMotionEv = __main_start + 0x297ddc;
_ZNSt3__110shared_ptrI6PacketEC2I24ClientboundSetTimePacketEEPT_NS_9enable_ifIXsr14is_convertibleIS6_PS1_EE5valueENS2_5__natEE4typeE = __main_start + 0x299190;
_ZNSt3__120__shared_ptr_pointerIP24ClientboundSetTimePacketNS_14default_deleteIS1_EENS_9allocatorIS1_EEED0Ev = __main_start + 0x299268;
_ZNSt3__120__shared_ptr_pointerIP24ClientboundSetTimePacketNS_14default_deleteIS1_EENS_9allocatorIS1_EEE16__on_zero_sharedEv = __main_start + 0x29928c;
_ZNKSt3__120__shared_ptr_pointerIP24ClientboundSetTimePacketNS_14default_deleteIS1_EENS_9allocatorIS1_EEE13__get_deleterERKSt9type_info = __main_start + 0x2992a4;
_ZNSt3__120__shared_ptr_pointerIP24ClientboundSetTimePacketNS_14default_deleteIS1_EENS_9allocatorIS1_EEE21__on_zero_shared_weakEv = __main_start + 0x2992c0;
_ZNSt3__110shared_ptrI6PacketEC2I33ClientboundSetSpawnPositionPacketEEPT_NS_9enable_ifIXsr14is_convertibleIS6_PS1_EE5valueENS2_5__natEE4typeE = __main_start + 0x2993f8;
_ZNSt3__120__shared_ptr_pointerIP33ClientboundSetSpawnPositionPacketNS_14default_deleteIS1_EENS_9allocatorIS1_EEED0Ev = __main_start + 0x2994d0;
_ZNSt3__120__shared_ptr_pointerIP33ClientboundSetSpawnPositionPacketNS_14default_deleteIS1_EENS_9allocatorIS1_EEE16__on_zero_sharedEv = __main_start + 0x2994f4;
_ZNKSt3__120__shared_ptr_pointerIP33ClientboundSetSpawnPositionPacketNS_14default_deleteIS1_EENS_9allocatorIS1_EEE13__get_deleterERKSt9type_info = __main_start + 0x29950c;
_ZNSt3__120__shared_ptr_pointerIP33ClientboundSetSpawnPositionPacketNS_14default_deleteIS1_EENS_9allocatorIS1_EEE21__on_zero_shared_weakEv = __main_start + 0x299528;
_ZNSt3__110shared_ptrI6PacketEC2I28ClientboundPlayerSleepPacketEEPT_NS_9enable_ifIXsr14is_convertibleIS6_PS1_EE5valueENS2_5__natEE4typeE = __main_start + 0x29a1a4;
_ZNSt3__120__shared_ptr_pointerIP28ClientboundPlayerSleepPacketNS_14default_deleteIS1_EENS_9allocatorIS1_EEED0Ev = __main_start + 0x29a27c;
_ZNSt3__120__shared_ptr_pointerIP28ClientboundPlayerSleepPacketNS_14default_deleteIS1_EENS_9allocatorIS1_EEE16__on_zero_sharedEv = __main_start + 0x29a2a0;
_ZNKSt3__120__shared_ptr_pointerIP28ClientboundPlayerSleepPacketNS_14default_deleteIS1_EENS_9allocatorIS1_EEE13__get_deleterERKSt9type_info = __main_start + 0x29a2b8;
_ZNSt3__120__shared_ptr_pointerIP28ClientboundPlayerSleepPacketNS_14default_deleteIS1_EENS_9allocatorIS1_EEE21__on_zero_shared_weakEv = __main_start + 0x29a2d4;
_ZNSt3__110shared_ptrI6PacketEC2I8XZPacketEEPT_NS_9enable_ifIXsr14is_convertibleIS6_PS1_EE5valueENS2_5__natEE4typeE = __main_start + 0x29f18c;
_ZNSt3__120__shared_ptr_pointerIP8XZPacketNS_14default_deleteIS1_EENS_9allocatorIS1_EEED0Ev = __main_start + 0x29f264;
_ZNSt3__120__shared_ptr_pointerIP8XZPacketNS_14default_deleteIS1_EENS_9allocatorIS1_EEE16__on_zero_sharedEv = __main_start + 0x29f288;
_ZNKSt3__120__shared_ptr_pointerIP8XZPacketNS_14default_deleteIS1_EENS_9allocatorIS1_EEE13__get_deleterERKSt9type_info = __main_start + 0x29f2a0;
_ZNSt3__120__shared_ptr_pointerIP8XZPacketNS_14default_deleteIS1_EENS_9allocatorIS1_EEE21__on_zero_shared_weakEv = __main_start + 0x29f2bc;
_ZNSt3__110shared_ptrI8XZPacketED2Ev = __main_start + 0x29f2c0;
_ZNSt3__18weak_ptrI8XZPacketED2Ev = __main_start + 0x29f2d0;
_ZNSt3__110shared_ptrI6PacketEC2I10VotePacketEEPT_NS_9enable_ifIXsr14is_convertibleIS6_PS1_EE5valueENS2_5__natEE4typeE = __main_start + 0x29f4fc;
_ZNSt3__120__shared_ptr_pointerIP10VotePacketNS_14default_deleteIS1_EENS_9allocatorIS1_EEED0Ev = __main_start + 0x29f5d4;
_ZNSt3__120__shared_ptr_pointerIP10VotePacketNS_14default_deleteIS1_EENS_9allocatorIS1_EEE16__on_zero_sharedEv = __main_start + 0x29f5f8;
_ZNKSt3__120__shared_ptr_pointerIP10VotePacketNS_14default_deleteIS1_EENS_9allocatorIS1_EEE13__get_deleterERKSt9type_info = __main_start + 0x29f610;
_ZNSt3__120__shared_ptr_pointerIP10VotePacketNS_14default_deleteIS1_EENS_9allocatorIS1_EEE21__on_zero_shared_weakEv = __main_start + 0x29f62c;
_ZNSt3__110shared_ptrI10VotePacketED2Ev = __main_start + 0x29f630;
_ZNSt3__18weak_ptrI10VotePacketED2Ev = __main_start + 0x29f640;
_ZNSt3__110shared_ptrI6PacketEC2I31ServerboundSetCarriedItemPacketEEPT_NS_9enable_ifIXsr14is_convertibleIS6_PS1_EE5valueENS2_5__natEE4typeE = __main_start + 0x2a13c8;
_ZNSt3__120__shared_ptr_pointerIP31ServerboundSetCarriedItemPacketNS_14default_deleteIS1_EENS_9allocatorIS1_EEED0Ev = __main_start + 0x2a14a0;
_ZNSt3__120__shared_ptr_pointerIP31ServerboundSetCarriedItemPacketNS_14default_deleteIS1_EENS_9allocatorIS1_EEE16__on_zero_sharedEv = __main_start + 0x2a14c4;
_ZNKSt3__120__shared_ptr_pointerIP31ServerboundSetCarriedItemPacketNS_14default_deleteIS1_EENS_9allocatorIS1_EEE13__get_deleterERKSt9type_info = __main_start + 0x2a14dc;
_ZNSt3__120__shared_ptr_pointerIP31ServerboundSetCarriedItemPacketNS_14default_deleteIS1_EENS_9allocatorIS1_EEE21__on_zero_shared_weakEv = __main_start + 0x2a14f8;
_ZNSt3__110shared_ptrI31ServerboundSetCarriedItemPacketED2Ev = __main_start + 0x2a14fc;
_ZNSt3__18weak_ptrI31ServerboundSetCarriedItemPacketED2Ev = __main_start + 0x2a150c;
_ZNSt3__110shared_ptrI6PacketEC2I22ServerboundSwingPacketEEPT_NS_9enable_ifIXsr14is_convertibleIS6_PS1_EE5valueENS2_5__natEE4typeE = __main_start + 0x2a1918;
_ZNSt3__120__shared_ptr_pointerIP22ServerboundSwingPacketNS_14default_deleteIS1_EENS_9allocatorIS1_EEED0Ev = __main_start + 0x2a19f0;
_ZNSt3__120__shared_ptr_pointerIP22ServerboundSwingPacketNS_14default_deleteIS1_EENS_9allocatorIS1_EEE16__on_zero_sharedEv = __main_start + 0x2a1a14;
_ZNKSt3__120__shared_ptr_pointerIP22ServerboundSwingPacketNS_14default_deleteIS1_EENS_9allocatorIS1_EEE13__get_deleterERKSt9type_info = __main_start + 0x2a1a2c;
_ZNSt3__120__shared_ptr_pointerIP22ServerboundSwingPacketNS_14default_deleteIS1_EENS_9allocatorIS1_EEE21__on_zero_shared_weakEv = __main_start + 0x2a1a48;
_ZNSt3__110shared_ptrI22ServerboundSwingPacketED2Ev = __main_start + 0x2a1a4c;
_ZNSt3__18weak_ptrI22ServerboundSwingPacketED2Ev = __main_start + 0x2a1a5c;
_ZN13GetInfoPacketC1Ev = __main_start + 0x2a2148;
_ZN11PerlinNoise4initEP6Randomi = __main_start + 0x2b8804;
_ZN11PerlinNoiseC1EP6Randomi = __main_start + 0x2b88a0;
_ZN11PerlinNoiseD1Ev = __main_start + 0x2b88ec;
_ZN11PerlinNoiseD0Ev = __main_start + 0x2b8964;
_ZN11PerlinNoise8getValueEdd = __main_start + 0x2b8988;
_ZN11PerlinNoise9getRegionE15arrayWithLengthIdEiiiiiiddd = __main_start + 0x2b8a24;
_ZN11PerlinNoise9getRegionE15arrayWithLengthIdEiiiiddd = __main_start + 0x2b8bf0;
_ZN18PerlinSimplexNoise4initEP6Randomi = __main_start + 0x2b8c30;
_ZN18PerlinSimplexNoiseC1EP6Randomi = __main_start + 0x2b8cd0;
_ZN18PerlinSimplexNoiseD2Ev = __main_start + 0x2b8d1c;
_ZN18PerlinSimplexNoiseD0Ev = __main_start + 0x2b8d9c;
_ZN18PerlinSimplexNoise8getValueEdd = __main_start + 0x2b8dc0;
_ZN18PerlinSimplexNoise9getRegionE15arrayWithLengthIdEddiiddd = __main_start + 0x2b90a0;
_ZN11PickaxeItem10staticCtorEv = __main_start + 0x2bdd94;
_ZN3Pig10staticCtorEv = __main_start + 0x2be36c;
_ZN3Pig14addDataWalkersEP14DataFixerUpper = __main_start + 0x2bea00;
_ZN6Random7nextIntEi = __main_start + 0x2bf6b4;
_ZN6Random9nextFloatEv = __main_start + 0x2bfc68;
_ZN9PigZombie14addDataWalkersEP14DataFixerUpper = __main_start + 0x2bfd44;
_ZN11PineFeature10staticCtorEv = __main_start + 0x2c01f8;
_ZN15PistonBaseBlock14isViewBlockingEPK10BlockState = __main_start + 0x2c0a50;
_ZN15PistonBaseBlock25getSpawnResourcesAuxValueEPK10BlockState = __main_start + 0x2c0a80;
_ZN15PistonBaseBlock8getShapeEPK10BlockStateP11LevelSourceRK8BlockPos = __main_start + 0x2c0a88;
_ZN15PistonBaseBlock17addCollisionAABBsEPK10BlockStateP5LevelRK8BlockPosPK4AABBPSt6vectorIP4AABBSt9allocatorIP4AABBEESt10shared_ptrI6EntityEb = __main_start + 0x2c0b68;
_ZNK15PistonBaseBlock13isSolidRenderEPK10BlockState = __main_start + 0x2c0bdc;
_ZN15PistonBaseBlock11setPlacedByEP5LevelRK8BlockPosPK10BlockStateSt10shared_ptrI12LivingEntityE12not_null_ptrI12ItemInstanceE = __main_start + 0x2c0be4;
_ZN15PistonBaseBlock15neighborChangedEPK10BlockStateP5LevelRK8BlockPosP5BlockRK8BlockPos = __main_start + 0x2c0db8;
_ZN15PistonBaseBlock7onPlaceEP5LevelRK8BlockPosPK10BlockState = __main_start + 0x2c0dd8;
_ZN15PistonBaseBlock20getStateForPlacementEP5LevelRK8BlockPosPK9DirectionfffiSt10shared_ptrI12LivingEntityE = __main_start + 0x2c0e5c;
_ZN15PistonBaseBlock12triggerEventEPK10BlockStateP5LevelRK8BlockPosii = __main_start + 0x2c13f4;
_ZN15PistonBaseBlock12isCubeShapedEPK10BlockState = __main_start + 0x2c2578;
_ZN15PistonBaseBlock13getBlockStateEi = __main_start + 0x2c2664;
_ZN15PistonBaseBlock6rotateEPK10BlockStateP8Rotation = __main_start + 0x2c26c4;
_ZN15PistonBaseBlock6mirrorEPK10BlockStateP6Mirror = __main_start + 0x2c27a8;
_ZN15PistonBaseBlock29convertBlockStateToLegacyDataEPK10BlockState = __main_start + 0x2c2810;
_ZN15PistonBaseBlock26createBlockStateDefinitionEv = __main_start + 0x2c2868;
_ZN15PistonBaseBlock17getBlockFaceShapeEP11LevelSourcePK10BlockStateRK8BlockPosPK9Direction = __main_start + 0x2c28e8;
_ZN15PistonBaseBlock10getTextureEPK9DirectionPK10BlockState = __main_start + 0x2c2974;
_ZN15PistonBaseBlock13registerIconsEP12IconRegister = __main_start + 0x2c2c7c;
_ZN15PistonBaseBlock14getRenderShapeEPK10BlockState = __main_start + 0x2c2d20;
_ZN15PistonHeadBlock8getShapeEPK10BlockStateP11LevelSourceRK8BlockPos = __main_start + 0x2c3164;
_ZN15PistonHeadBlock17addCollisionAABBsEPK10BlockStateP5LevelRK8BlockPosPK4AABBPSt6vectorIP4AABBSt9allocatorIP4AABBEESt10shared_ptrI6EntityEb = __main_start + 0x2c31b8;
_ZN15PistonHeadBlock17playerWillDestroyEP5LevelRK8BlockPosPK10BlockStateSt10shared_ptrI6PlayerE = __main_start + 0x2c3330;
_ZN15PistonHeadBlock8onRemoveEP5LevelRK8BlockPosPK10BlockState = __main_start + 0x2c3440;
_ZNK15PistonHeadBlock13isSolidRenderEPK10BlockState = __main_start + 0x2c3558;
_ZN15PistonHeadBlock12isCubeShapedEPK10BlockState = __main_start + 0x2c3560;
_ZN15PistonHeadBlock8mayPlaceEP5LevelRK8BlockPos = __main_start + 0x2c3568;
_ZN15PistonHeadBlock8mayPlaceEP5LevelRK8BlockPosPK9Direction = __main_start + 0x2c3570;
_ZN15PistonHeadBlock16getResourceCountEP6Random = __main_start + 0x2c3578;
_ZN15PistonHeadBlock15neighborChangedEPK10BlockStateP5LevelRK8BlockPosP5BlockRK8BlockPos = __main_start + 0x2c3580;
_ZN15PistonHeadBlock16shouldRenderFaceEPK10BlockStateP11LevelSourceRK8BlockPosPK9Direction = __main_start + 0x2c3694;
_ZN15PistonHeadBlock20getCloneItemInstanceEP5LevelRK8BlockPosPK10BlockState = __main_start + 0x2c36b4;
_ZN15PistonHeadBlock13getBlockStateEi = __main_start + 0x2c375c;
_ZN15PistonHeadBlock29convertBlockStateToLegacyDataEPK10BlockState = __main_start + 0x2c37d4;
_ZN15PistonHeadBlock6rotateEPK10BlockStateP8Rotation = __main_start + 0x2c3838;
_ZN15PistonHeadBlock6mirrorEPK10BlockStateP6Mirror = __main_start + 0x2c3890;
_ZN15PistonHeadBlock26createBlockStateDefinitionEv = __main_start + 0x2c38f8;
_ZN15PistonHeadBlock17getBlockFaceShapeEP11LevelSourcePK10BlockStateRK8BlockPosPK9Direction = __main_start + 0x2c398c;
_ZN15PistonHeadBlock10getTextureEPK9DirectionPK10BlockState = __main_start + 0x2c39c8;
_ZN15PistonHeadBlock13registerIconsEP12IconRegister = __main_start + 0x2c3a9c;
_ZN15PistonHeadBlock14getRenderShapeEPK10BlockState = __main_start + 0x2c3aa0;
_ZN16PistonMagicBlock8onRemoveEP5LevelRK8BlockPosPK10BlockState = __main_start + 0x2c3c70;
_ZN16PistonMagicBlock8mayPlaceEP5LevelRK8BlockPos = __main_start + 0x2c3d8c;
_ZN16PistonMagicBlock8mayPlaceEP5LevelRK8BlockPosPK9Direction = __main_start + 0x2c3d94;
_ZN16PistonMagicBlock7destroyEP5LevelRK8BlockPosPK10BlockState = __main_start + 0x2c3d9c;
_ZNK16PistonMagicBlock13isSolidRenderEPK10BlockState = __main_start + 0x2c3e60;
_ZN16PistonMagicBlock12isCubeShapedEPK10BlockState = __main_start + 0x2c3e68;
_ZN16PistonMagicBlock3useEP5LevelRK8BlockPosPK10BlockStateSt10shared_ptrI6PlayerEN15InteractionHand16EInteractionHandEPK9Directionfffb = __main_start + 0x2c3e70;
_ZN16PistonMagicBlock11getResourceEPK10BlockStateP6Randomi = __main_start + 0x2c3f04;
_ZN16PistonMagicBlock14spawnResourcesEP5LevelRK8BlockPosPK10BlockStatefi = __main_start + 0x2c3f14;
_ZN16PistonMagicBlock4clipEPK10BlockStateP5LevelRK8BlockPosP4Vec3P4Vec3 = __main_start + 0x2c4078;
_ZN16PistonMagicBlock15neighborChangedEPK10BlockStateP5LevelRK8BlockPosP5BlockRK8BlockPos = __main_start + 0x2c4080;
_ZN16PistonMagicBlock11getClipAABBEPK10BlockStateP11LevelSourceRK8BlockPos = __main_start + 0x2c40c0;
_ZN16PistonMagicBlock17addCollisionAABBsEPK10BlockStateP5LevelRK8BlockPosPK4AABBPSt6vectorIP4AABBSt9allocatorIP4AABBEESt10shared_ptrI6EntityEb = __main_start + 0x2c4178;
_ZN16PistonMagicBlock8getShapeEPK10BlockStateP11LevelSourceRK8BlockPos = __main_start + 0x2c4488;
_ZN16PistonMagicBlock20getCloneItemInstanceEP5LevelRK8BlockPosPK10BlockState = __main_start + 0x2c44f4;
_ZN16PistonMagicBlock13getBlockStateEi = __main_start + 0x2c4504;
_ZN16PistonMagicBlock29convertBlockStateToLegacyDataEPK10BlockState = __main_start + 0x2c457c;
_ZN16PistonMagicBlock6rotateEPK10BlockStateP8Rotation = __main_start + 0x2c45e0;
_ZN16PistonMagicBlock6mirrorEPK10BlockStateP6Mirror = __main_start + 0x2c4638;
_ZN16PistonMagicBlock26createBlockStateDefinitionEv = __main_start + 0x2c46a0;
_ZN16PistonMagicBlock17getBlockFaceShapeEP11LevelSourcePK10BlockStateRK8BlockPosPK9Direction = __main_start + 0x2c4720;
_ZN16PistonMagicBlock13registerIconsEP12IconRegister = __main_start + 0x2c4728;
_ZN16PistonMagicBlock14getRenderShapeEPK10BlockState = __main_start + 0x2c472c;
_ZN23PistonMovingBlockEntity14addDataWalkersEP14DataFixerUpper = __main_start + 0x2c4864;
_ZN11PlainsBiomeC1EN5Biome9EBiomeIDsEbPN5Biome15BiomePropertiesE = __main_start + 0x2c6524;
_ZN11PlanksBlock25getSpawnResourcesAuxValueEPK10BlockState = __main_start + 0x2c6e1c;
_ZN11PlanksBlock13getBlockStateEi = __main_start + 0x2c6e4c;
_ZN11PlanksBlock11getMapColorEPK10BlockStateP11LevelSourceRK8BlockPos = __main_start + 0x2c6eb4;
_ZN11PlanksBlock29convertBlockStateToLegacyDataEPK10BlockState = __main_start + 0x2c6ee4;
_ZN11PlanksBlock26createBlockStateDefinitionEv = __main_start + 0x2c6f0c;
_ZN11PlanksBlock16getDescriptionIdEi = __main_start + 0x2c7010;
_ZN11PlanksBlock10getTextureEPK9DirectionPK10BlockState = __main_start + 0x2c702c;
_ZN11PlanksBlock13registerIconsEP12IconRegister = __main_start + 0x2c7068;
_ZN6Player10staticCtorEv = __main_start + 0x2c71c4;
_ZN11LocalPlayer18registerAttributesEv = __main_start + 0x2c87b0;
_ZN11LocalPlayer17defineSynchedDataEv = __main_start + 0x2c8884;
_ZN11LocalPlayer25shouldRenderAtSqrDistanceEd = __main_start + 0x2c89a8;
_ZN6Random10nextDoubleEv = __main_start + 0x2c9cec;
_ZN11LocalPlayer12getSwimSoundEv = __main_start + 0x2c9f04;
_ZN11LocalPlayer18getSwimSplashSoundEv = __main_start + 0x2c9f14;
_ZN11LocalPlayer17getPortalWaitTimeEv = __main_start + 0x2c9f24;
_ZN11LocalPlayer25getDimensionChangingDelayEv = __main_start + 0x2c9f38;
_ZN11LocalPlayer14getSoundSourceEv = __main_start + 0x2ca010;
_ZN11LocalPlayer10isImmobileEv = __main_start + 0x2ca058;
_ZN11LocalPlayer14onChangedBlockERK8BlockPos = __main_start + 0x2ca0a4;
_ZN11LocalPlayer8resetPosEv = __main_start + 0x2caddc;
_ZN11LocalPlayer3dieEP12DamageSource = __main_start + 0x2cb80c;
_ZN11LocalPlayer12getHurtSoundEP12DamageSource = __main_start + 0x2cbd9c;
_ZN11LocalPlayer13getDeathSoundEv = __main_start + 0x2cbe1c;
_ZN6Player10addWalkersEP14DataFixerUpper = __main_start + 0x2cc214;
_ZN11LocalPlayer22readAdditionalSaveDataEP11CompoundTag = __main_start + 0x2cc414;
_ZN6Random7nextIntEv = __main_start + 0x2ccb90;
_ZN11LocalPlayer20addAdditonalSaveDataEP11CompoundTag = __main_start + 0x2ccd4c;
_ZN11LocalPlayer16blockUsingShieldERKSt10shared_ptrI12LivingEntityE = __main_start + 0x2cd7c4;
_ZN11LocalPlayer9hurtArmorEf = __main_start + 0x2cd940;
_ZN11LocalPlayer23hurtCurrentlyUsedShieldEf = __main_start + 0x2cd948;
_ZN11LocalPlayer15getRidingHeightEv = __main_start + 0x2cdf18;
_ZN11LocalPlayer6removeEv = __main_start + 0x2ceac0;
_ZN11LocalPlayer8isInWallEv = __main_start + 0x2ceb90;
_ZN11LocalPlayer10isSleepingEv = __main_start + 0x2cf660;
_ZN6Player13getSleepTimerEv = __main_start + 0x2cf688;
_ZN11LocalPlayer14jumpFromGroundEv = __main_start + 0x2cf71c;
_ZN11LocalPlayer6travelEfff = __main_start + 0x2cfaf0;
_ZN11LocalPlayer8getSpeedEv = __main_start + 0x2cfc74;
_ZN11LocalPlayer15causeFallDamageEff = __main_start + 0x2d015c;
_ZN11LocalPlayer19doWaterSplashEffectEv = __main_start + 0x2d024c;
_ZN11LocalPlayer18getFallDamageSoundEi = __main_start + 0x2d0288;
_ZN11LocalPlayer6killedESt10shared_ptrI12LivingEntityE = __main_start + 0x2d02f4;
_ZN11LocalPlayer14makeStuckInWebEv = __main_start + 0x2d0954;
_ZN11LocalPlayer17getItemInHandIconE12not_null_ptrI12ItemInstanceEi = __main_start + 0x2d0964;
_ZN11LocalPlayer19getExperienceRewardESt10shared_ptrI6PlayerE = __main_start + 0x2d0f98;
_ZN11LocalPlayer25isAlwaysExperienceDropperEv = __main_start + 0x2d0fe8;
_ZN11LocalPlayer14shouldShowNameEv = __main_start + 0x2d0ff0;
_ZN11LocalPlayer13makeStepSoundEv = __main_start + 0x2d0ff8;
_ZN11LocalPlayer7getNameEv = __main_start + 0x2d1018;
_ZN11LocalPlayer14getNetworkNameEv = __main_start + 0x2d1024;
_ZN11LocalPlayer14getDisplayNameEv = __main_start + 0x2d1050;
_ZN11LocalPlayer12getHandSlotsEv = __main_start + 0x2d12a4;
_ZN11LocalPlayer13isInvisibleToESt10shared_ptrI6PlayerE = __main_start + 0x2d1530;
_ZN11LocalPlayer15isPushedByWaterEv = __main_start + 0x2d1604;
_ZN11LocalPlayer7getTeamEv = __main_start + 0x2d1624;
_ZN11LocalPlayer12getEyeHeightEv = __main_start + 0x2d16e8;
_ZN11LocalPlayer19setAbsorptionAmountEf = __main_start + 0x2d18ac;
_ZN11LocalPlayer19getAbsorptionAmountEv = __main_start + 0x2d1900;
_ZN11LocalPlayer7setSlotEiRK12not_null_ptrI12ItemInstanceE = __main_start + 0x2d1b8c;
_ZN11LocalPlayer4pushESt10shared_ptrIS_E = __main_start + 0x2d1fcc;
_ZN11LocalPlayer12pushEntitiesEv = __main_start + 0x2d2030;
_ZN6Player14isAllowedToUseEP5Block = __main_start + 0x2d22dc;
_ZN11LocalPlayer16IsCreativeFlyingEv = __main_start + 0x2d2a5c;
_ZN11LocalPlayer18canCreateParticlesEv = __main_start + 0x2d2afc;
_ZN6Player12CheckPowerupEN12PowerupItems23eGlide_Timed_Powerup_IDE = __main_start + 0x2d3194;
_ZN16PlayerInfoPacketC1Ev = __main_start + 0x2d36b4;
_ZN16PlayerInfoPacket4readEP15DataInputStream = __main_start + 0x2d3818;
_ZN16PlayerInfoPacket5writeEP16DataOutputStream = __main_start + 0x2d38a0;
_ZN16PlayerInfoPacket6handleEP14PacketListener = __main_start + 0x2d3920;
_ZN16PlayerInfoPacket16getEstimatedSizeEv = __main_start + 0x2d3970;
_ZN17PlayerReadyPacketD2Ev = __main_start + 0x2d399c;
_ZN17PlayerReadyPacketD0Ev = __main_start + 0x2d39c4;
_ZN17PlayerReadyPacketC1Ev = __main_start + 0x2d39e8;
_ZN17PlayerReadyPacketC2Ejb = __main_start + 0x2d3a24;
_ZN17PlayerReadyPacket6handleEP14PacketListener = __main_start + 0x2d3a70;
_ZN17PlayerReadyPacket4readEP15DataInputStream = __main_start + 0x2d3ac0;
_ZN17PlayerReadyPacket5writeEP16DataOutputStream = __main_start + 0x2d3b0c;
_ZN17PlayerReadyPacket16getEstimatedSizeEv = __main_start + 0x2d3b50;
_ZN9PolarBear10staticCtorEv = __main_start + 0x2d43b0;
_ZN11PortalBlock8getShapeEPK10BlockStateP11LevelSourceRK8BlockPos = __main_start + 0x2d5674;
_ZN11PortalBlock4tickEP5LevelRK8BlockPosPK10BlockStateP6Random = __main_start + 0x2d56cc;
_ZN11PortalBlock11getClipAABBEPK10BlockStateP11LevelSourceRK8BlockPos = __main_start + 0x2d58d0;
_ZN11PortalBlock12isCubeShapedEPK10BlockState = __main_start + 0x2d5918;
_ZN11PortalBlock15neighborChangedEPK10BlockStateP5LevelRK8BlockPosP5BlockRK8BlockPos = __main_start + 0x2d5af8;
_ZN11PortalBlock16shouldRenderFaceEPK10BlockStateP11LevelSourceRK8BlockPosPK9Direction = __main_start + 0x2d5bc8;
_ZN11PortalBlock16getResourceCountEP6Random = __main_start + 0x2d5fa8;
_ZN11PortalBlock14getRenderLayerEv = __main_start + 0x2d5fb0;
_ZN11PortalBlock12entityInsideEP5LevelRK8BlockPosPK10BlockStateRKSt10shared_ptrI6EntityE = __main_start + 0x2d5fb8;
_ZN11PortalBlock11animateTickEPK10BlockStateP5LevelRK8BlockPosP6Random = __main_start + 0x2d6080;
_ZN11PortalBlock20getCloneItemInstanceEP5LevelRK8BlockPosPK10BlockState = __main_start + 0x2d6380;
_ZN11PortalBlock13getBlockStateEi = __main_start + 0x2d6390;
_ZN11PortalBlock29convertBlockStateToLegacyDataEPK10BlockState = __main_start + 0x2d63dc;
_ZN11PortalBlock6rotateEPK10BlockStateP8Rotation = __main_start + 0x2d6404;
_ZN11PortalBlock26createBlockStateDefinitionEv = __main_start + 0x2d648c;
_ZN11PortalBlock17getBlockFaceShapeEP11LevelSourcePK10BlockStateRK8BlockPosPK9Direction = __main_start + 0x2d6934;
_ZN11PortalBlock7mayPickEv = __main_start + 0x2d6e50;
_ZN12PortalForcer10findPortalESt10shared_ptrI6EntityEfii = __main_start + 0x2d726c;
_ZN11PotatoBlock14spawnResourcesEP5LevelRK8BlockPosPK10BlockStatefi = __main_start + 0x2d8f08;
_ZN11PotatoBlock8getShapeEPK10BlockStateP11LevelSourceRK8BlockPos = __main_start + 0x2d8fac;
_ZN11PotatoBlock10getTextureEPK9DirectionPK10BlockState = __main_start + 0x2d8fec;
_ZN11PotatoBlock13registerIconsEP12IconRegister = __main_start + 0x2d9044;
_ZN6Potion10StaticCtorEv = __main_start + 0x2d933c;
_ZN13PotionBrewing10StaticCtorEv = __main_start + 0x2db6b4;
_ZN7Potions10StaticCtorEv = __main_start + 0x2dcefc;
_ZN12PoweredBlock14isSignalSourceEPK10BlockState = __main_start + 0x2de45c;
_ZN12PoweredBlock9getSignalEPK10BlockStateP11LevelSourceRK8BlockPosPK9Direction = __main_start + 0x2de464;
_ZN16PoweredRailBlock13getBlockStateEi = __main_start + 0x2deadc;
_ZN16PoweredRailBlock29convertBlockStateToLegacyDataEPK10BlockState = __main_start + 0x2deb3c;
_ZN16PoweredRailBlock6rotateEPK10BlockStateP8Rotation = __main_start + 0x2deb94;
_ZN16PoweredRailBlock6mirrorEPK10BlockStateP6Mirror = __main_start + 0x2ded2c;
_ZN16PoweredRailBlock26createBlockStateDefinitionEv = __main_start + 0x2dee84;
_ZN16PoweredRailBlock10getTextureEPK9DirectionPK10BlockState = __main_start + 0x2def04;
_ZN16PoweredRailBlock13registerIconsEP12IconRegister = __main_start + 0x2def48;
_ZN18PressurePlateBlock13getBlockStateEi = __main_start + 0x2dfc9c;
_ZN18PressurePlateBlock29convertBlockStateToLegacyDataEPK10BlockState = __main_start + 0x2dfcd0;
_ZN18PressurePlateBlock26createBlockStateDefinitionEv = __main_start + 0x2dfcfc;
_ZN9PrimedTnt10staticCtorEv = __main_start + 0x2dfd70;
_ZN15PrismarineBlock7getNameEv = __main_start + 0x2e0848;
_ZN15PrismarineBlock11getMapColorEPK10BlockStateP11LevelSourceRK8BlockPos = __main_start + 0x2e088c;
_ZN15PrismarineBlock25getSpawnResourcesAuxValueEPK10BlockState = __main_start + 0x2e0904;
_ZN15PrismarineBlock29convertBlockStateToLegacyDataEPK10BlockState = __main_start + 0x2e092c;
_ZN15PrismarineBlock26createBlockStateDefinitionEv = __main_start + 0x2e0954;
_ZN15PrismarineBlock13getBlockStateEi = __main_start + 0x2e09c8;
_ZN15PrismarineBlock10getTextureEPK9DirectionPK10BlockState = __main_start + 0x2e0a30;
_ZN15PrismarineBlock13registerIconsEP12IconRegister = __main_start + 0x2e0a5c;
_ZN12PumpkinBlock7onPlaceEP5LevelRK8BlockPosPK10BlockState = __main_start + 0x2e17a8;
_ZN12PumpkinBlock8mayPlaceEP5LevelRK8BlockPos = __main_start + 0x2e2878;
_ZN12PumpkinBlock6rotateEPK10BlockStateP8Rotation = __main_start + 0x2e2940;
_ZN12PumpkinBlock6mirrorEPK10BlockStateP6Mirror = __main_start + 0x2e2998;
_ZN12PumpkinBlock20getStateForPlacementEP5LevelRK8BlockPosPK9DirectionfffiSt10shared_ptrI12LivingEntityE = __main_start + 0x2e2a00;
_ZN12PumpkinBlock13getBlockStateEi = __main_start + 0x2e2a58;
_ZN12PumpkinBlock29convertBlockStateToLegacyDataEPK10BlockState = __main_start + 0x2e2aa4;
_ZN12PumpkinBlock26createBlockStateDefinitionEv = __main_start + 0x2e2b78;
_ZN12PumpkinBlock10getTextureEPK9DirectionPK10BlockState = __main_start + 0x2e2e1c;
_ZN12PumpkinBlock13registerIconsEP12IconRegister = __main_start + 0x2e2f08;
_ZN15PurpurSlabBlock11DerivedInitEv = __main_start + 0x2e35d4;
_ZN15PurpurSlabBlock11getResourceEPK10BlockStateP6Randomi = __main_start + 0x2e3708;
_ZN15PurpurSlabBlock20getCloneItemInstanceEP5LevelRK8BlockPosPK10BlockState = __main_start + 0x2e3718;
_ZN15PurpurSlabBlock13getBlockStateEi = __main_start + 0x2e3758;
_ZN15PurpurSlabBlock29convertBlockStateToLegacyDataEPK10BlockState = __main_start + 0x2e37f8;
_ZN15PurpurSlabBlock26createBlockStateDefinitionEv = __main_start + 0x2e38f0;
_ZN11QuartzBlock20getStateForPlacementEP5LevelRK8BlockPosPK9DirectionfffiSt10shared_ptrI12LivingEntityE = __main_start + 0x2e3dc4;
_ZN11QuartzBlock25getSpawnResourcesAuxValueEPK10BlockState = __main_start + 0x2e3ec8;
_ZN11QuartzBlock24getSilkTouchItemInstanceEPK10BlockState = __main_start + 0x2e3f48;
_ZN11QuartzBlock11getMapColorEPK10BlockStateP11LevelSourceRK8BlockPos = __main_start + 0x2e400c;
_ZN11QuartzBlock13getBlockStateEi = __main_start + 0x2e401c;
_ZN11QuartzBlock29convertBlockStateToLegacyDataEPK10BlockState = __main_start + 0x2e4084;
_ZN11QuartzBlock6rotateEPK10BlockStateP8Rotation = __main_start + 0x2e40ac;
_ZN11QuartzBlock26createBlockStateDefinitionEv = __main_start + 0x2e4138;
_ZN11QuartzBlock10getTextureEPK9DirectionPK10BlockState = __main_start + 0x2e4230;
_ZN11QuartzBlock13registerIconsEP12IconRegister = __main_start + 0x2e43c8;
_ZN11QuartzBlock14getRenderShapeEPK10BlockState = __main_start + 0x2e480c;
_ZN6Rabbit10staticCtorEv = __main_start + 0x2e4814;
_ZN6Rabbit14addDataWalkersEP14DataFixerUpper = __main_start + 0x2e5644;
_ZN9RailBlock13getBlockStateEi = __main_start + 0x2e698c;
_ZN9RailBlock29convertBlockStateToLegacyDataEPK10BlockState = __main_start + 0x2e69d8;
_ZN9RailBlock18GetInteractTooltipERK22BlockTooltipDataHolder = __main_start + 0x2e6a00;
_ZN9RailBlock6rotateEPK10BlockStateP8Rotation = __main_start + 0x2e6a38;
_ZN9RailBlock6mirrorEPK10BlockStateP6Mirror = __main_start + 0x2e6bd0;
_ZN9RailBlock26createBlockStateDefinitionEv = __main_start + 0x2e6d28;
_ZN9RailBlock10getTextureEPK9DirectionPK10BlockState = __main_start + 0x2e6d9c;
_ZN9RailBlock13registerIconsEP12IconRegister = __main_start + 0x2e6de4;
_ZN6RandomC1Ev = __main_start + 0x2e6e84;
_ZN6Random7setSeedEx = __main_start + 0x2e6ecc;
_ZN6Random8nextLongEv = __main_start + 0x2e701c;
_ZN40RandomizableLockableContainerBlockEntity12setLootTableEP16ResourceLocationx = __main_start + 0x2e716c;
_ZN27RandomScatteredLargeFeature10staticCtorEv = __main_start + 0x2e81a4;
_ZN18RareBiomeSpotLayerC1ExNSt3__110shared_ptrI5LayerEE = __main_start + 0x2e9aa4;
_ZN18RareBiomeSpotLayerD2Ev = __main_start + 0x2e9b24;
_ZN18RareBiomeSpotLayerD0Ev = __main_start + 0x2e9b28;
_ZN18RareBiomeSpotLayer7getAreaEiiii = __main_start + 0x2e9b4c;
_ZN7Recipes10staticCtorEv = __main_start + 0x2e9d8c;
_ZN17RedSandStoneBlock25getSpawnResourcesAuxValueEPK10BlockState = __main_start + 0x2f10bc;
_ZN17RedSandStoneBlock13getBlockStateEi = __main_start + 0x2f1114;
_ZN17RedSandStoneBlock29convertBlockStateToLegacyDataEPK10BlockState = __main_start + 0x2f117c;
_ZN17RedSandStoneBlock26createBlockStateDefinitionEv = __main_start + 0x2f11a4;
_ZN17RedSandStoneBlock10getTextureEPK9DirectionPK10BlockState = __main_start + 0x2f1298;
_ZN17RedSandStoneBlock13registerIconsEP12IconRegister = __main_start + 0x2f1338;
_ZN17RedstoneLampBlock7onPlaceEP5LevelRK8BlockPosPK10BlockState = __main_start + 0x2f16a0;
_ZN17RedstoneLampBlock15neighborChangedEPK10BlockStateP5LevelRK8BlockPosP5BlockRK8BlockPos = __main_start + 0x2f1760;
_ZN17RedstoneLampBlock4tickEP5LevelRK8BlockPosPK10BlockStateP6Random = __main_start + 0x2f1830;
_ZN17RedstoneLampBlock11getResourceEPK10BlockStateP6Randomi = __main_start + 0x2f18bc;
_ZN17RedstoneLampBlock20getCloneItemInstanceEP5LevelRK8BlockPosPK10BlockState = __main_start + 0x2f18cc;
_ZN17RedstoneLampBlock24getSilkTouchItemInstanceEPK10BlockState = __main_start + 0x2f1918;
_ZN17RedstoneLampBlock13registerIconsEP12IconRegister = __main_start + 0x2f1958;
_ZN16RedStoneOreBlock12getTickDelayEP5Level = __main_start + 0x2f1a5c;
_ZN16RedStoneOreBlock6attackEP5LevelRK8BlockPosSt10shared_ptrI6PlayerE = __main_start + 0x2f1a64;
_ZN16RedStoneOreBlock6stepOnEP5LevelRK8BlockPosSt10shared_ptrI6EntityE = __main_start + 0x2f1adc;
_ZN16RedStoneOreBlock7TestUseEv = __main_start + 0x2f1b54;
_ZN16RedStoneOreBlock3useEP5LevelRK8BlockPosPK10BlockStateSt10shared_ptrI6PlayerEN15InteractionHand16EInteractionHandEPK9Directionfffb = __main_start + 0x2f1b6c;
_ZN16RedStoneOreBlock4tickEP5LevelRK8BlockPosPK10BlockStateP6Random = __main_start + 0x2f2040;
_ZN16RedStoneOreBlock11getResourceEPK10BlockStateP6Randomi = __main_start + 0x2f20c0;
_ZN16RedStoneOreBlock28getResourceCountForLootBonusEiP6Random = __main_start + 0x2f20d0;
_ZN16RedStoneOreBlock16getResourceCountEP6Random = __main_start + 0x2f211c;
_ZN16RedStoneOreBlock14spawnResourcesEP5LevelRK8BlockPosPK10BlockStatefi = __main_start + 0x2f2140;
_ZN16RedStoneOreBlock11animateTickEPK10BlockStateP5LevelRK8BlockPosP6Random = __main_start + 0x2f21e8;
_ZN16RedStoneOreBlock18GetInteractTooltipERK22BlockTooltipDataHolder = __main_start + 0x2f2200;
_ZN16RedStoneOreBlock24getSilkTouchItemInstanceEPK10BlockState = __main_start + 0x2f2220;
_ZN16RedStoneOreBlock20getCloneItemInstanceEP5LevelRK8BlockPosPK10BlockState = __main_start + 0x2f2260;
_ZN16RedStoneOreBlock15shouldBlockTickEP5LevelRK8BlockPosPK10BlockState = __main_start + 0x2f22ac;
_ZN18RedstoneTorchBlock12getTickDelayEP5Level = __main_start + 0x2f2840;
_ZN18RedstoneTorchBlock7onPlaceEP5LevelRK8BlockPosPK10BlockState = __main_start + 0x2f2848;
_ZN18RedstoneTorchBlock8onRemoveEP5LevelRK8BlockPosPK10BlockState = __main_start + 0x2f28d0;
_ZN18RedstoneTorchBlock9getSignalEPK10BlockStateP11LevelSourceRK8BlockPosPK9Direction = __main_start + 0x2f2958;
_ZN18RedstoneTorchBlock10randomTickEP5LevelRK8BlockPosPK10BlockStateP6Random = __main_start + 0x2f2a1c;
_ZN18RedstoneTorchBlock4tickEP5LevelRK8BlockPosPK10BlockStateP6Random = __main_start + 0x2f2a20;
_ZN18RedstoneTorchBlock15neighborChangedEPK10BlockStateP5LevelRK8BlockPosP5BlockRK8BlockPos = __main_start + 0x2f2e04;
_ZN18RedstoneTorchBlock15getDirectSignalEPK10BlockStateP11LevelSourceRK8BlockPosPK9Direction = __main_start + 0x2f2ec0;
_ZN18RedstoneTorchBlock11getResourceEPK10BlockStateP6Randomi = __main_start + 0x2f2ee8;
_ZN18RedstoneTorchBlock14isSignalSourceEPK10BlockState = __main_start + 0x2f2ef8;
_ZN18RedstoneTorchBlock11animateTickEPK10BlockStateP5LevelRK8BlockPosP6Random = __main_start + 0x2f2f00;
_ZN18RedstoneTorchBlock20getCloneItemInstanceEP5LevelRK8BlockPosPK10BlockState = __main_start + 0x2f3080;
_ZN18RedstoneTorchBlock10isMatchingEP5Block = __main_start + 0x2f30c0;
_ZN17RedStoneWireBlock8getShapeEPK10BlockStateP11LevelSourceRK8BlockPos = __main_start + 0x2f3640;
_ZN17RedStoneWireBlock31fillVirtualBlockStatePropertiesEPK10BlockStateP11LevelSourceRK8BlockPos = __main_start + 0x2f3868;
_ZN17RedStoneWireBlock11getClipAABBEPK10BlockStateP11LevelSourceRK8BlockPos = __main_start + 0x2f3c48;
_ZNK17RedStoneWireBlock13isSolidRenderEPK10BlockState = __main_start + 0x2f3c58;
_ZN17RedStoneWireBlock12isCubeShapedEPK10BlockState = __main_start + 0x2f3c60;
_ZN17RedStoneWireBlock8mayPlaceEP5LevelRK8BlockPos = __main_start + 0x2f3c68;
_ZN17RedStoneWireBlock7onPlaceEP5LevelRK8BlockPosPK10BlockState = __main_start + 0x2f46c0;
_ZN17RedStoneWireBlock8onRemoveEP5LevelRK8BlockPosPK10BlockState = __main_start + 0x2f4854;
_ZN17RedStoneWireBlock15neighborChangedEPK10BlockStateP5LevelRK8BlockPosP5BlockRK8BlockPos = __main_start + 0x2f49e0;
_ZN17RedStoneWireBlock11getResourceEPK10BlockStateP6Randomi = __main_start + 0x2f4a94;
_ZN17RedStoneWireBlock15getDirectSignalEPK10BlockStateP11LevelSourceRK8BlockPosPK9Direction = __main_start + 0x2f4aa4;
_ZN17RedStoneWireBlock9getSignalEPK10BlockStateP11LevelSourceRK8BlockPosPK9Direction = __main_start + 0x2f4ad0;
_ZN17RedStoneWireBlock14isSignalSourceEPK10BlockState = __main_start + 0x2f4fc4;
_ZN17RedStoneWireBlock11animateTickEPK10BlockStateP5LevelRK8BlockPosP6Random = __main_start + 0x2f50b4;
_ZN17RedStoneWireBlock20getCloneItemInstanceEP5LevelRK8BlockPosPK10BlockState = __main_start + 0x2f523c;
_ZN17RedStoneWireBlock14getRenderLayerEv = __main_start + 0x2f527c;
_ZN17RedStoneWireBlock13getBlockStateEi = __main_start + 0x2f5284;
_ZN17RedStoneWireBlock29convertBlockStateToLegacyDataEPK10BlockState = __main_start + 0x2f52b4;
_ZN17RedStoneWireBlock6rotateEPK10BlockStateP8Rotation = __main_start + 0x2f52cc;
_ZN17RedStoneWireBlock6mirrorEPK10BlockStateP6Mirror = __main_start + 0x2f543c;
_ZN17RedStoneWireBlock26createBlockStateDefinitionEv = __main_start + 0x2f5504;
_ZN17RedStoneWireBlock17getBlockFaceShapeEP11LevelSourcePK10BlockStateRK8BlockPosPK9Direction = __main_start + 0x2f55b8;
_ZN17RedStoneWireBlock13registerIconsEP12IconRegister = __main_start + 0x2f561c;
_ZN17RedStoneWireBlock14getRenderShapeEPK10BlockState = __main_start + 0x2f5a78;
_ZN10ReedsBlock8getShapeEPK10BlockStateP11LevelSourceRK8BlockPos = __main_start + 0x2f5b0c;
_ZN10ReedsBlock4tickEP5LevelRK8BlockPosPK10BlockStateP6Random = __main_start + 0x2f5b1c;
_ZN10ReedsBlock8mayPlaceEP5LevelRK8BlockPos = __main_start + 0x2f5d38;
_ZN10ReedsBlock15neighborChangedEPK10BlockStateP5LevelRK8BlockPosP5BlockRK8BlockPos = __main_start + 0x2f5ea4;
_ZN10ReedsBlock10canSurviveEP5LevelRK8BlockPos = __main_start + 0x2f5eb8;
_ZN10ReedsBlock11getClipAABBEPK10BlockStateP11LevelSourceRK8BlockPos = __main_start + 0x2f5ec4;
_ZN10ReedsBlock11getResourceEPK10BlockStateP6Randomi = __main_start + 0x2f5ed4;
_ZNK10ReedsBlock13isSolidRenderEPK10BlockState = __main_start + 0x2f5ee4;
_ZN10ReedsBlock12isCubeShapedEPK10BlockState = __main_start + 0x2f5eec;
_ZN10ReedsBlock20getCloneItemInstanceEP5LevelRK8BlockPosPK10BlockState = __main_start + 0x2f5ef4;
_ZN10ReedsBlock8getColorEP11LevelSourceRK8BlockPosi = __main_start + 0x2f5f34;
_ZN10ReedsBlock14getRenderLayerEv = __main_start + 0x2f5f3c;
_ZN10ReedsBlock13getBlockStateEi = __main_start + 0x2f5f44;
_ZN10ReedsBlock29convertBlockStateToLegacyDataEPK10BlockState = __main_start + 0x2f5f74;
_ZN10ReedsBlock26createBlockStateDefinitionEv = __main_start + 0x2f5f8c;
_ZN10ReedsBlock17getBlockFaceShapeEP11LevelSourcePK10BlockStateRK8BlockPosPK9Direction = __main_start + 0x2f6000;
_ZN10ReedsBlock15shouldBlockTickEP5LevelRK8BlockPosPK10BlockState = __main_start + 0x2f6008;
_ZN10ReedsBlock14getRenderShapeEPK10BlockState = __main_start + 0x2f6054;
_ZN10ReedsBlock18GetInteractTooltipERK22BlockTooltipDataHolder = __main_start + 0x2f6320;
_ZN6RegionD1Ev = __main_start + 0x2f6644;
_ZN17array2DWithLengthIP10LevelChunkE3getEi = __main_start + 0x2f66e0;
_ZN6RegionD0Ev = __main_start + 0x2f66ec;
_ZN6RegionC1EP5LevelRK8BlockPosS4_i = __main_start + 0x2f6710;
_ZN17array2DWithLengthIP10LevelChunkEC1Ejj = __main_start + 0x2f691c;
_ZN6Region10isAllEmptyEv = __main_start + 0x2f6bcc;
_ZN6Region14getBlockEntityERK8BlockPos = __main_start + 0x2f6bd4;
_ZN6Region13getBrightnessERK8BlockPosi = __main_start + 0x2f6c68;
_ZN6Region13getLightColorERK8BlockPosii = __main_start + 0x2f6cac;
_ZN6Region13getBrightnessERK8BlockPos = __main_start + 0x2f6e88;
_ZN6Region13getBlockStateERK8BlockPos = __main_start + 0x2f7080;
_ZN6Region10getBlockIdEiii = __main_start + 0x2f71ec;
_ZN6Region12getBlockDataEiii = __main_start + 0x2f7324;
_ZN6Region8getBlockERK8BlockPos = __main_start + 0x2f7470;
_ZN6Region14getBiomeSourceEv = __main_start + 0x2f75e4;
_ZN6Region8getBiomeERK8BlockPos = __main_start + 0x2f75f4;
_ZN6Region12isEmptyBlockERK8BlockPos = __main_start + 0x2f7690;
_ZN6Region13getBrightnessEN10LightLayer7varietyERK8BlockPos = __main_start + 0x2f76cc;
_ZN6Region17getMaxBuildHeightEv = __main_start + 0x2f7784;
_ZN6Region15getDirectSignalERK8BlockPosPK9Direction = __main_start + 0x2f778c;
_ZN6Region16getGeneratorTypeEv = __main_start + 0x2f77d8;
_ZN16RegionHillsLayerC1ExNSt3__110shared_ptrI5LayerEES1_IS2_E = __main_start + 0x2f8ef0;
_ZN16RegionHillsLayer7getAreaEiiii = __main_start + 0x2f8fb4;
_ZN23RemoveTooMuchOceanLayerC1ExNSt3__110shared_ptrI5LayerEE = __main_start + 0x2f9550;
_ZN23RemoveTooMuchOceanLayerD2Ev = __main_start + 0x2f95d0;
_ZN23RemoveTooMuchOceanLayerD0Ev = __main_start + 0x2f95d4;
_ZN23RemoveTooMuchOceanLayer7getAreaEiiii = __main_start + 0x2f95f8;
_ZN13RepeaterBlock7getNameEv = __main_start + 0x2fa4dc;
_ZN13RepeaterBlock31fillVirtualBlockStatePropertiesEPK10BlockStateP11LevelSourceRK8BlockPos = __main_start + 0x2fa520;
_ZN13RepeaterBlock6rotateEPK10BlockStateP8Rotation = __main_start + 0x2fa56c;
_ZN13RepeaterBlock6mirrorEPK10BlockStateP6Mirror = __main_start + 0x2fa5c4;
_ZN13RepeaterBlock3useEP5LevelRK8BlockPosPK10BlockStateSt10shared_ptrI6PlayerEN15InteractionHand16EInteractionHandEPK9Directionfffb = __main_start + 0x2fa624;
_ZN13RepeaterBlock11getResourceEPK10BlockStateP6Randomi = __main_start + 0x2fa844;
_ZN13RepeaterBlock20getCloneItemInstanceEP5LevelRK8BlockPosPK10BlockState = __main_start + 0x2fa854;
_ZN13RepeaterBlock11animateTickEPK10BlockStateP5LevelRK8BlockPosP6Random = __main_start + 0x2fa8c0;
_ZN13RepeaterBlock8onRemoveEP5LevelRK8BlockPosPK10BlockState = __main_start + 0x2faa84;
_ZN13RepeaterBlock13getBlockStateEi = __main_start + 0x2faad0;
_ZN13RepeaterBlock29convertBlockStateToLegacyDataEPK10BlockState = __main_start + 0x2fab48;
_ZN13RepeaterBlock18GetInteractTooltipERK22BlockTooltipDataHolder = __main_start + 0x2faba0;
_ZN13RepeaterBlock26createBlockStateDefinitionEv = __main_start + 0x2fabc8;
_ZN13RepeaterBlock7TestUseEv = __main_start + 0x2fac5c;
_ZN13RepeaterBlock14getRenderShapeEPK10BlockState = __main_start + 0x2fac64;
_ZN10RiverBiomeC1EN5Biome9EBiomeIDsEPN5Biome15BiomePropertiesE = __main_start + 0x2fc29c;
_ZN14RiverInitLayerC1ExNSt3__110shared_ptrI5LayerEE = __main_start + 0x2fc338;
_ZN14RiverInitLayer7getAreaEiiii = __main_start + 0x2fc3b8;
_ZN10RiverLayerC1ExNSt3__110shared_ptrI5LayerEE = __main_start + 0x2fc518;
_ZN10RiverLayer7getAreaEiiii = __main_start + 0x2fc598;
_ZN15RiverMixerLayerC1ExNSt3__110shared_ptrI5LayerEES1_IS2_E = __main_start + 0x2fc764;
_ZN15RiverMixerLayer4initEx = __main_start + 0x2fc84c;
_ZN15RiverMixerLayer7getAreaEiiii = __main_start + 0x2fc898;
_ZN15RoofTreeFeature10staticCtorEv = __main_start + 0x2fcaac;
_ZN18RotatedPillarBlock6rotateEPK10BlockStateP8Rotation = __main_start + 0x2fe2dc;
_ZN18RotatedPillarBlock13getBlockStateEi = __main_start + 0x2fe364;
_ZN18RotatedPillarBlock29convertBlockStateToLegacyDataEPK10BlockState = __main_start + 0x2fe3c0;
_ZN18RotatedPillarBlock26createBlockStateDefinitionEv = __main_start + 0x2fe420;
_ZN18RotatedPillarBlock24getSilkTouchItemInstanceEPK10BlockState = __main_start + 0x2fe494;
_ZN18RotatedPillarBlock20getStateForPlacementEP5LevelRK8BlockPosPK9DirectionfffiSt10shared_ptrI12LivingEntityE = __main_start + 0x2fe4e4;
_ZN18RotatedPillarBlock10getTextureEPK9DirectionPK10BlockState = __main_start + 0x2fe5bc;
_ZN18RotatedPillarBlock14getRenderShapeEPK10BlockState = __main_start + 0x2fe6d0;
_ZN9SandBlock25getSpawnResourcesAuxValueEPK10BlockState = __main_start + 0x2ff404;
_ZN9SandBlock7Variant7getDataEv = __main_start + 0x2ff454;
_ZN9SandBlock11getMapColorEPK10BlockStateP11LevelSourceRK8BlockPos = __main_start + 0x2ff45c;
_ZN9SandBlock13getBlockStateEi = __main_start + 0x2ff484;
_ZN9SandBlock29convertBlockStateToLegacyDataEPK10BlockState = __main_start + 0x2ff4ec;
_ZN9SandBlock26createBlockStateDefinitionEv = __main_start + 0x2ff514;
_ZN9SandBlock10getTextureEPK9DirectionPK10BlockState = __main_start + 0x2ff670;
_ZN9SandBlock13registerIconsEP12IconRegister = __main_start + 0x2ff6ac;
_ZN14SandStoneBlock25getSpawnResourcesAuxValueEPK10BlockState = __main_start + 0x2ffdd0;
_ZN14SandStoneBlock11getMapColorEPK10BlockStateP11LevelSourceRK8BlockPos = __main_start + 0x2ffe28;
_ZN14SandStoneBlock13getBlockStateEi = __main_start + 0x2ffe38;
_ZN14SandStoneBlock29convertBlockStateToLegacyDataEPK10BlockState = __main_start + 0x2ffea0;
_ZN14SandStoneBlock26createBlockStateDefinitionEv = __main_start + 0x2ffec8;
_ZN14SandStoneBlock10getTextureEPK9DirectionPK10BlockState = __main_start + 0x2fffbc;
_ZN14SandStoneBlock13registerIconsEP12IconRegister = __main_start + 0x30005c;
_ZN12SaplingBlock7getNameEv = __main_start + 0x300220;
_ZN12SaplingBlock8getShapeEPK10BlockStateP11LevelSourceRK8BlockPos = __main_start + 0x300264;
_ZN12SaplingBlock4tickEP5LevelRK8BlockPosPK10BlockStateP6Random = __main_start + 0x300274;
_ZN12SaplingBlock25getSpawnResourcesAuxValueEPK10BlockState = __main_start + 0x300e60;
_ZN12SaplingBlock13getBlockStateEi = __main_start + 0x300eec;
_ZN12SaplingBlock29convertBlockStateToLegacyDataEPK10BlockState = __main_start + 0x300f4c;
_ZN12SaplingBlock18GetInteractTooltipERK22BlockTooltipDataHolder = __main_start + 0x300f9c;
_ZN12SaplingBlock26createBlockStateDefinitionEv = __main_start + 0x30100c;
_ZN12SaplingBlock10getTextureEPK9DirectionPK10BlockState = __main_start + 0x30108c;
_ZN12SaplingBlock13registerIconsEP12IconRegister = __main_start + 0x3010c8;
_ZN12SaplingBlock16getDescriptionIdEi = __main_start + 0x301188;
_ZN12SavannaBiomeC1EN5Biome9EBiomeIDsEPN5Biome15BiomePropertiesE = __main_start + 0x3011c8;
_ZN18SavannaTreeFeature10staticCtorEv = __main_start + 0x3014c8;
_ZN22ScatteredFeaturePieces18JunglePyramidPiece10staticCtorEv = __main_start + 0x309eec;
_ZN16ScoreboardPacketC1Ev = __main_start + 0x30d5e8;
_ZN16ScoreboardPacketD2Ev = __main_start + 0x30d66c;
_ZN16ScoreboardPacketD0Ev = __main_start + 0x30d6b8;
_ZN16ScoreboardPacket4readEP15DataInputStream = __main_start + 0x30d6dc;
_ZN16ScoreboardPacket5writeEP16DataOutputStream = __main_start + 0x30d7d0;
_ZN16ScoreboardPacket6handleEP14PacketListener = __main_start + 0x30d814;
_ZN16ScoreboardPacket16getEstimatedSizeEv = __main_start + 0x30d864;
_ZN15SeaLanternBlock16getResourceCountEP6Random = __main_start + 0x30dee8;
_ZN15SeaLanternBlock28getResourceCountForLootBonusEiP6Random = __main_start + 0x30df0c;
_ZN15SeaLanternBlock11getResourceEPK10BlockStateP6Randomi = __main_start + 0x30df60;
_ZN15SeaLanternBlock11getMapColorEPK10BlockStateP11LevelSourceRK8BlockPos = __main_start + 0x30df70;
_ZN15SeaLanternBlock15isSilkTouchableEv = __main_start + 0x30df80;
_ZN7SensingC1Ev = __main_start + 0x30e334;
_ZN36ServerboundAcceptTeleportationPacketC1Ev = __main_start + 0x30e3a4;
_ZN36ServerboundAcceptTeleportationPacket4readEP15DataInputStream = __main_start + 0x30e414;
_ZN36ServerboundAcceptTeleportationPacket5writeEP16DataOutputStream = __main_start + 0x30e43c;
_ZN36ServerboundAcceptTeleportationPacket6handleEP14PacketListener = __main_start + 0x30e44c;
_ZN33ServerboundChatAutoCompletePacketC1Ev = __main_start + 0x30e4a4;
_ZN33ServerboundChatAutoCompletePacketD2Ev = __main_start + 0x30e4e4;
_ZN33ServerboundChatAutoCompletePacketD0Ev = __main_start + 0x30e530;
_ZN33ServerboundChatAutoCompletePacket4readEP15DataInputStream = __main_start + 0x30e554;
_ZN33ServerboundChatAutoCompletePacket5writeEP16DataOutputStream = __main_start + 0x30e658;
_ZN33ServerboundChatAutoCompletePacket6handleEP14PacketListener = __main_start + 0x30e6d4;
_ZN21ServerboundChatPacketC1Ev = __main_start + 0x30e724;
_ZN21ServerboundChatPacketD2Ev = __main_start + 0x30e760;
_ZN21ServerboundChatPacketD0Ev = __main_start + 0x30e7a4;
_ZN21ServerboundChatPacket4readEP15DataInputStream = __main_start + 0x30e7c8;
_ZN21ServerboundChatPacket5writeEP16DataOutputStream = __main_start + 0x30e86c;
_ZN21ServerboundChatPacket6handleEP14PacketListener = __main_start + 0x30e874;
_ZN30ServerboundClientCommandPacketC1Ev = __main_start + 0x30e8c4;
_ZN30ServerboundClientCommandPacket4readEP15DataInputStream = __main_start + 0x30e938;
_ZN30ServerboundClientCommandPacket5writeEP16DataOutputStream = __main_start + 0x30e968;
_ZN30ServerboundClientCommandPacket6handleEP14PacketListener = __main_start + 0x30e980;
_ZN30ServerboundClientCommandPacket16getEstimatedSizeEv = __main_start + 0x30e9f8;
_ZN29ServerboundContainerAckPacketC1Ev = __main_start + 0x30ea08;
_ZN29ServerboundContainerAckPacketD2Ev = __main_start + 0x30ea3c;
_ZN29ServerboundContainerAckPacketD0Ev = __main_start + 0x30ea64;
_ZN29ServerboundContainerAckPacket6handleEP14PacketListener = __main_start + 0x30eadc;
_ZN29ServerboundContainerAckPacket4readEP15DataInputStream = __main_start + 0x30eb2c;
_ZN29ServerboundContainerAckPacket5writeEP16DataOutputStream = __main_start + 0x30eb90;
_ZN37ServerboundContainerButtonClickPacketC1Ev = __main_start + 0x30ebf8;
_ZN37ServerboundContainerButtonClickPacket6handleEP14PacketListener = __main_start + 0x30ec74;
_ZN37ServerboundContainerButtonClickPacket4readEP15DataInputStream = __main_start + 0x30ecc4;
_ZN37ServerboundContainerButtonClickPacket5writeEP16DataOutputStream = __main_start + 0x30ed14;
_ZN37ServerboundContainerButtonClickPacket16getEstimatedSizeEv = __main_start + 0x30ed58;
_ZN31ServerboundContainerClickPacketC1Ev = __main_start + 0x30ed70;
_ZN31ServerboundContainerClickPacketD2Ev = __main_start + 0x30eee0;
_ZN31ServerboundContainerClickPacketD0Ev = __main_start + 0x30ef54;
_ZN31ServerboundContainerClickPacket6handleEP14PacketListener = __main_start + 0x30ef78;
_ZN31ServerboundContainerClickPacket4readEP15DataInputStream = __main_start + 0x30efc8;
_ZN31ServerboundContainerClickPacket5writeEP16DataOutputStream = __main_start + 0x30f0f0;
_ZN31ServerboundContainerClickPacket16getEstimatedSizeEv = __main_start + 0x30f1d0;
_ZN31ServerboundContainerClosePacketC1Ev = __main_start + 0x30f2b8;
_ZN31ServerboundContainerClosePacketD2Ev = __main_start + 0x30f2ec;
_ZN31ServerboundContainerClosePacketD0Ev = __main_start + 0x30f314;
_ZN31ServerboundContainerClosePacket6handleEP14PacketListener = __main_start + 0x30f374;
_ZN31ServerboundContainerClosePacket4readEP15DataInputStream = __main_start + 0x30f3c4;
_ZN31ServerboundContainerClosePacket5writeEP16DataOutputStream = __main_start + 0x30f3f8;
_ZN30ServerboundCustomPayloadPacketC1Ev = __main_start + 0x30f410;
_ZN30ServerboundCustomPayloadPacketD2Ev = __main_start + 0x30f450;
_ZN30ServerboundCustomPayloadPacketD0Ev = __main_start + 0x30f49c;
_ZN30ServerboundCustomPayloadPacket4readEP15DataInputStream = __main_start + 0x30f52c;
_ZN30ServerboundCustomPayloadPacket5writeEP16DataOutputStream = __main_start + 0x30f644;
_ZN30ServerboundCustomPayloadPacket6handleEP14PacketListener = __main_start + 0x30f6a4;
_ZN25ServerboundInteractPacketC1Ev = __main_start + 0x30f70c;
_ZN25ServerboundInteractPacketD2Ev = __main_start + 0x30f864;
_ZN25ServerboundInteractPacketD0Ev = __main_start + 0x30f8a8;
_ZN25ServerboundInteractPacket4readEP15DataInputStream = __main_start + 0x30f8cc;
_ZN25ServerboundInteractPacket5writeEP16DataOutputStream = __main_start + 0x30f994;
_ZN25ServerboundInteractPacket6handleEP14PacketListener = __main_start + 0x30fa60;
_ZN25ServerboundInteractPacket16getEstimatedSizeEv = __main_start + 0x30fab0;
_ZN26ServerboundKeepAlivePacketC1Ev = __main_start + 0x30fae8;
_ZN26ServerboundKeepAlivePacketD2Ev = __main_start + 0x30fb20;
_ZN26ServerboundKeepAlivePacketD0Ev = __main_start + 0x30fb48;
_ZN26ServerboundKeepAlivePacket6handleEP14PacketListener = __main_start + 0x30fb6c;
_ZN26ServerboundKeepAlivePacket4readEP15DataInputStream = __main_start + 0x30fbbc;
_ZN26ServerboundKeepAlivePacket5writeEP16DataOutputStream = __main_start + 0x30fbe4;
_ZN27ServerboundMovePlayerPacketC1Ev = __main_start + 0x30fbf4;
_ZN27ServerboundMovePlayerPacket6handleEP14PacketListener = __main_start + 0x30fc94;
_ZN27ServerboundMovePlayerPacket4readEP15DataInputStream = __main_start + 0x30fce4;
_ZN27ServerboundMovePlayerPacket5writeEP16DataOutputStream = __main_start + 0x30fd24;
_ZN27ServerboundMovePlayerPacket16getEstimatedSizeEv = __main_start + 0x30fd44;
_ZN27ServerboundMovePlayerPacket16canBeInvalidatedEv = __main_start + 0x30fd4c;
_ZN27ServerboundMovePlayerPacket15isInvalidatedByESt10shared_ptrI6PacketE = __main_start + 0x30fd54;
_ZN27ServerboundMovePlayerPacket6PosRotC1Ev = __main_start + 0x30fdb4;
_ZN27ServerboundMovePlayerPacket6PosRot4readEP15DataInputStream = __main_start + 0x30fe80;
_ZN27ServerboundMovePlayerPacket6PosRot5writeEP16DataOutputStream = __main_start + 0x30ff0c;
_ZN27ServerboundMovePlayerPacket6PosRot16getEstimatedSizeEv = __main_start + 0x30ff98;
_ZN27ServerboundMovePlayerPacket3PosC1Ev = __main_start + 0x30ffa0;
_ZN27ServerboundMovePlayerPacket3Pos4readEP15DataInputStream = __main_start + 0x310050;
_ZN27ServerboundMovePlayerPacket3Pos5writeEP16DataOutputStream = __main_start + 0x3100b4;
_ZN27ServerboundMovePlayerPacket3Pos16getEstimatedSizeEv = __main_start + 0x310118;
_ZN27ServerboundMovePlayerPacket3RotC1Ev = __main_start + 0x310120;
_ZN27ServerboundMovePlayerPacket3Rot4readEP15DataInputStream = __main_start + 0x3101c0;
_ZN27ServerboundMovePlayerPacket3Rot5writeEP16DataOutputStream = __main_start + 0x310210;
_ZN27ServerboundMovePlayerPacket3Rot16getEstimatedSizeEv = __main_start + 0x310260;
_ZN28ServerboundMoveVehiclePacketC1Ev = __main_start + 0x310268;
_ZN28ServerboundMoveVehiclePacket4readEP15DataInputStream = __main_start + 0x310310;
_ZN28ServerboundMoveVehiclePacket5writeEP16DataOutputStream = __main_start + 0x310394;
_ZN28ServerboundMoveVehiclePacket6handleEP14PacketListener = __main_start + 0x310414;
_ZN27ServerboundPaddleBoatPacketC1Ev = __main_start + 0x31048c;
_ZN27ServerboundPaddleBoatPacket4readEP15DataInputStream = __main_start + 0x31050c;
_ZN27ServerboundPaddleBoatPacket5writeEP16DataOutputStream = __main_start + 0x31055c;
_ZN27ServerboundPaddleBoatPacket6handleEP14PacketListener = __main_start + 0x3105a0;
_ZN32ServerboundPlayerAbilitiesPacketC1Ev = __main_start + 0x310600;
_ZN32ServerboundPlayerAbilitiesPacket4readEP15DataInputStream = __main_start + 0x310704;
_ZN32ServerboundPlayerAbilitiesPacket5writeEP16DataOutputStream = __main_start + 0x31079c;
_ZN32ServerboundPlayerAbilitiesPacket6handleEP14PacketListener = __main_start + 0x310864;
_ZN29ServerboundPlayerActionPacketC1Ev = __main_start + 0x3108b4;
_ZN29ServerboundPlayerActionPacket4readEP15DataInputStream = __main_start + 0x310970;
_ZN29ServerboundPlayerActionPacket5writeEP16DataOutputStream = __main_start + 0x3109e4;
_ZN29ServerboundPlayerActionPacket6handleEP14PacketListener = __main_start + 0x310a58;
_ZN29ServerboundPlayerActionPacket16getEstimatedSizeEv = __main_start + 0x310aa8;
_ZN30ServerboundPlayerCommandPacketC1Ev = __main_start + 0x310ad8;
_ZN30ServerboundPlayerCommandPacket4readEP15DataInputStream = __main_start + 0x310bc4;
_ZN30ServerboundPlayerCommandPacket5writeEP16DataOutputStream = __main_start + 0x310c10;
_ZN30ServerboundPlayerCommandPacket6handleEP14PacketListener = __main_start + 0x310c58;
_ZN30ServerboundPlayerCommandPacket16getEstimatedSizeEv = __main_start + 0x310ca8;
_ZN28ServerboundPlayerInputPacketC1Ev = __main_start + 0x310cc0;
_ZN28ServerboundPlayerInputPacket4readEP15DataInputStream = __main_start + 0x310d60;
_ZN28ServerboundPlayerInputPacket5writeEP16DataOutputStream = __main_start + 0x310dc8;
_ZN28ServerboundPlayerInputPacket6handleEP14PacketListener = __main_start + 0x310e30;
_ZN28ServerboundPlayerInputPacket16getEstimatedSizeEv = __main_start + 0x310e80;
_ZN25ServerboundPreLoginPacketC1Ev = __main_start + 0x310ea8;
_ZN25ServerboundPreLoginPacket4readEP15DataInputStream = __main_start + 0x310f48;
_ZN25ServerboundPreLoginPacket5writeEP16DataOutputStream = __main_start + 0x311000;
_ZN25ServerboundPreLoginPacket6handleEP14PacketListener = __main_start + 0x31103c;
_ZN25ServerboundPreLoginPacket16getEstimatedSizeEv = __main_start + 0x31108c;
_ZN29ServerboundResourcePackPacketC1Ev = __main_start + 0x3110ac;
_ZN29ServerboundResourcePackPacketD2Ev = __main_start + 0x3110e0;
_ZN29ServerboundResourcePackPacketD0Ev = __main_start + 0x311108;
_ZN29ServerboundResourcePackPacket4readEP15DataInputStream = __main_start + 0x31112c;
_ZN29ServerboundResourcePackPacket5writeEP16DataOutputStream = __main_start + 0x31115c;
_ZN29ServerboundResourcePackPacket6handleEP14PacketListener = __main_start + 0x311174;
_ZN31ServerboundSetCarriedItemPacketC1Ev = __main_start + 0x3111c4;
_ZN31ServerboundSetCarriedItemPacketD2Ev = __main_start + 0x3111f8;
_ZN31ServerboundSetCarriedItemPacketD0Ev = __main_start + 0x311220;
_ZN31ServerboundSetCarriedItemPacketC1Ei = __main_start + 0x311244;
_ZN31ServerboundSetCarriedItemPacket4readEP15DataInputStream = __main_start + 0x311280;
_ZN31ServerboundSetCarriedItemPacket5writeEP16DataOutputStream = __main_start + 0x3112b4;
_ZN31ServerboundSetCarriedItemPacket6handleEP14PacketListener = __main_start + 0x3112cc;
_ZN31ServerboundSetCarriedItemPacket14getCarriedItemEv = __main_start + 0x31131c;
_ZN36ServerboundSetCreativeModeSlotPacketC1Ev = __main_start + 0x311324;
_ZN36ServerboundSetCreativeModeSlotPacket6handleEP14PacketListener = __main_start + 0x311410;
_ZN36ServerboundSetCreativeModeSlotPacket4readEP15DataInputStream = __main_start + 0x311460;
_ZN36ServerboundSetCreativeModeSlotPacket5writeEP16DataOutputStream = __main_start + 0x3114c0;
_ZN36ServerboundSetCreativeModeSlotPacket16getEstimatedSizeEv = __main_start + 0x31151c;
_ZN27ServerboundSignUpdatePacketC1Ev = __main_start + 0x311538;
_ZN27ServerboundSignUpdatePacketD2Ev = __main_start + 0x31157c;
_ZN27ServerboundSignUpdatePacketD0Ev = __main_start + 0x3115f4;
_ZN27ServerboundSignUpdatePacket4readEP15DataInputStream = __main_start + 0x3116e0;
_ZN27ServerboundSignUpdatePacket5writeEP16DataOutputStream = __main_start + 0x311964;
_ZN27ServerboundSignUpdatePacket6handleEP14PacketListener = __main_start + 0x3119dc;
_ZN22ServerboundSwingPacketC1Ev = __main_start + 0x311a4c;
_ZN22ServerboundSwingPacketC1EN15InteractionHand16EInteractionHandE = __main_start + 0x311a84;
_ZN22ServerboundSwingPacket4readEP15DataInputStream = __main_start + 0x311ac0;
_ZN22ServerboundSwingPacket5writeEP16DataOutputStream = __main_start + 0x311af0;
_ZN22ServerboundSwingPacket6handleEP14PacketListener = __main_start + 0x311b08;
_ZN22ServerboundSwingPacket7getHandEv = __main_start + 0x311b58;
_ZN33ServerboundTeleportToEntityPacketC1Ev = __main_start + 0x311b60;
_ZN33ServerboundTeleportToEntityPacketD2Ev = __main_start + 0x311bd4;
_ZN33ServerboundTeleportToEntityPacketD0Ev = __main_start + 0x311bfc;
_ZN33ServerboundTeleportToEntityPacket4readEP15DataInputStream = __main_start + 0x311c20;
_ZN33ServerboundTeleportToEntityPacket5writeEP16DataOutputStream = __main_start + 0x311c78;
_ZN33ServerboundTeleportToEntityPacket6handleEP14PacketListener = __main_start + 0x311cc8;
_ZN26ServerboundUseItemOnPacketC1Ev = __main_start + 0x311d64;
_ZN26ServerboundUseItemOnPacket4readEP15DataInputStream = __main_start + 0x311e2c;
_ZN26ServerboundUseItemOnPacket5writeEP16DataOutputStream = __main_start + 0x311ecc;
_ZN26ServerboundUseItemOnPacket6handleEP14PacketListener = __main_start + 0x311f68;
_ZN24ServerboundUseItemPacketC1Ev = __main_start + 0x311ff0;
_ZN24ServerboundUseItemPacket4readEP15DataInputStream = __main_start + 0x312064;
_ZN24ServerboundUseItemPacket5writeEP16DataOutputStream = __main_start + 0x312098;
_ZN24ServerboundUseItemPacket6handleEP14PacketListener = __main_start + 0x3120b0;
_ZN24ServerboundUseItemPacket16getEstimatedSizeEv = __main_start + 0x312100;
_ZN24ServerGamePacketListener20handleUpdateProgressESt10shared_ptrI20UpdateProgressPacketE = __main_start + 0x312110;
_ZN24ServerGamePacketListener19handleTextureChangeESt10shared_ptrI19TextureChangePacketE = __main_start + 0x312168;
_ZN24ServerGamePacketListener30handleTextureAndGeometryChangeESt10shared_ptrI30TextureAndGeometryChangePacketE = __main_start + 0x3121c0;
_ZN24ServerGamePacketListener34handleUpdateGameRuleProgressPacketESt10shared_ptrI28UpdateGameRuleProgressPacketE = __main_start + 0x312218;
_ZN24ServerGamePacketListener8handleXZESt10shared_ptrI8XZPacketE = __main_start + 0x312270;
_ZN24ServerGamePacketListener22handleScoreboardPacketESt10shared_ptrI16ScoreboardPacketE = __main_start + 0x3122c8;
_ZN24ServerGamePacketListener14handleGameModeESt10shared_ptrI14GameModePacketE = __main_start + 0x312320;
_ZN24ServerGamePacketListener19handleMapSelectInfoESt10shared_ptrI19MapSelectInfoPacketE = __main_start + 0x312378;
_ZN24ServerGamePacketListener17handlePlayerReadyESt10shared_ptrI17PlayerReadyPacketE = __main_start + 0x3123d0;
_ZN24ServerGamePacketListener13handlePowerupESt10shared_ptrI24ClientboundPowerupPacketE = __main_start + 0x312480;
_ZN24ServerGamePacketListener21handleDamageIndicatorESt10shared_ptrI32ClientboundDamageIndicatorPacketE = __main_start + 0x3124d8;
_ZN24ServerGamePacketListener40handleMiniGamePlayerSettingsUpdatePacketESt10shared_ptrI39ClientboundMGPlayerSettingsUpdatePacketE = __main_start + 0x312530;
_ZN24ServerGamePacketListener19handleClientCommandESt10shared_ptrI30ServerboundClientCommandPacketE = __main_start + 0x312588;
_ZN24ServerGamePacketListener23handleClientInformationESt10shared_ptrI34ServerboundClientInformationPacketE = __main_start + 0x3125e0;
_ZN24ServerGamePacketListener26handleContainerButtonClickESt10shared_ptrI37ServerboundContainerButtonClickPacketE = __main_start + 0x312638;
_ZN24ServerGamePacketListener20handleContainerClickESt10shared_ptrI31ServerboundContainerClickPacketE = __main_start + 0x312690;
_ZN24ServerGamePacketListener14handleInteractESt10shared_ptrI25ServerboundInteractPacketE = __main_start + 0x3126e8;
_ZN24ServerGamePacketListener19handlePlayerCommandESt10shared_ptrI30ServerboundPlayerCommandPacketE = __main_start + 0x312740;
_ZN24ServerGamePacketListener17handlePlayerInputESt10shared_ptrI28ServerboundPlayerInputPacketE = __main_start + 0x312798;
_ZN24ServerGamePacketListener25handleSetCreativeModeSlotESt10shared_ptrI36ServerboundSetCreativeModeSlotPacketE = __main_start + 0x3127f0;
_ZN24ServerGamePacketListener15handleUseItemOnESt10shared_ptrI26ServerboundUseItemOnPacketE = __main_start + 0x312848;
_ZN24ServerGamePacketListener13handleUseItemESt10shared_ptrI24ServerboundUseItemPacketE = __main_start + 0x3128a0;
_ZN24ServerGamePacketListener28handleTeleportToEntityPacketESt10shared_ptrI33ServerboundTeleportToEntityPacketE = __main_start + 0x3128f8;
_ZN27ServerSettingsChangedPacketD2Ev = __main_start + 0x312b94;
_ZN27ServerSettingsChangedPacketD0Ev = __main_start + 0x312bbc;
_ZN27ServerSettingsChangedPacketC1Ev = __main_start + 0x312be0;
_ZN27ServerSettingsChangedPacket6handleEP14PacketListener = __main_start + 0x312c6c;
_ZN27ServerSettingsChangedPacket4readEP15DataInputStream = __main_start + 0x312cbc;
_ZN27ServerSettingsChangedPacket5writeEP16DataOutputStream = __main_start + 0x312d04;
_ZN27ServerSettingsChangedPacket16getEstimatedSizeEv = __main_start + 0x312d48;
_ZN15SharedConstants10staticCtorEv = __main_start + 0x314ff8;
_ZN5Sheep10staticCtorEv = __main_start + 0x315e10;
_ZN5Sheep14addDataWalkersEP14DataFixerUpper = __main_start + 0x3168dc;
_ZN10ShoreLayerC1ExNSt3__110shared_ptrI5LayerEE = __main_start + 0x3171c4;
_ZN10ShoreLayer7getAreaEiiii = __main_start + 0x317244;
_ZN8ShortTag5writeEP10DataOutput = __main_start + 0x317ab8;
_ZN8ShortTag4loadEP9DataInputi = __main_start + 0x317ad0;
_ZN8ShortTag5getIdEv = __main_start + 0x317b00;
_ZN8ShortTag8toStringEv = __main_start + 0x317b08;
_ZN8ShortTag4copyEv = __main_start + 0x317b60;
_ZN8ShortTag6equalsEP3Tag = __main_start + 0x317b94;
_ZN8ShortTag9getAsLongEv = __main_start + 0x317bd4;
_ZN8ShortTag8getAsIntEv = __main_start + 0x317bdc;
_ZN8ShortTag10getAsShortEv = __main_start + 0x317be4;
_ZN8ShortTag9getAsByteEv = __main_start + 0x317bec;
_ZN8ShortTag11getAsDoubleEv = __main_start + 0x317bf4;
_ZN8ShortTag10getAsFloatEv = __main_start + 0x317c00;
_ZN10ShovelItem10staticCtorEv = __main_start + 0x317d58;
_ZN7Shulker10staticCtorEv = __main_start + 0x31818c;
_ZN7Shulker14addDataWalkersEP14DataFixerUpper = __main_start + 0x31876c;
_ZNK15ShulkerBoxBlock13isSolidRenderEPK10BlockState = __main_start + 0x31a9bc;
_ZN15ShulkerBoxBlock14isViewBlockingEPK10BlockState = __main_start + 0x31a9c4;
_ZN15ShulkerBoxBlock12isCubeShapedEPK10BlockState = __main_start + 0x31a9cc;
_ZN15ShulkerBoxBlock25hasCustomBreakingProgressEPK10BlockState = __main_start + 0x31a9d4;
_ZN15ShulkerBoxBlock14getRenderShapeEPK10BlockState = __main_start + 0x31a9dc;
_ZN15ShulkerBoxBlock3useEP5LevelRK8BlockPosPK10BlockStateSt10shared_ptrI6PlayerEN15InteractionHand16EInteractionHandEPK9Directionfffb = __main_start + 0x31a9e4;
_ZN15ShulkerBoxBlock20getStateForPlacementEP5LevelRK8BlockPosPK9DirectionfffiSt10shared_ptrI12LivingEntityE = __main_start + 0x31ac98;
_ZN15ShulkerBoxBlock26createBlockStateDefinitionEv = __main_start + 0x31acc8;
_ZN15ShulkerBoxBlock29convertBlockStateToLegacyDataEPK10BlockState = __main_start + 0x31ad18;
_ZN15ShulkerBoxBlock13getBlockStateEi = __main_start + 0x31ad40;
_ZN15ShulkerBoxBlock17playerWillDestroyEP5LevelRK8BlockPosPK10BlockStateSt10shared_ptrI6PlayerE = __main_start + 0x31ad80;
_ZN15ShulkerBoxBlock14spawnResourcesEP5LevelRK8BlockPosPK10BlockStatefi = __main_start + 0x31ae20;
_ZN15ShulkerBoxBlock11setPlacedByEP5LevelRK8BlockPosPK10BlockStateSt10shared_ptrI12LivingEntityE12not_null_ptrI12ItemInstanceE = __main_start + 0x31ae24;
_ZN15ShulkerBoxBlock8onRemoveEP5LevelRK8BlockPosPK10BlockState = __main_start + 0x31af2c;
_ZN15ShulkerBoxBlock15appendHoverTextE12not_null_ptrI12ItemInstanceESt10shared_ptrI6PlayerEPSt6vectorI10HtmlStringSt9allocatorI10HtmlStringEEb = __main_start + 0x31b2e4;
_ZN15ShulkerBoxBlock21getPistonPushReactionEPK10BlockState = __main_start + 0x31b7b8;
_ZN15ShulkerBoxBlock8getShapeEPK10BlockStateP11LevelSourceRK8BlockPos = __main_start + 0x31b7c0;
_ZN15ShulkerBoxBlock21hasAnalogOutputSignalEPK10BlockState = __main_start + 0x31b8b8;
_ZN15ShulkerBoxBlock21getAnalogOutputSignalEPK10BlockStateP5LevelRK8BlockPos = __main_start + 0x31b8c0;
_ZN15ShulkerBoxBlock20getCloneItemInstanceEP5LevelRK8BlockPosPK10BlockState = __main_start + 0x31b9a8;
_ZN15ShulkerBoxBlock6rotateEPK10BlockStateP8Rotation = __main_start + 0x31bb7c;
_ZN15ShulkerBoxBlock6mirrorEPK10BlockStateP6Mirror = __main_start + 0x31bbd4;
_ZN15ShulkerBoxBlock17getBlockFaceShapeEP11LevelSourcePK10BlockStateRK8BlockPosPK9Direction = __main_start + 0x31bc34;
_ZN15ShulkerBoxBlock18GetInteractTooltipERK22BlockTooltipDataHolder = __main_start + 0x31bd10;
_ZN21ShulkerBoxBlockEntity14addDataWalkersEP14DataFixerUpper = __main_start + 0x31c908;
_ZN17StandingSignBlock8getShapeEPK10BlockStateP11LevelSourceRK8BlockPos = __main_start + 0x31fb50;
_ZN13WallSignBlock11getClipAABBEPK10BlockStateP11LevelSourceRK8BlockPos = __main_start + 0x31fb60;
_ZN13WallSignBlock12isCubeShapedEPK10BlockState = __main_start + 0x31fb70;
_ZN13WallSignBlock25hasCustomBreakingProgressEPK10BlockState = __main_start + 0x31fb78;
_ZN13WallSignBlock14isPathfindableEP11LevelSourceRK8BlockPos = __main_start + 0x31fb80;
_ZNK13WallSignBlock13isSolidRenderEPK10BlockState = __main_start + 0x31fb88;
_ZN13WallSignBlock25isPossibleToRespawnInThisEv = __main_start + 0x31fb90;
_ZN13WallSignBlock11getResourceEPK10BlockStateP6Randomi = __main_start + 0x31fcfc;
_ZN13WallSignBlock20getCloneItemInstanceEP5LevelRK8BlockPosPK10BlockState = __main_start + 0x31fd0c;
_ZN13WallSignBlock3useEP5LevelRK8BlockPosPK10BlockStateSt10shared_ptrI6PlayerEN15InteractionHand16EInteractionHandEPK9Directionfffb = __main_start + 0x31fd4c;
_ZN13WallSignBlock8mayPlaceEP5LevelRK8BlockPos = __main_start + 0x31fdfc;
_ZN13WallSignBlock21getPistonPushReactionEPK10BlockState = __main_start + 0x31fe50;
_ZN13WallSignBlock17getBlockFaceShapeEP11LevelSourcePK10BlockStateRK8BlockPosPK9Direction = __main_start + 0x31fe58;
_ZN13WallSignBlock18GetInteractTooltipERK22BlockTooltipDataHolder = __main_start + 0x31fe60;
_ZN13WallSignBlock10getTextureEPK9DirectionPK10BlockState = __main_start + 0x31fec0;
_ZN13WallSignBlock13registerIconsEP12IconRegister = __main_start + 0x31fed8;
_ZN13WallSignBlock14getRenderShapeEPK10BlockState = __main_start + 0x31fedc;
_ZN10Silverfish14addDataWalkersEP14DataFixerUpper = __main_start + 0x321418;
_ZN8Skeleton14addDataWalkersEP14DataFixerUpper = __main_start + 0x322568;
_ZN13SkeletonHorse14addDataWalkersEP14DataFixerUpper = __main_start + 0x322a88;
_ZN10SkullBlock7getNameEv = __main_start + 0x323f58;
_ZNK10SkullBlock13isSolidRenderEPK10BlockState = __main_start + 0x323f9c;
_ZN10SkullBlock12isCubeShapedEPK10BlockState = __main_start + 0x323fa4;
_ZN10SkullBlock25hasCustomBreakingProgressEPK10BlockState = __main_start + 0x323fac;
_ZN10SkullBlock8getShapeEPK10BlockStateP11LevelSourceRK8BlockPos = __main_start + 0x323fb4;
_ZN10SkullBlock20getStateForPlacementEP5LevelRK8BlockPosPK9DirectionfffiSt10shared_ptrI12LivingEntityE = __main_start + 0x324008;
_ZN10SkullBlock20getCloneItemInstanceEP5LevelRK8BlockPosPK10BlockState = __main_start + 0x3241d4;
_ZN10SkullBlock14spawnResourcesEP5LevelRK8BlockPosPK10BlockStatefi = __main_start + 0x3242c4;
_ZN10SkullBlock17playerWillDestroyEP5LevelRK8BlockPosPK10BlockStateSt10shared_ptrI6PlayerE = __main_start + 0x3242c8;
_ZN10SkullBlock8onRemoveEP5LevelRK8BlockPosPK10BlockState = __main_start + 0x32438c;
_ZN10SkullBlock11getResourceEPK10BlockStateP6Randomi = __main_start + 0x3244c4;
_ZN10SkullBlock13getBlockStateEi = __main_start + 0x325100;
_ZN10SkullBlock29convertBlockStateToLegacyDataEPK10BlockState = __main_start + 0x325160;
_ZN10SkullBlock6rotateEPK10BlockStateP8Rotation = __main_start + 0x3251b8;
_ZN10SkullBlock6mirrorEPK10BlockStateP6Mirror = __main_start + 0x325210;
_ZN10SkullBlock26createBlockStateDefinitionEv = __main_start + 0x325278;
_ZN10SkullBlock17getBlockFaceShapeEP11LevelSourcePK10BlockStateRK8BlockPosPK9Direction = __main_start + 0x3252fc;
_ZN10SkullBlock19getTileItemIconNameEv = __main_start + 0x325304;
_ZN10SkullBlock13registerIconsEP12IconRegister = __main_start + 0x325344;
_ZN10SkullBlock10getTextureEPK9DirectionPK10BlockState = __main_start + 0x325348;
_ZN10SkullBlock14getRenderShapeEPK10BlockState = __main_start + 0x325360;
_ZN15PistonBaseBlockD0Ev = __main_start + 0x325458;
_ZN15PistonHeadBlockD0Ev = __main_start + 0x3254a0;
_ZN16PistonMagicBlockD0Ev = __main_start + 0x3254c4;
_ZN11PlanksBlockD0Ev = __main_start + 0x325530;
_ZN24ServerGamePacketListenerD0Ev = __main_start + 0x3255ac;
_ZN24ServerGamePacketListener22isServerPacketListenerEv = __main_start + 0x3255d0;
_ZN11LocalPlayer12setInvisibleEb = __main_start + 0x325608;
_ZN11LocalPlayer18ShouldRenderShadowEv = __main_start + 0x325610;
_ZN11LocalPlayer16PositionLocked_4Ev = __main_start + 0x32565c;
_ZN11LocalPlayer19SetPositionLocked_4Eb = __main_start + 0x325664;
_ZN11LocalPlayer26TakeGlideCollisionDamage_4Ev = __main_start + 0x325670;
_ZN11LocalPlayer25SetGlideCollisionDamage_4Eb = __main_start + 0x325678;
_ZN11LocalPlayer22GetLiftForceModifier_4Ev = __main_start + 0x325684;
_ZN11LocalPlayer22SetLiftForceModifier_4Ed = __main_start + 0x32568c;
_ZN16PlayerInfoPacketD2Ev = __main_start + 0x325798;
_ZN16PlayerInfoPacketD0Ev = __main_start + 0x3257c0;
_ZN16PlayerInfoPacket11getPacketIdEv = __main_start + 0x3257e4;
_ZN17PlayerReadyPacket11getPacketIdEv = __main_start + 0x3257ec;
_ZN11PortalBlockD0Ev = __main_start + 0x3259b4;
_ZN11PotatoBlockD0Ev = __main_start + 0x3259d8;
_ZN12PoweredBlockD0Ev = __main_start + 0x325a74;
_ZN16PoweredRailBlockD0Ev = __main_start + 0x325a98;
_ZN18PressurePlateBlockD0Ev = __main_start + 0x325abc;
_ZN15PrismarineBlockD0Ev = __main_start + 0x325b48;
_ZN12PumpkinBlockD0Ev = __main_start + 0x325b90;
_ZN15PurpurSlabBlockD0Ev = __main_start + 0x325bd8;
_ZN11QuartzBlockD0Ev = __main_start + 0x325c44;
_ZN9RailBlockD0Ev = __main_start + 0x325da8;
_ZN14RedFlowerBlockD0Ev = __main_start + 0x32606c;
_ZN17RedSandStoneBlockD0Ev = __main_start + 0x326090;
_ZN17RedstoneLampBlockD0Ev = __main_start + 0x3260d8;
_ZN16RedStoneOreBlockD0Ev = __main_start + 0x3260fc;
_ZN18RedstoneTorchBlockD0Ev = __main_start + 0x326120;
_ZN17RedStoneWireBlockD2Ev = __main_start + 0x326144;
_ZN17RedStoneWireBlockD0Ev = __main_start + 0x326178;
_ZN10ReedsBlockD0Ev = __main_start + 0x32619c;
_ZN16RegionHillsLayerD2Ev = __main_start + 0x3261e4;
_ZN16RegionHillsLayerD0Ev = __main_start + 0x326218;
_ZN13RepeaterBlockD0Ev = __main_start + 0x3262b8;
_ZN14RiverInitLayerD0Ev = __main_start + 0x3263e0;
_ZN10RiverLayerD0Ev = __main_start + 0x326404;
_ZN15RiverMixerLayerD2Ev = __main_start + 0x326428;
_ZN15RiverMixerLayerD0Ev = __main_start + 0x32646c;
_ZN18RotatedPillarBlockD0Ev = __main_start + 0x326490;
_ZN9SandBlockD0Ev = __main_start + 0x326594;
_ZN14SandStoneBlockD0Ev = __main_start + 0x3265dc;
_ZN12SaplingBlockD0Ev = __main_start + 0x326600;
_ZN16ScoreboardPacket11getPacketIdEv = __main_start + 0x32682c;
_ZN15SeaLanternBlockD0Ev = __main_start + 0x326858;
_ZN36ServerboundAcceptTeleportationPacketD2Ev = __main_start + 0x3268c4;
_ZN36ServerboundAcceptTeleportationPacketD0Ev = __main_start + 0x3268ec;
_ZN36ServerboundAcceptTeleportationPacket11getPacketIdEv = __main_start + 0x326910;
_ZN33ServerboundChatAutoCompletePacket11getPacketIdEv = __main_start + 0x326918;
_ZN21ServerboundChatPacket11getPacketIdEv = __main_start + 0x326920;
_ZN30ServerboundClientCommandPacketD2Ev = __main_start + 0x326928;
_ZN30ServerboundClientCommandPacketD0Ev = __main_start + 0x326950;
_ZN30ServerboundClientCommandPacket11getPacketIdEv = __main_start + 0x326974;
_ZN29ServerboundContainerAckPacket11getPacketIdEv = __main_start + 0x32697c;
_ZN37ServerboundContainerButtonClickPacketD2Ev = __main_start + 0x326984;
_ZN37ServerboundContainerButtonClickPacketD0Ev = __main_start + 0x3269ac;
_ZN37ServerboundContainerButtonClickPacket11getPacketIdEv = __main_start + 0x3269d0;
_ZN31ServerboundContainerClickPacket11getPacketIdEv = __main_start + 0x3269d8;
_ZN31ServerboundContainerClosePacket11getPacketIdEv = __main_start + 0x3269e0;
_ZN30ServerboundCustomPayloadPacket11getPacketIdEv = __main_start + 0x3269e8;
_ZN25ServerboundInteractPacket11getPacketIdEv = __main_start + 0x3269f0;
_ZN26ServerboundKeepAlivePacket11getPacketIdEv = __main_start + 0x3269f8;
_ZN27ServerboundMovePlayerPacketD0Ev = __main_start + 0x326a00;
_ZN27ServerboundMovePlayerPacket11getPacketIdEv = __main_start + 0x326a24;
_ZN27ServerboundMovePlayerPacket6PosRotD0Ev = __main_start + 0x326a2c;
_ZN27ServerboundMovePlayerPacket6PosRot11getPacketIdEv = __main_start + 0x326a50;
_ZN27ServerboundMovePlayerPacket3PosD0Ev = __main_start + 0x326a58;
_ZN27ServerboundMovePlayerPacket3Pos11getPacketIdEv = __main_start + 0x326a7c;
_ZN27ServerboundMovePlayerPacketD2Ev = __main_start + 0x326a84;
_ZN27ServerboundMovePlayerPacket3RotD0Ev = __main_start + 0x326aac;
_ZN27ServerboundMovePlayerPacket3Rot11getPacketIdEv = __main_start + 0x326ad0;
_ZN28ServerboundMoveVehiclePacketD2Ev = __main_start + 0x326ad8;
_ZN28ServerboundMoveVehiclePacketD0Ev = __main_start + 0x326b00;
_ZN28ServerboundMoveVehiclePacket11getPacketIdEv = __main_start + 0x326b24;
_ZN27ServerboundPaddleBoatPacketD2Ev = __main_start + 0x326b2c;
_ZN27ServerboundPaddleBoatPacketD0Ev = __main_start + 0x326b54;
_ZN27ServerboundPaddleBoatPacket11getPacketIdEv = __main_start + 0x326b78;
_ZN32ServerboundPlayerAbilitiesPacketD2Ev = __main_start + 0x326b80;
_ZN32ServerboundPlayerAbilitiesPacketD0Ev = __main_start + 0x326ba8;
_ZN32ServerboundPlayerAbilitiesPacket11getPacketIdEv = __main_start + 0x326bcc;
_ZN29ServerboundPlayerActionPacketD2Ev = __main_start + 0x326bd4;
_ZN29ServerboundPlayerActionPacketD0Ev = __main_start + 0x326bfc;
_ZN29ServerboundPlayerActionPacket11getPacketIdEv = __main_start + 0x326c20;
_ZN30ServerboundPlayerCommandPacketD2Ev = __main_start + 0x326c28;
_ZN30ServerboundPlayerCommandPacketD0Ev = __main_start + 0x326c50;
_ZN30ServerboundPlayerCommandPacket11getPacketIdEv = __main_start + 0x326c74;
_ZN28ServerboundPlayerInputPacketD2Ev = __main_start + 0x326c7c;
_ZN28ServerboundPlayerInputPacketD0Ev = __main_start + 0x326ca4;
_ZN28ServerboundPlayerInputPacket11getPacketIdEv = __main_start + 0x326cc8;
_ZN25ServerboundPreLoginPacketD2Ev = __main_start + 0x326cd0;
_ZN25ServerboundPreLoginPacketD0Ev = __main_start + 0x326d14;
_ZN25ServerboundPreLoginPacket11getPacketIdEv = __main_start + 0x326d38;
_ZN29ServerboundResourcePackPacket11getPacketIdEv = __main_start + 0x326d40;
_ZN31ServerboundSetCarriedItemPacket11getPacketIdEv = __main_start + 0x326d48;
_ZN36ServerboundSetCreativeModeSlotPacketD2Ev = __main_start + 0x326d50;
_ZN36ServerboundSetCreativeModeSlotPacketD0Ev = __main_start + 0x326d94;
_ZN36ServerboundSetCreativeModeSlotPacket11getPacketIdEv = __main_start + 0x326db8;
_ZN27ServerboundSignUpdatePacket11getPacketIdEv = __main_start + 0x326dc0;
_ZN22ServerboundSwingPacketD2Ev = __main_start + 0x326dc8;
_ZN22ServerboundSwingPacketD0Ev = __main_start + 0x326df0;
_ZN22ServerboundSwingPacket11getPacketIdEv = __main_start + 0x326e14;
_ZN33ServerboundTeleportToEntityPacket11getPacketIdEv = __main_start + 0x326e1c;
_ZN26ServerboundUseItemOnPacketD2Ev = __main_start + 0x326e24;
_ZN26ServerboundUseItemOnPacketD0Ev = __main_start + 0x326e4c;
_ZN26ServerboundUseItemOnPacket11getPacketIdEv = __main_start + 0x326e70;
_ZN24ServerboundUseItemPacketD2Ev = __main_start + 0x326e78;
_ZN24ServerboundUseItemPacketD0Ev = __main_start + 0x326ea0;
_ZN24ServerboundUseItemPacket11getPacketIdEv = __main_start + 0x326ec4;
_ZN27ServerSettingsChangedPacket11getPacketIdEv = __main_start + 0x326ef0;
_ZN10ShoreLayerD0Ev = __main_start + 0x326fb8;
_ZN8ShortTagD0Ev = __main_start + 0x326fdc;
_ZN15ShulkerBoxBlockD0Ev = __main_start + 0x32723c;
_ZN9SignBlockD0Ev = __main_start + 0x327378;
_ZN10SkullBlockD0Ev = __main_start + 0x3276a0;
_ZNSt3__110shared_ptrI31ServerboundSetCarriedItemPacketEC2IS1_EERKNS_8weak_ptrIT_EENS_9enable_ifIXsr14is_convertibleIPS5_PS1_EE5valueENS2_5__natEE4typeE = __main_start + 0x3421d0;
_ZNSt3__110shared_ptrI22ServerboundSwingPacketEC2IS1_EERKNS_8weak_ptrIT_EENS_9enable_ifIXsr14is_convertibleIPS5_PS1_EE5valueENS2_5__natEE4typeE = __main_start + 0x342290;
_ZN13SlabBlockItem13SlabBlockItemEP5BlockP13HalfSlabBlockP13HalfSlabBlock = __main_start + 0x343de0;
_ZN5Slime10staticCtorEv = __main_start + 0x344748;
_ZN5Slime14addDataWalkersEP14DataFixerUpper = __main_start + 0x344a90;
_ZN10SlimeBlock14getRenderLayerEv = __main_start + 0x3463e8;
_ZN10SlimeBlock6fallOnEP5LevelRK8BlockPosSt10shared_ptrI6EntityEf = __main_start + 0x3463f0;
_ZN10SlimeBlock23updateEntityAfterFallOnEP5LevelSt10shared_ptrI6EntityE = __main_start + 0x3464ac;
_ZN10SlimeBlock6stepOnEP5LevelRK8BlockPosSt10shared_ptrI6EntityE = __main_start + 0x3465f0;
_ZN10SlimeBlock14getRenderShapeEPK10BlockState = __main_start + 0x3466d0;
_ZN4SlotC1ENSt3__110shared_ptrI9ContainerEEiii = __main_start + 0x3466d8;
_ZN4Slot12onQuickCraftE12not_null_ptrI12ItemInstanceES2_ = __main_start + 0x346738;
_ZN4Slot12onQuickCraftE12not_null_ptrI12ItemInstanceEi = __main_start + 0x3467b8;
_ZN4Slot11onSwapCraftEi = __main_start + 0x3467bc;
_ZN4Slot21checkTakeAchievementsE12not_null_ptrI12ItemInstanceE = __main_start + 0x3467c0;
_ZN4Slot6onTakeENSt3__110shared_ptrI6PlayerEE12not_null_ptrI12ItemInstanceE = __main_start + 0x3467c4;
_ZN4Slot8mayPlaceE12not_null_ptrI12ItemInstanceE = __main_start + 0x3467f8;
_ZN4Slot7getItemEv = __main_start + 0x346800;
_ZN4Slot7hasItemEv = __main_start + 0x346818;
_ZN4Slot3setE12not_null_ptrI12ItemInstanceE = __main_start + 0x346860;
_ZN4Slot10setChangedEv = __main_start + 0x3468cc;
_ZN4Slot15getMaxStackSizeEv = __main_start + 0x3468dc;
_ZN4Slot15getMaxStackSizeE12not_null_ptrI12ItemInstanceE = __main_start + 0x3468ec;
_ZN4Slot13getNoItemIconEv = __main_start + 0x3468f8;
_ZN4Slot6removeEi = __main_start + 0x346930;
_ZN4Slot4isAtENSt3__110shared_ptrI9ContainerEEi = __main_start + 0x346950;
_ZN4Slot9mayPickupENSt3__110shared_ptrI6PlayerEE = __main_start + 0x346978;
_ZN4Slot8isActiveEv = __main_start + 0x346980;
_ZN4Slot10mayCombineE12not_null_ptrI12ItemInstanceE = __main_start + 0x346988;
_ZN4Slot7combineE12not_null_ptrI12ItemInstanceE = __main_start + 0x346a84;
_ZN13SmallFireball14addDataWalkersEP14DataFixerUpper = __main_start + 0x346de0;
_ZN11SmoothLayerC1ExNSt3__110shared_ptrI5LayerEE = __main_start + 0x34713c;
_ZN11SmoothLayer7getAreaEiiii = __main_start + 0x3471bc;
_ZN8Snowball14addDataWalkersEP14DataFixerUpper = __main_start + 0x3476b8;
_ZN9SnowBlock11getResourceEPK10BlockStateP6Randomi = __main_start + 0x347e68;
_ZN9SnowBlock16getResourceCountEP6Random = __main_start + 0x347e78;
_ZN9SnowBlock4tickEP5LevelRK8BlockPosPK10BlockStateP6Random = __main_start + 0x347e80;
_ZN9SnowBlock15shouldBlockTickEP5LevelRK8BlockPosPK10BlockState = __main_start + 0x347f1c;
_ZN14SnowLayerBlock14isPathfindableEP11LevelSourceRK8BlockPos = __main_start + 0x34cf64;
_ZN14SnowLayerBlock21hasInHandRenderOffsetEv = __main_start + 0x34cfa0;
_ZN14SnowLayerBlock17getBlockFaceShapeEP11LevelSourcePK10BlockStateRK8BlockPosPK9Direction = __main_start + 0x34cfd8;
_ZN14SnowLayerBlock11getClipAABBEPK10BlockStateP11LevelSourceRK8BlockPos = __main_start + 0x34cff4;
_ZNK14SnowLayerBlock13isSolidRenderEPK10BlockState = __main_start + 0x34d06c;
_ZN14SnowLayerBlock12isCubeShapedEPK10BlockState = __main_start + 0x34d074;
_ZN14SnowLayerBlock8getShapeEPK10BlockStateP11LevelSourceRK8BlockPos = __main_start + 0x34d07c;
_ZN14SnowLayerBlock8mayPlaceEP5LevelRK8BlockPos = __main_start + 0x34d0b0;
_ZN14SnowLayerBlock15neighborChangedEPK10BlockStateP5LevelRK8BlockPosP5BlockRK8BlockPos = __main_start + 0x34d1f0;
_ZN14SnowLayerBlock13playerDestroyEP5LevelSt10shared_ptrI6PlayerERK8BlockPosPK10BlockStateSt10shared_ptrI11BlockEntityE12not_null_ptrI12ItemInstanceE = __main_start + 0x34d284;
_ZN14SnowLayerBlock11getResourceEPK10BlockStateP6Randomi = __main_start + 0x34d338;
_ZN14SnowLayerBlock16getResourceCountEP6Random = __main_start + 0x34d348;
_ZN14SnowLayerBlock4tickEP5LevelRK8BlockPosPK10BlockStateP6Random = __main_start + 0x34d350;
_ZN14SnowLayerBlock16shouldRenderFaceEPK10BlockStateP11LevelSourceRK8BlockPosPK9Direction = __main_start + 0x34d3ec;
_ZN14SnowLayerBlock15shouldBlockTickEP5LevelRK8BlockPosPK10BlockState = __main_start + 0x34d4e4;
_ZN14SnowLayerBlock13getBlockStateEi = __main_start + 0x34d510;
_ZN14SnowLayerBlock19mayReplaceWithPlaceEP11LevelSourceRK8BlockPos = __main_start + 0x34d544;
_ZN14SnowLayerBlock29convertBlockStateToLegacyDataEPK10BlockState = __main_start + 0x34d580;
_ZN14SnowLayerBlock26createBlockStateDefinitionEv = __main_start + 0x34d5ac;
_ZN7SnowMan10staticCtorEv = __main_start + 0x34d61c;
_ZN7SnowMan14addDataWalkersEP14DataFixerUpper = __main_start + 0x34d6b8;
_ZN13SoulSandBlock11getClipAABBEPK10BlockStateP11LevelSourceRK8BlockPos = __main_start + 0x34f120;
_ZN13SoulSandBlock12entityInsideEP5LevelRK8BlockPosPK10BlockStateRKSt10shared_ptrI6EntityE = __main_start + 0x34f130;
_ZN11SoundEvents10staticCtorEv = __main_start + 0x34f2ec;
_ZN9SoundType10StaticCtorEv = __main_start + 0x359924;
_ZN17SparseDataStorage10staticCtorEv = __main_start + 0x359e04;
_Z20EnterCriticalSectionPN2nn2os9MutexTypeE = __main_start + 0x35a6e8;
_ZN17SparseDataStorage4tickEv = __main_start + 0x35b3b8;
_ZN18SparseLightStorage10staticCtorEv = __main_start + 0x35bb50;
_ZN18SparseLightStorage4tickEv = __main_start + 0x35c6dc;
_ZN18SparseLightStorage8compressEv = __main_start + 0x35c778;
_ZN12SpawnEggItem9fjGetTypeERK12not_null_ptrI12ItemInstanceE = __main_start + 0x35e57c;
_ZN13SpectralArrow14addDataWalkersEP14DataFixerUpper = __main_start + 0x35e7b0;
_ZN18SpellcasterIllager10staticCtorEv = __main_start + 0x35eb90;
_ZN6Spider10staticCtorEv = __main_start + 0x35f2f4;
_ZN6Spider14addDataWalkersEP14DataFixerUpper = __main_start + 0x35f3f8;
_ZN11SpongeBlock7getNameEv = __main_start + 0x3608b8;
_ZN11SpongeBlock25getSpawnResourcesAuxValueEPK10BlockState = __main_start + 0x3608fc;
_ZN11SpongeBlock7onPlaceEP5LevelRK8BlockPosPK10BlockState = __main_start + 0x360928;
_ZN11SpongeBlock15neighborChangedEPK10BlockStateP5LevelRK8BlockPosP5BlockRK8BlockPos = __main_start + 0x3609ec;
_ZN11SpongeBlock13getBlockStateEi = __main_start + 0x360e24;
_ZN11SpongeBlock29convertBlockStateToLegacyDataEPK10BlockState = __main_start + 0x360e54;
_ZN11SpongeBlock26createBlockStateDefinitionEv = __main_start + 0x360e80;
_ZN11SpongeBlock11animateTickEPK10BlockStateP5LevelRK8BlockPosP6Random = __main_start + 0x360ef4;
_ZN11SpongeBlock13registerIconsEP12IconRegister = __main_start + 0x3610f4;
_ZN11SpongeBlock10getTextureEPK9DirectionPK10BlockState = __main_start + 0x3611b4;
_ZN13SpringFeatureC1EP5Blockb = __main_start + 0x3611f8;
_ZN13SpringFeature5placeEP5LevelR6RandomRK8BlockPos = __main_start + 0x361234;
_ZN13SpruceFeature10staticCtorEv = __main_start + 0x36145c;
_ZN5Squid14addDataWalkersEP14DataFixerUpper = __main_start + 0x361c28;
_ZN4Vec37newTempEddd = __main_start + 0x362784;
_ZN17StainedGlassBlock25getSpawnResourcesAuxValueEPK10BlockState = __main_start + 0x362a40;
_ZN17StainedGlassBlock11getMapColorEPK10BlockStateP11LevelSourceRK8BlockPos = __main_start + 0x362a68;
_ZN17StainedGlassBlock14getRenderLayerEv = __main_start + 0x362a90;
_ZN17StainedGlassBlock16getResourceCountEP6Random = __main_start + 0x362a98;
_ZN17StainedGlassBlock15isSilkTouchableEv = __main_start + 0x362aa0;
_ZN17StainedGlassBlock12isCubeShapedEPK10BlockState = __main_start + 0x362aa8;
_ZN17StainedGlassBlock13getBlockStateEi = __main_start + 0x362ab0;
_ZN17StainedGlassBlock7onPlaceEP5LevelRK8BlockPosPK10BlockState = __main_start + 0x362afc;
_ZN17StainedGlassBlock8onRemoveEP5LevelRK8BlockPosPK10BlockState = __main_start + 0x362b14;
_ZN17StainedGlassBlock29convertBlockStateToLegacyDataEPK10BlockState = __main_start + 0x362b2c;
_ZN17StainedGlassBlock26createBlockStateDefinitionEv = __main_start + 0x362b54;
_ZN17StainedGlassBlock10getTextureEPK9DirectionPK10BlockState = __main_start + 0x362bc8;
_ZN17StainedGlassBlock13registerIconsEP12IconRegister = __main_start + 0x362bfc;
_ZN21StainedGlassPaneBlock25getSpawnResourcesAuxValueEPK10BlockState = __main_start + 0x362fe4;
_ZN21StainedGlassPaneBlock11getMapColorEPK10BlockStateP11LevelSourceRK8BlockPos = __main_start + 0x36300c;
_ZN21StainedGlassPaneBlock14getRenderLayerEv = __main_start + 0x363034;
_ZN21StainedGlassPaneBlock13getBlockStateEi = __main_start + 0x36303c;
_ZN21StainedGlassPaneBlock29convertBlockStateToLegacyDataEPK10BlockState = __main_start + 0x363088;
_ZN21StainedGlassPaneBlock6rotateEPK10BlockStateP8Rotation = __main_start + 0x3630b0;
_ZN21StainedGlassPaneBlock6mirrorEPK10BlockStateP6Mirror = __main_start + 0x363220;
_ZN14ThinFenceBlock6mirrorEPK10BlockStateP6Mirror = __main_start + 0x3632e8;
_ZN21StainedGlassPaneBlock26createBlockStateDefinitionEv = __main_start + 0x3633b0;
_ZN21StainedGlassPaneBlock7onPlaceEP5LevelRK8BlockPosPK10BlockState = __main_start + 0x363464;
_ZN21StainedGlassPaneBlock8onRemoveEP5LevelRK8BlockPosPK10BlockState = __main_start + 0x36347c;
_ZN21StainedGlassPaneBlock14getIconTextureEPK9DirectionPK10BlockState = __main_start + 0x363494;
_ZN21StainedGlassPaneBlock10getTextureEPK9DirectionPK10BlockState = __main_start + 0x363500;
_ZN21StainedGlassPaneBlock13registerIconsEP12IconRegister = __main_start + 0x36350c;
_ZN14ThinFenceBlock13registerIconsEP12IconRegister = __main_start + 0x36371c;
_ZN24StainedHardenedClayBlock11getMapColorEPK10BlockStateP11LevelSourceRK8BlockPos = __main_start + 0x3638d0;
_ZN10StairBlock17addCollisionAABBsEPK10BlockStateP5LevelRK8BlockPosPK4AABBPSt6vectorIP4AABBSt9allocatorIP4AABBEESt10shared_ptrI6EntityEb = __main_start + 0x36412c;
_ZN10StairBlock17getBlockFaceShapeEP11LevelSourcePK10BlockStateRK8BlockPosPK9Direction = __main_start + 0x364404;
_ZN10StairBlock25getSpawnResourcesAuxValueEPK10BlockState = __main_start + 0x36455c;
_ZN10StairBlock9getShapesEPK10BlockStateP11LevelSourcePK8BlockPos = __main_start + 0x364564;
_ZNK10StairBlock13isSolidRenderEPK10BlockState = __main_start + 0x3646a4;
_ZN10StairBlock12isCubeShapedEPK10BlockState = __main_start + 0x3646ac;
_ZN10StairBlock9addLightsEP5LevelRK8BlockPos = __main_start + 0x3646b4;
_ZN10StairBlock11animateTickEPK10BlockStateP5LevelRK8BlockPosP6Random = __main_start + 0x3646c4;
_ZN10StairBlock6attackEP5LevelRK8BlockPosSt10shared_ptrI6PlayerE = __main_start + 0x3646d4;
_ZN10StairBlock7destroyEP5LevelRK8BlockPosPK10BlockState = __main_start + 0x364744;
_ZN10StairBlock13getLightColorEPK10BlockStateP11LevelSourceRK8BlockPosi = __main_start + 0x364754;
_ZN10StairBlock22getExplosionResistanceESt10shared_ptrI6EntityE = __main_start + 0x364764;
_ZN10StairBlock14getRenderLayerEv = __main_start + 0x3647cc;
_ZN10StairBlock12getTickDelayEP5Level = __main_start + 0x3647dc;
_ZN10StairBlock14getOutlineAABBEPK10BlockStateP5LevelRK8BlockPos = __main_start + 0x3647ec;
_ZN10StairBlock18handleEntityInsideEP5LevelRK8BlockPosSt10shared_ptrI6EntityEP4Vec3 = __main_start + 0x364804;
_ZN10StairBlock7mayPickEv = __main_start + 0x36488c;
_ZN10StairBlock7mayPickEPK10BlockStateb = __main_start + 0x36489c;
_ZN10StairBlock8mayPlaceEP5LevelRK8BlockPos = __main_start + 0x3648b0;
_ZN10StairBlock7onPlaceEP5LevelRK8BlockPosPK10BlockState = __main_start + 0x3648c0;
_ZN10StairBlock8onRemoveEP5LevelRK8BlockPosPK10BlockState = __main_start + 0x364928;
_ZN10StairBlock13prepareRenderEP5LevelRK8BlockPos = __main_start + 0x364938;
_ZN10StairBlock6stepOnEP5LevelRK8BlockPosSt10shared_ptrI6EntityE = __main_start + 0x364948;
_ZN10StairBlock4tickEP5LevelRK8BlockPosPK10BlockStateP6Random = __main_start + 0x3649b8;
_ZN10StairBlock3useEP5LevelRK8BlockPosPK10BlockStateSt10shared_ptrI6PlayerEN15InteractionHand16EInteractionHandEPK9Directionfffb = __main_start + 0x3649c8;
_ZN10StairBlock11wasExplodedEP5LevelRK8BlockPosP9Explosion = __main_start + 0x364a7c;
_ZN10StairBlock11getMapColorEPK10BlockStateP11LevelSourceRK8BlockPos = __main_start + 0x364ac8;
_ZN10StairBlock20getStateForPlacementEP5LevelRK8BlockPosPK9DirectionfffiSt10shared_ptrI12LivingEntityE = __main_start + 0x364adc;
_ZN10StairBlock4clipEPK10BlockStateP5LevelRK8BlockPosP4Vec3P4Vec3 = __main_start + 0x364c2c;
_ZN10StairBlock13getBlockStateEi = __main_start + 0x364dfc;
_ZN10StairBlock29convertBlockStateToLegacyDataEPK10BlockState = __main_start + 0x364e7c;
_ZN10StairBlock31fillVirtualBlockStatePropertiesEPK10BlockStateP11LevelSourceRK8BlockPos = __main_start + 0x364ee4;
_ZN10StairBlock6rotateEPK10BlockStateP8Rotation = __main_start + 0x365230;
_ZN10StairBlock6mirrorEPK10BlockStateP6Mirror = __main_start + 0x365288;
_ZN10StairBlock26createBlockStateDefinitionEv = __main_start + 0x36552c;
_ZN10StairBlock10getTextureEPK9DirectionPK10BlockState = __main_start + 0x3655c0;
_ZN10StairBlock13registerIconsEP12IconRegister = __main_start + 0x3655d4;
_ZN10StairBlock14getRenderShapeEPK10BlockState = __main_start + 0x3655d8;
_ZN17StandingSignBlock15neighborChangedEPK10BlockStateP5LevelRK8BlockPosP5BlockRK8BlockPos = __main_start + 0x365710;
_ZN17StandingSignBlock13getBlockStateEi = __main_start + 0x3657f4;
_ZN17StandingSignBlock29convertBlockStateToLegacyDataEPK10BlockState = __main_start + 0x365824;
_ZN17StandingSignBlock6rotateEPK10BlockStateP8Rotation = __main_start + 0x36583c;
_ZN17StandingSignBlock6mirrorEPK10BlockStateP6Mirror = __main_start + 0x365898;
_ZN17StandingSignBlock26createBlockStateDefinitionEv = __main_start + 0x3658f4;
_ZN17StaticLiquidBlock15neighborChangedEPK10BlockStateP5LevelRK8BlockPosP5BlockRK8BlockPos = __main_start + 0x3661f8;
_ZN17StaticLiquidBlock4tickEP5LevelRK8BlockPosPK10BlockStateP6Random = __main_start + 0x366344;
_ZN5Stats10staticCtorEv = __main_start + 0x3666d8;
_ZN5Stats4initEv = __main_start + 0x368744;
_ZN9StemBlock8getShapeEPK10BlockStateP11LevelSourceRK8BlockPos = __main_start + 0x369f0c;
_ZN9StemBlock31fillVirtualBlockStatePropertiesEPK10BlockStateP11LevelSourceRK8BlockPos = __main_start + 0x369f40;
_ZN9StemBlock4tickEP5LevelRK8BlockPosPK10BlockStateP6Random = __main_start + 0x36a0f0;
_ZN9StemBlock8getColorEPK10BlockState = __main_start + 0x36a3e4;
_ZN9StemBlock8getColorEP11LevelSourceRK8BlockPos = __main_start + 0x36a458;
_ZN9StemBlock8getColorEP11LevelSourceRK8BlockPosPK10BlockState = __main_start + 0x36a4a0;
_ZN9StemBlock14spawnResourcesEP5LevelRK8BlockPosPK10BlockStatefi = __main_start + 0x36a4b0;
_ZN9StemBlock11getResourceEPK10BlockStateP6Randomi = __main_start + 0x36a658;
_ZN9StemBlock20getCloneItemInstanceEP5LevelRK8BlockPosPK10BlockState = __main_start + 0x36a668;
_ZN9StemBlock13getBlockStateEi = __main_start + 0x36a730;
_ZN9StemBlock29convertBlockStateToLegacyDataEPK10BlockState = __main_start + 0x36a760;
_ZN9StemBlock18GetInteractTooltipERK22BlockTooltipDataHolder = __main_start + 0x36a778;
_ZN9StemBlock26createBlockStateDefinitionEv = __main_start + 0x36a7e8;
_ZN9StemBlock13registerIconsEP12IconRegister = __main_start + 0x36a86c;
_ZN9StemBlock14getRenderShapeEPK10BlockState = __main_start + 0x36a908;
_ZN15StoneBeachBiomeC1EN5Biome9EBiomeIDsEPN5Biome15BiomePropertiesE = __main_start + 0x36a910;
_ZN10StoneBlock7getNameEv = __main_start + 0x36b290;
_ZN10StoneBlock11getMapColorEPK10BlockStateP11LevelSourceRK8BlockPos = __main_start + 0x36b2d4;
_ZN10StoneBlock11getResourceEPK10BlockStateP6Randomi = __main_start + 0x36b32c;
_ZN10StoneBlock25getSpawnResourcesAuxValueEPK10BlockState = __main_start + 0x36b37c;
_ZN10StoneBlock13getBlockStateEi = __main_start + 0x36b3ac;
_ZN10StoneBlock29convertBlockStateToLegacyDataEPK10BlockState = __main_start + 0x36b414;
_ZN10StoneBlock26createBlockStateDefinitionEv = __main_start + 0x36b43c;
_ZN10StoneBlock10getTextureEPK9DirectionPK10BlockState = __main_start + 0x36b4b0;
_ZN10StoneBlock13registerIconsEP12IconRegister = __main_start + 0x36b4dc;
_ZN15StoneBrickBlock25getSpawnResourcesAuxValueEPK10BlockState = __main_start + 0x36ba60;
_ZN15StoneBrickBlock13getBlockStateEi = __main_start + 0x36bab0;
_ZN15StoneBrickBlock29convertBlockStateToLegacyDataEPK10BlockState = __main_start + 0x36bb18;
_ZN15StoneBrickBlock26createBlockStateDefinitionEv = __main_start + 0x36bb40;
_ZN15StoneBrickBlock10getTextureEPK9DirectionPK10BlockState = __main_start + 0x36bbb4;
_ZN15StoneBrickBlock13registerIconsEP12IconRegister = __main_start + 0x36bbf0;
_ZN15StoneBrickBlock16getDescriptionIdEi = __main_start + 0x36bcec;
_ZN14StoneSlabBlock11DerivedInitEv = __main_start + 0x36c650;
_ZN14StoneSlabBlock11getResourceEPK10BlockStateP6Randomi = __main_start + 0x36c72c;
_ZN14StoneSlabBlock20getCloneItemInstanceEP5LevelRK8BlockPosPK10BlockState = __main_start + 0x36c73c;
_ZN14StoneSlabBlock13getBlockStateEi = __main_start + 0x36c854;
_ZN14StoneSlabBlock29convertBlockStateToLegacyDataEPK10BlockState = __main_start + 0x36c910;
_ZN14StoneSlabBlock26createBlockStateDefinitionEv = __main_start + 0x36c9b8;
_ZN14StoneSlabBlock25getSpawnResourcesAuxValueEPK10BlockState = __main_start + 0x36caa0;
_ZN14StoneSlabBlock11getMapColorEPK10BlockStateP11LevelSourceRK8BlockPos = __main_start + 0x36cac8;
_ZN14StoneSlabBlock10getTextureEPK9DirectionPK10BlockState = __main_start + 0x36caf0;
_ZN14StoneSlabBlock13registerIconsEP12IconRegister = __main_start + 0x36cbfc;
_ZN5Stray14addDataWalkersEP14DataFixerUpper = __main_start + 0x36ccf8;
_Z17wstringtofilenameRKNSt3__112basic_stringIwNS_11char_traitsIwEENS_9allocatorIwEEEERA256_c = __main_start + 0x36d394;
_Z17filenametowstringPKc = __main_start + 0x36d52c;
_ZN3TagC1Ev = __main_start + 0x36e304;
_ZN9StringTag5writeEP10DataOutput = __main_start + 0x36e35c;
_ZN9StringTag4loadEP9DataInputi = __main_start + 0x36e374;
_ZN9StringTag5getIdEv = __main_start + 0x36e418;
_ZN9StringTag8toStringEv = __main_start + 0x36e420;
_ZN9StringTag4copyEv = __main_start + 0x36e42c;
_ZNK9StringTag7isEmptyEv = __main_start + 0x36e460;
_ZN9StringTag6equalsEP3Tag = __main_start + 0x36e480;
_ZN3Tag6equalsEPS_ = __main_start + 0x36e578;
_ZN9StringTag11getAsStringEv = __main_start + 0x36e5c8;
_ZN16StrongholdPieces10staticCtorEv = __main_start + 0x36fb84;
_ZN14StructureBlock14getRenderShapeEPK10BlockState = __main_start + 0x377de4;
_ZN14StructureBlock11getClipAABBEPK10BlockStateP11LevelSourceRK8BlockPos = __main_start + 0x377dec;
_ZNK14StructureBlock13isSolidRenderEPK10BlockState = __main_start + 0x377df4;
_ZN14StructureBlock7mayPickEPK10BlockStateb = __main_start + 0x377dfc;
_ZN14StructureBlock14spawnResourcesEP5LevelRK8BlockPosPK10BlockStatefi = __main_start + 0x377e04;
_ZN14StructureBlock19mayReplaceWithPlaceEP11LevelSourceRK8BlockPos = __main_start + 0x377e08;
_ZN18StructureFeatureIO10staticCtorEv = __main_start + 0x3796b0;
_ZN16StructureManager10staticCtorEv = __main_start + 0x37a0fc;
_ZN6System22processTimeInMilliSecsEv = __main_start + 0x37d588;
_ZN17StructureTemplate10addWalkersEP14DataFixerUpper = __main_start + 0x380220;
_ZN18StructureVoidBlock14getRenderShapeEPK10BlockState = __main_start + 0x3803b8;
_ZN18StructureVoidBlock11getClipAABBEPK10BlockStateP11LevelSourceRK8BlockPos = __main_start + 0x3803c0;
_ZNK18StructureVoidBlock13isSolidRenderEPK10BlockState = __main_start + 0x3803c8;
_ZN18StructureVoidBlock7mayPickEPK10BlockStateb = __main_start + 0x3803d0;
_ZN18StructureVoidBlock14spawnResourcesEP5LevelRK8BlockPosPK10BlockStatefi = __main_start + 0x3803d8;
_ZN18StructureVoidBlock19mayReplaceWithPlaceEP11LevelSourceRK8BlockPos = __main_start + 0x3803dc;
_ZN18StructureVoidBlock21getPistonPushReactionEPK10BlockState = __main_start + 0x3803e4;
_ZN18StructureVoidBlock17getBlockFaceShapeEP11LevelSourcePK10BlockStateRK8BlockPosPK9Direction = __main_start + 0x3803ec;
_ZN10SwampBiomeC1EN5Biome9EBiomeIDsEPN5Biome15BiomePropertiesE = __main_start + 0x3803f4;
_ZN16SwampTreeFeature10staticCtorEv = __main_start + 0x3807d8;
_ZN6System11processTimeEN6System16ETimeGranularityE = __main_start + 0x38416c;
_ZN6System20processTimeInSecondsEv = __main_start + 0x3841ec;
_ZN6System21processTimeInNanoSecsEv = __main_start + 0x384220;
_ZN3Tag5printERKNSt3__112basic_stringIwNS0_11char_traitsIwEENS0_9allocatorIwEEEEPcRNS0_13basic_ostreamIwS3_EE = __main_start + 0x38436c;
_ZN3Tag18stripEmptyChildrenEv = __main_start + 0x38460c;
_ZNK3Tag7isEmptyEv = __main_start + 0x384610;
_ZN3Tag11getAsStringEv = __main_start + 0x384618;
_ZN10TaigaBiomeC1EN5Biome9EBiomeIDsEN10TaigaBiome5ETypeEPN5Biome15BiomePropertiesE = __main_start + 0x384624;
_ZN14TallGrassBlock8getShapeEPK10BlockStateP11LevelSourceRK8BlockPos = __main_start + 0x3855c0;
_ZN14TallGrassBlock19mayReplaceWithPlaceEP11LevelSourceRK8BlockPos = __main_start + 0x38563c;
_ZNK14TallGrassBlock8getColorEv = __main_start + 0x385644;
_ZN14TallGrassBlock8getColorEPK10BlockState = __main_start + 0x385650;
_ZN14TallGrassBlock8getColorEP11LevelSourceRK8BlockPosi = __main_start + 0x385704;
_ZN14TallGrassBlock8getColorEP11LevelSourceRK8BlockPosPK10BlockState = __main_start + 0x38575c;
_ZN14TallGrassBlock11getResourceEPK10BlockStateP6Randomi = __main_start + 0x385800;
_ZN14TallGrassBlock28getResourceCountForLootBonusEiP6Random = __main_start + 0x385838;
_ZN14TallGrassBlock13playerDestroyEP5LevelSt10shared_ptrI6PlayerERK8BlockPosPK10BlockStateSt10shared_ptrI11BlockEntityE12not_null_ptrI12ItemInstanceE = __main_start + 0x385860;
_ZN14TallGrassBlock20getCloneItemInstanceEP5LevelRK8BlockPosPK10BlockState = __main_start + 0x3859f8;
_ZN14TallGrassBlock13getBlockStateEi = __main_start + 0x385b88;
_ZN14TallGrassBlock29convertBlockStateToLegacyDataEPK10BlockState = __main_start + 0x385bf0;
_ZN14TallGrassBlock18GetInteractTooltipERK22BlockTooltipDataHolder = __main_start + 0x385c18;
_ZN14TallGrassBlock26createBlockStateDefinitionEv = __main_start + 0x385c88;
_ZN14TallGrassBlock13getOffsetTypeEv = __main_start + 0x385d68;
_ZN14TallGrassBlock10getTextureEPK9DirectionPK10BlockState = __main_start + 0x385d70;
_ZN14TallGrassBlock13registerIconsEP12IconRegister = __main_start + 0x385dac;
_ZN13TamableAnimal10staticCtorEv = __main_start + 0x38605c;
_ZN30TextureAndGeometryChangePacketC1Ev = __main_start + 0x388600;
_ZN30TextureAndGeometryChangePacket4readEP15DataInputStream = __main_start + 0x388898;
_ZN30TextureAndGeometryChangePacket5writeEP16DataOutputStream = __main_start + 0x388964;
_ZN30TextureAndGeometryChangePacket6handleEP14PacketListener = __main_start + 0x3889b4;
_ZN30TextureAndGeometryChangePacket16getEstimatedSizeEv = __main_start + 0x388a04;
_ZN24TextureAndGeometryPacketC1Ev = __main_start + 0x388a24;
_ZN24TextureAndGeometryPacketD2Ev = __main_start + 0x388a90;
_ZN24TextureAndGeometryPacketD0Ev = __main_start + 0x388ad4;
_ZN24TextureAndGeometryPacket6handleEP14PacketListener = __main_start + 0x389338;
_ZN24TextureAndGeometryPacket4readEP15DataInputStream = __main_start + 0x389388;
_ZN24TextureAndGeometryPacket5writeEP16DataOutputStream = __main_start + 0x38970c;
_ZN24TextureAndGeometryPacket16getEstimatedSizeEv = __main_start + 0x3899dc;
_ZN19TextureChangePacketC1Ev = __main_start + 0x3899e4;
_ZN19TextureChangePacket4readEP15DataInputStream = __main_start + 0x389a98;
_ZN19TextureChangePacket5writeEP16DataOutputStream = __main_start + 0x389b68;
_ZN19TextureChangePacket6handleEP14PacketListener = __main_start + 0x389bb8;
_ZN19TextureChangePacket16getEstimatedSizeEv = __main_start + 0x389c08;
_ZN13TexturePacketC1Ev = __main_start + 0x389c28;
_ZN13TexturePacketD2Ev = __main_start + 0x389c84;
_ZN13TexturePacketD0Ev = __main_start + 0x389cc8;
_ZN13TexturePacket6handleEP14PacketListener = __main_start + 0x389d58;
_ZN13TexturePacket4readEP15DataInputStream = __main_start + 0x389da8;
_ZN13TexturePacket5writeEP16DataOutputStream = __main_start + 0x389eb0;
_ZN13TexturePacket16getEstimatedSizeEv = __main_start + 0x389f28;
_ZN11TheEndBiomeC1EN5Biome9EBiomeIDsEPN5Biome15BiomePropertiesE = __main_start + 0x389f30;
_ZN15TheEndDimensionC1Ev = __main_start + 0x38a590;
_ZNK15TheEndDimension26createRandomLevelGeneratorEv = __main_start + 0x38a784;
_ZN19TheEndGatewayEntity10isSpawningEv = __main_start + 0x38b290;
_ZN19TheEndGatewayEntity13isCoolingDownEv = __main_start + 0x38b2a0;
_ZN19TheEndGatewayEntity15getSpawnPercentEf = __main_start + 0x38b754;
_ZN19TheEndGatewayEntity18getCooldownPercentEf = __main_start + 0x38b778;
_ZN17TheEndLevelSourceC1EP5LevelbxRK8BlockPos = __main_start + 0x38c5a8;
_ZN17TheEndLevelSourceD1Ev = __main_start + 0x38c728;
_ZN17TheEndLevelSourceD0Ev = __main_start + 0x38c814;
_ZN17TheEndLevelSource11createChunkEii = __main_start + 0x38d384;
_ZN17TheEndLevelSource13fjIslandCheckEii = __main_start + 0x38d528;
_ZN17TheEndLevelSource20getIslandHeightValueEiiii = __main_start + 0x38d548;
_ZN17TheEndLevelSource11postProcessEii = __main_start + 0x38d8c0;
_ZN17TheEndLevelSource22postProcessLoadedChunkEP10LevelChunkii = __main_start + 0x38dcd0;
_ZN17TheEndLevelSource9getMobsAtEP11MobCategoryRK8BlockPos = __main_start + 0x38dcd8;
_ZN17TheEndLevelSource21findNearestMapFeatureEP5LevelRKNSt3__112basic_stringIwNS2_11char_traitsIwEENS2_9allocatorIwEEEERK8BlockPosb = __main_start + 0x38dd0c;
_ZN17TheEndLevelSource14isPosInFeatureEP5LevelRKNSt3__112basic_stringIwNS2_11char_traitsIwEENS2_9allocatorIwEEEERK8BlockPos = __main_start + 0x38ddd4;
_ZN17TheEndLevelSource31recreateLogicStructuresForChunkEP10LevelChunkii = __main_start + 0x38de94;
_ZN14ThinFenceBlock31fillVirtualBlockStatePropertiesEPK10BlockStateP11LevelSourceRK8BlockPos = __main_start + 0x38df48;
_ZN14ThinFenceBlock11getResourceEPK10BlockStateP6Randomi = __main_start + 0x38e1e4;
_ZNK14ThinFenceBlock13isSolidRenderEPK10BlockState = __main_start + 0x38e200;
_ZN14ThinFenceBlock12isCubeShapedEPK10BlockState = __main_start + 0x38e208;
_ZN14ThinFenceBlock16shouldRenderFaceEPK10BlockStateP11LevelSourceRK8BlockPosPK9Direction = __main_start + 0x38e210;
_ZN14ThinFenceBlock17addCollisionAABBsEPK10BlockStateP5LevelRK8BlockPosPK4AABBPSt6vectorIP4AABBSt9allocatorIP4AABBEESt10shared_ptrI6EntityEb = __main_start + 0x38e4b8;
_ZN14ThinFenceBlock8getShapeEPK10BlockStateP11LevelSourceRK8BlockPos = __main_start + 0x38e69c;
_ZN14ThinFenceBlock15isSilkTouchableEv = __main_start + 0x38e79c;
_ZN14ThinFenceBlock14getRenderLayerEv = __main_start + 0x38e7a4;
_ZN14ThinFenceBlock29convertBlockStateToLegacyDataEPK10BlockState = __main_start + 0x38e7ac;
_ZN14ThinFenceBlock6rotateEPK10BlockStateP8Rotation = __main_start + 0x38e7b4;
_ZN14ThinFenceBlock26createBlockStateDefinitionEv = __main_start + 0x38e924;
_ZN14ThinFenceBlock17getBlockFaceShapeEP11LevelSourcePK10BlockStateRK8BlockPosPK9Direction = __main_start + 0x38e9c8;
_ZN14ThinFenceBlock14getRenderShapeEPK10BlockState = __main_start + 0x38e9fc;
_ZN9ThrownEgg14addDataWalkersEP14DataFixerUpper = __main_start + 0x390804;
_ZN16ThrownEnderpearl14addDataWalkersEP14DataFixerUpper = __main_start + 0x390d5c;
_ZN16ThrownEnderpearl5onHitEPK9HitResult = __main_start + 0x390d60;
_ZN15ThrownExpBottle14addDataWalkersEP14DataFixerUpper = __main_start + 0x391510;
_ZN12ThrownPotion10staticCtorEv = __main_start + 0x391710;
_ZN12ThrownPotion14addDataWalkersEP14DataFixerUpper = __main_start + 0x392658;
_ZN15TintedBlockItemC1EP5Blockb = __main_start + 0x392b84;
_ZN13TippableArrow10staticCtorEv = __main_start + 0x392d04;
_ZN13TippableArrow14addDataWalkersEP14DataFixerUpper = __main_start + 0x39342c;
_ZN8TntBlock7onPlaceEP5LevelRK8BlockPosPK10BlockState = __main_start + 0x394b2c;
_ZN8TntBlock15neighborChangedEPK10BlockStateP5LevelRK8BlockPosP5BlockRK8BlockPos = __main_start + 0x394be4;
_ZN8TntBlock11wasExplodedEP5LevelRK8BlockPosP9Explosion = __main_start + 0x394c98;
_ZN8TntBlock7destroyEP5LevelRK8BlockPosPK10BlockState = __main_start + 0x394e10;
_ZN8TntBlock3useEP5LevelRK8BlockPosPK10BlockStateSt10shared_ptrI6PlayerEN15InteractionHand16EInteractionHandEPK9Directionfffb = __main_start + 0x394ff0;
_ZN8TntBlock12entityInsideEP5LevelRK8BlockPosPK10BlockStateRKSt10shared_ptrI6EntityE = __main_start + 0x395228;
_ZN8TntBlock17dropFromExplosionEP9Explosion = __main_start + 0x3953b0;
_ZN8TntBlock11setPlacedByEP5LevelRK8BlockPosPK10BlockStateSt10shared_ptrI12LivingEntityE12not_null_ptrI12ItemInstanceE = __main_start + 0x3953b8;
_ZN8TntBlock13getBlockStateEi = __main_start + 0x3954e4;
_ZN8TntBlock29convertBlockStateToLegacyDataEPK10BlockState = __main_start + 0x395514;
_ZN8TntBlock26createBlockStateDefinitionEv = __main_start + 0x395540;
_ZN8TntBlock10getTextureEPK9DirectionPK10BlockState = __main_start + 0x3955b4;
_ZN8TntBlock13registerIconsEP12IconRegister = __main_start + 0x395600;
_ZN10TorchBlock25getSpawnResourcesAuxValueEPK10BlockState = __main_start + 0x3962cc;
_ZN10TorchBlock8getShapeEPK10BlockStateP11LevelSourceRK8BlockPos = __main_start + 0x3962d4;
_ZN10TorchBlock11getClipAABBEPK10BlockStateP11LevelSourceRK8BlockPos = __main_start + 0x396328;
_ZNK10TorchBlock13isSolidRenderEPK10BlockState = __main_start + 0x396338;
_ZN10TorchBlock12isCubeShapedEPK10BlockState = __main_start + 0x396340;
_ZN10TorchBlock8mayPlaceEP5LevelRK8BlockPos = __main_start + 0x3964fc;
_ZN10TorchBlock20getStateForPlacementEP5LevelRK8BlockPosPK9DirectionfffiSt10shared_ptrI12LivingEntityE = __main_start + 0x396918;
_ZN10TorchBlock7onPlaceEP5LevelRK8BlockPosPK10BlockState = __main_start + 0x396a08;
_ZN10TorchBlock15neighborChangedEPK10BlockStateP5LevelRK8BlockPosP5BlockRK8BlockPos = __main_start + 0x396a14;
_ZN10TorchBlock11animateTickEPK10BlockStateP5LevelRK8BlockPosP6Random = __main_start + 0x396c34;
_ZN10TorchBlock14getRenderLayerEv = __main_start + 0x396e50;
_ZN10TorchBlock13getBlockStateEi = __main_start + 0x396e58;
_ZN10TorchBlock29convertBlockStateToLegacyDataEPK10BlockState = __main_start + 0x396eac;
_ZN10TorchBlock6rotateEPK10BlockStateP8Rotation = __main_start + 0x396ef8;
_ZN10TorchBlock6mirrorEPK10BlockStateP6Mirror = __main_start + 0x396f50;
_ZN10TorchBlock26createBlockStateDefinitionEv = __main_start + 0x396fb8;
_ZN10TorchBlock17getBlockFaceShapeEP11LevelSourcePK10BlockStateRK8BlockPosPK9Direction = __main_start + 0x39702c;
_ZN10TorchBlock14getRenderShapeEPK10BlockState = __main_start + 0x397034;
_ZN15TradeItemPacketC1Ev = __main_start + 0x39703c;
_ZN15TradeItemPacket6handleEP14PacketListener = __main_start + 0x3970bc;
_ZN15TradeItemPacket4readEP15DataInputStream = __main_start + 0x39710c;
_ZN15TradeItemPacket5writeEP16DataOutputStream = __main_start + 0x397154;
_ZN15TradeItemPacket16getEstimatedSizeEv = __main_start + 0x397198;
_ZNK16TransparentBlock13isSolidRenderEPK10BlockState = __main_start + 0x397354;
_ZN16TransparentBlock16shouldRenderFaceEPK10BlockStateP11LevelSourceRK8BlockPosPK9Direction = __main_start + 0x39735c;
_ZN13TrapDoorBlock8getShapeEPK10BlockStateP11LevelSourceRK8BlockPos = __main_start + 0x397848;
_ZNK13TrapDoorBlock13isSolidRenderEPK10BlockState = __main_start + 0x397920;
_ZN13TrapDoorBlock12isCubeShapedEPK10BlockState = __main_start + 0x397928;
_ZN13TrapDoorBlock14isPathfindableEP11LevelSourceRK8BlockPos = __main_start + 0x397930;
_ZN13TrapDoorBlock7TestUseEv = __main_start + 0x39796c;
_ZN13TrapDoorBlock3useEP5LevelRK8BlockPosPK10BlockStateSt10shared_ptrI6PlayerEN15InteractionHand16EInteractionHandEPK9Directionfffb = __main_start + 0x397988;
_ZN13TrapDoorBlock15neighborChangedEPK10BlockStateP5LevelRK8BlockPosP5BlockRK8BlockPos = __main_start + 0x397b94;
_ZN13TrapDoorBlock20getStateForPlacementEP5LevelRK8BlockPosPK9DirectionfffiSt10shared_ptrI12LivingEntityE = __main_start + 0x397c8c;
_ZN13TrapDoorBlock8mayPlaceEP5LevelRK8BlockPosPK9Direction = __main_start + 0x397df8;
_ZN13TrapDoorBlock14getRenderLayerEv = __main_start + 0x397e40;
_ZN13TrapDoorBlock13getBlockStateEi = __main_start + 0x397e48;
_ZN13TrapDoorBlock29convertBlockStateToLegacyDataEPK10BlockState = __main_start + 0x397ed4;
_ZN13TrapDoorBlock18GetInteractTooltipERK22BlockTooltipDataHolder = __main_start + 0x397f58;
_ZN13TrapDoorBlock6rotateEPK10BlockStateP8Rotation = __main_start + 0x398008;
_ZN13TrapDoorBlock6mirrorEPK10BlockStateP6Mirror = __main_start + 0x398060;
_ZN13TrapDoorBlock26createBlockStateDefinitionEv = __main_start + 0x3980c8;
_ZN13TrapDoorBlock17getBlockFaceShapeEP11LevelSourcePK10BlockStateRK8BlockPosPK9Direction = __main_start + 0x39815c;
_ZN13TrapDoorBlock14getRenderShapeEPK10BlockState = __main_start + 0x398218;
_ZN11TreeFeature10staticCtorEv = __main_start + 0x39887c;
_ZN13TripWireBlock8getShapeEPK10BlockStateP11LevelSourceRK8BlockPos = __main_start + 0x399818;
_ZN13TripWireBlock31fillVirtualBlockStatePropertiesEPK10BlockStateP11LevelSourceRK8BlockPos = __main_start + 0x39985c;
_ZN13TripWireBlock11getClipAABBEPK10BlockStateP11LevelSourceRK8BlockPos = __main_start + 0x399a10;
_ZNK13TripWireBlock13isSolidRenderEPK10BlockState = __main_start + 0x399a20;
_ZN13TripWireBlock12isCubeShapedEPK10BlockState = __main_start + 0x399a28;
_ZN13TripWireBlock14getRenderLayerEv = __main_start + 0x399a30;
_ZN13TripWireBlock11getResourceEPK10BlockStateP6Randomi = __main_start + 0x399a38;
_ZN13TripWireBlock20getCloneItemInstanceEP5LevelRK8BlockPosPK10BlockState = __main_start + 0x399a48;
_ZN13TripWireBlock7onPlaceEP5LevelRK8BlockPosPK10BlockState = __main_start + 0x399a88;
_ZN13TripWireBlock8onRemoveEP5LevelRK8BlockPosPK10BlockState = __main_start + 0x399d10;
_ZN13TripWireBlock17playerWillDestroyEP5LevelRK8BlockPosPK10BlockStateSt10shared_ptrI6PlayerE = __main_start + 0x399d54;
_ZN13TripWireBlock12entityInsideEP5LevelRK8BlockPosPK10BlockStateRKSt10shared_ptrI6EntityE = __main_start + 0x39a2b4;
_ZN13TripWireBlock10randomTickEP5LevelRK8BlockPosPK10BlockStateP6Random = __main_start + 0x39a4d0;
_ZN13TripWireBlock4tickEP5LevelRK8BlockPosPK10BlockStateP6Random = __main_start + 0x39a4d4;
_ZN13TripWireBlock13getBlockStateEi = __main_start + 0x39a54c;
_ZN13TripWireBlock29convertBlockStateToLegacyDataEPK10BlockState = __main_start + 0x39a5a4;
_ZN13TripWireBlock6rotateEPK10BlockStateP8Rotation = __main_start + 0x39a628;
_ZN13TripWireBlock6mirrorEPK10BlockStateP6Mirror = __main_start + 0x39a798;
_ZN13TripWireBlock26createBlockStateDefinitionEv = __main_start + 0x39a860;
_ZN13TripWireBlock17getBlockFaceShapeEP11LevelSourcePK10BlockStateRK8BlockPosPK9Direction = __main_start + 0x39a990;
_ZN13TripWireBlock14getRenderShapeEPK10BlockState = __main_start + 0x39a998;
_ZN17TripWireHookBlock8getShapeEPK10BlockStateP11LevelSourceRK8BlockPos = __main_start + 0x39aa7c;
_ZN17TripWireHookBlock11getClipAABBEPK10BlockStateP11LevelSourceRK8BlockPos = __main_start + 0x39aad0;
_ZNK17TripWireHookBlock13isSolidRenderEPK10BlockState = __main_start + 0x39aae0;
_ZN17TripWireHookBlock12isCubeShapedEPK10BlockState = __main_start + 0x39aae8;
_ZN17TripWireHookBlock8mayPlaceEP5LevelRK8BlockPosPK9Direction = __main_start + 0x39aaf0;
_ZN17TripWireHookBlock8mayPlaceEP5LevelRK8BlockPos = __main_start + 0x39abe8;
_ZN17TripWireHookBlock20getStateForPlacementEP5LevelRK8BlockPosPK9DirectionfffiSt10shared_ptrI12LivingEntityE = __main_start + 0x39ac80;
_ZN17TripWireHookBlock11setPlacedByEP5LevelRK8BlockPosPK10BlockStateSt10shared_ptrI12LivingEntityE12not_null_ptrI12ItemInstanceE = __main_start + 0x39ad00;
_ZN17TripWireHookBlock15neighborChangedEPK10BlockStateP5LevelRK8BlockPosP5BlockRK8BlockPos = __main_start + 0x39ad14;
_ZN17TripWireHookBlock10randomTickEP5LevelRK8BlockPosPK10BlockStateP6Random = __main_start + 0x39b080;
_ZN17TripWireHookBlock4tickEP5LevelRK8BlockPosPK10BlockStateP6Random = __main_start + 0x39b084;
_ZN17TripWireHookBlock8onRemoveEP5LevelRK8BlockPosPK10BlockState = __main_start + 0x39b098;
_ZN17TripWireHookBlock9getSignalEPK10BlockStateP11LevelSourceRK8BlockPosPK9Direction = __main_start + 0x39b1a0;
_ZN17TripWireHookBlock15getDirectSignalEPK10BlockStateP11LevelSourceRK8BlockPosPK9Direction = __main_start + 0x39b1e4;
_ZN17TripWireHookBlock14isSignalSourceEPK10BlockState = __main_start + 0x39b254;
_ZN17TripWireHookBlock14getRenderLayerEv = __main_start + 0x39b25c;
_ZN17TripWireHookBlock13getBlockStateEi = __main_start + 0x39b264;
_ZN17TripWireHookBlock29convertBlockStateToLegacyDataEPK10BlockState = __main_start + 0x39b2d8;
_ZN17TripWireHookBlock6rotateEPK10BlockStateP8Rotation = __main_start + 0x39b350;
_ZN17TripWireHookBlock6mirrorEPK10BlockStateP6Mirror = __main_start + 0x39b3a8;
_ZN17TripWireHookBlock26createBlockStateDefinitionEv = __main_start + 0x39b410;
_ZN17TripWireHookBlock17getBlockFaceShapeEP11LevelSourcePK10BlockStateRK8BlockPosPK9Direction = __main_start + 0x39b4b4;
_ZN17TripWireHookBlock14getRenderShapeEPK10BlockState = __main_start + 0x39b4bc;
_ZN28UpdateGameRuleProgressPacketC1Ev = __main_start + 0x39b57c;
_ZN28UpdateGameRuleProgressPacket4readEP15DataInputStream = __main_start + 0x39b6d8;
_ZN28UpdateGameRuleProgressPacket5writeEP16DataOutputStream = __main_start + 0x39b840;
_ZN28UpdateGameRuleProgressPacket6handleEP14PacketListener = __main_start + 0x39b8e0;
_ZN28UpdateGameRuleProgressPacket16getEstimatedSizeEv = __main_start + 0x39b930;
_ZN20UpdateProgressPacketC1Ev = __main_start + 0x39b954;
_ZN20UpdateProgressPacket4readEP15DataInputStream = __main_start + 0x39b9c8;
_ZN20UpdateProgressPacket5writeEP16DataOutputStream = __main_start + 0x39b9fc;
_ZN20UpdateProgressPacket6handleEP14PacketListener = __main_start + 0x39ba14;
_ZN20UpdateProgressPacket16getEstimatedSizeEv = __main_start + 0x39ba64;
_ZN4phys4Vec222CreateNewThreadStorageEv = __main_start + 0x39bb50;
_ZN4phys4Vec27newTempEff = __main_start + 0x39bc28;
_ZN4Vec322CreateNewThreadStorageEv = __main_start + 0x39bcec;
_ZN4Vec39resetPoolEv = __main_start + 0x39bdfc;
_ZN4Vec33setEddd = __main_start + 0x39be00;
_ZN4Vec310distanceToEP4AABB = __main_start + 0x39c350;
_ZN5Vec3iC2Eddd = __main_start + 0x39c628;
_ZN3Vex10staticCtorEv = __main_start + 0x39c958;
_ZN3Vex14addDataWalkersEP14DataFixerUpper = __main_start + 0x39cdd8;
_ZN14VillageFeature10staticCtorEv = __main_start + 0x3a0d4c;
_ZN13VillagePieces6Smithy10staticCtorEv = __main_start + 0x3ac270;
_ZN8Villager14addDataWalkersEP14DataFixerUpper = __main_start + 0x3afce8;
_ZN8Villager10staticCtorEv = __main_start + 0x3b1068;
_ZN13VillagerGolem10staticCtorEv = __main_start + 0x3b576c;
_ZN13VillagerGolem14addDataWalkersEP14DataFixerUpper = __main_start + 0x3b6158;
_ZN18VindicationIllager14addDataWalkersEP14DataFixerUpper = __main_start + 0x3b850c;
_ZN9VineBlock11getClipAABBEPK10BlockStateP11LevelSourceRK8BlockPos = __main_start + 0x3b8ed8;
_ZN9VineBlock8getShapeEPK10BlockStateP11LevelSourceRK8BlockPos = __main_start + 0x3b8ee8;
_ZN9VineBlock31fillVirtualBlockStatePropertiesEPK10BlockStateP11LevelSourceRK8BlockPos = __main_start + 0x3b9030;
_ZNK9VineBlock13isSolidRenderEPK10BlockState = __main_start + 0x3b90c4;
_ZN9VineBlock12isCubeShapedEPK10BlockState = __main_start + 0x3b90cc;
_ZN9VineBlock19mayReplaceWithPlaceEP11LevelSourceRK8BlockPos = __main_start + 0x3b90d4;
_ZN9VineBlock8mayPlaceEP5LevelRK8BlockPosPK9Direction = __main_start + 0x3b90dc;
_ZNK9VineBlock8getColorEv = __main_start + 0x3b9698;
_ZN9VineBlock8getColorEPK10BlockState = __main_start + 0x3b969c;
_ZN9VineBlock8getColorEP11LevelSourceRK8BlockPosPK10BlockState = __main_start + 0x3b96a0;
_ZN9VineBlock8getColorEP11LevelSourceRK8BlockPos = __main_start + 0x3b96ac;
_ZN9VineBlock15neighborChangedEPK10BlockStateP5LevelRK8BlockPosP5BlockRK8BlockPos = __main_start + 0x3b96e8;
_ZN9VineBlock4tickEP5LevelRK8BlockPosPK10BlockStateP6Random = __main_start + 0x3b9778;
_ZN9VineBlock20getStateForPlacementEP5LevelRK8BlockPosPK9DirectionfffiSt10shared_ptrI12LivingEntityE = __main_start + 0x3b9fac;
_ZN9VineBlock11getResourceEPK10BlockStateP6Randomi = __main_start + 0x3ba06c;
_ZN9VineBlock16getResourceCountEP6Random = __main_start + 0x3ba07c;
_ZN9VineBlock13playerDestroyEP5LevelSt10shared_ptrI6PlayerERK8BlockPosPK10BlockStateSt10shared_ptrI11BlockEntityE12not_null_ptrI12ItemInstanceE = __main_start + 0x3ba084;
_ZN9VineBlock14getRenderLayerEv = __main_start + 0x3ba1f4;
_ZN9VineBlock13getBlockStateEi = __main_start + 0x3ba1fc;
_ZN9VineBlock29convertBlockStateToLegacyDataEPK10BlockState = __main_start + 0x3ba268;
_ZN9VineBlock26createBlockStateDefinitionEv = __main_start + 0x3ba30c;
_ZN9VineBlock6rotateEPK10BlockStateP8Rotation = __main_start + 0x3ba3c0;
_ZN9VineBlock6mirrorEPK10BlockStateP6Mirror = __main_start + 0x3ba530;
_ZN9VineBlock17getBlockFaceShapeEP11LevelSourcePK10BlockStateRK8BlockPosPK9Direction = __main_start + 0x3ba5f8;
_ZN9VineBlock14getRenderShapeEPK10BlockState = __main_start + 0x3ba600;
_ZN9VineBlock15shouldBlockTickEP5LevelRK8BlockPosPK10BlockState = __main_start + 0x3ba608;
_ZN9VoidBiomeC1EN5Biome9EBiomeIDsEPN5Biome15BiomePropertiesE = __main_start + 0x3ba880;
_ZN11VoronoiZoomC1ExNSt3__110shared_ptrI5LayerEE = __main_start + 0x3bac60;
_ZN11VoronoiZoom7getAreaEiiii = __main_start + 0x3bace0;
_ZN10VotePacketC1Ev = __main_start + 0x3bb1d4;
_ZN10VotePacket4readEP15DataInputStream = __main_start + 0x3bb280;
_ZN10VotePacket5writeEP16DataOutputStream = __main_start + 0x3bb2f0;
_ZN10VotePacket6handleEP14PacketListener = __main_start + 0x3bb35c;
_ZN10VotePacket16getEstimatedSizeEv = __main_start + 0x3bb3ac;
_ZN9WallBlock8getShapeEPK10BlockStateP11LevelSourceRK8BlockPos = __main_start + 0x3bdb04;
_ZN9WallBlock17addCollisionAABBsEPK10BlockStateP5LevelRK8BlockPosPK4AABBPSt6vectorIP4AABBSt9allocatorIP4AABBEESt10shared_ptrI6EntityEb = __main_start + 0x3bdc20;
_ZN9WallBlock11getClipAABBEPK10BlockStateP11LevelSourceRK8BlockPos = __main_start + 0x3bdca8;
_ZN9WallBlock7getNameEv = __main_start + 0x3bdcd4;
_ZN9WallBlock12isCubeShapedEPK10BlockState = __main_start + 0x3bdd18;
_ZN9WallBlock14isPathfindableEP11LevelSourceRK8BlockPos = __main_start + 0x3bdd20;
_ZNK9WallBlock13isSolidRenderEPK10BlockState = __main_start + 0x3bdd28;
_ZN9WallBlock25getSpawnResourcesAuxValueEPK10BlockState = __main_start + 0x3bde84;
_ZN9WallBlock16shouldRenderFaceEPK10BlockStateP11LevelSourceRK8BlockPosPK9Direction = __main_start + 0x3bdedc;
_ZN9WallBlock13getBlockStateEi = __main_start + 0x3bdefc;
_ZN9WallBlock29convertBlockStateToLegacyDataEPK10BlockState = __main_start + 0x3bdf64;
_ZN9WallBlock31fillVirtualBlockStatePropertiesEPK10BlockStateP11LevelSourceRK8BlockPos = __main_start + 0x3bdf8c;
_ZN9WallBlock26createBlockStateDefinitionEv = __main_start + 0x3be15c;
_ZN9WallBlock17getBlockFaceShapeEP11LevelSourcePK10BlockStateRK8BlockPosPK9Direction = __main_start + 0x3be220;
_ZN9WallBlock10getTextureEPK9DirectionPK10BlockState = __main_start + 0x3be24c;
_ZN9WallBlock13registerIconsEP12IconRegister = __main_start + 0x3be2b4;
_ZN9WallBlock14getRenderShapeEPK10BlockState = __main_start + 0x3be2b8;
_ZN13WallSignBlock8getShapeEPK10BlockStateP11LevelSourceRK8BlockPos = __main_start + 0x3be774;
_ZN13WallSignBlock15neighborChangedEPK10BlockStateP5LevelRK8BlockPosP5BlockRK8BlockPos = __main_start + 0x3be7c8;
_ZN13WallSignBlock13getBlockStateEi = __main_start + 0x3be8c8;
_ZN13WallSignBlock29convertBlockStateToLegacyDataEPK10BlockState = __main_start + 0x3be92c;
_ZN13WallSignBlock6rotateEPK10BlockStateP8Rotation = __main_start + 0x3be954;
_ZN13WallSignBlock6mirrorEPK10BlockStateP6Mirror = __main_start + 0x3be9ac;
_ZN13WallSignBlock26createBlockStateDefinitionEv = __main_start + 0x3bea14;
_ZN15WaterLevelChunkC1EP5LevelP11ChunkPrimerii = __main_start + 0x3bf40c;
_ZN14WaterlilyBlock8getShapeEPK10BlockStateP11LevelSourceRK8BlockPos = __main_start + 0x3bf660;
_ZN14WaterlilyBlock17addCollisionAABBsEPK10BlockStateP5LevelRK8BlockPosPK4AABBPSt6vectorIP4AABBSt9allocatorIP4AABBEESt10shared_ptrI6EntityEb = __main_start + 0x3bf670;
_ZN14WaterlilyBlock12entityInsideEP5LevelRK8BlockPosPK10BlockStateRKSt10shared_ptrI6EntityE = __main_start + 0x3bf6e4;
_ZNK14WaterlilyBlock8getColorEv = __main_start + 0x3bf74c;
_ZN14WaterlilyBlock8getColorEPK10BlockState = __main_start + 0x3bf768;
_ZN14WaterlilyBlock8getColorEP11LevelSourceRK8BlockPos = __main_start + 0x3bf784;
_ZN14WaterlilyBlock8getColorEP11LevelSourceRK8BlockPosPK10BlockState = __main_start + 0x3bf7a0;
_ZN14WaterlilyBlock29convertBlockStateToLegacyDataEPK10BlockState = __main_start + 0x3bf8ec;
_ZN14WaterlilyBlock14getRenderShapeEPK10BlockState = __main_start + 0x3bf8f4;
_ZN16WaterlilyFeature5placeEP5LevelR6RandomRK8BlockPos = __main_start + 0x3bfe74;
_ZN8WebBlock12entityInsideEP5LevelRK8BlockPosPK10BlockStateRKSt10shared_ptrI6EntityE = __main_start + 0x3c09b8;
_ZNK8WebBlock13isSolidRenderEPK10BlockState = __main_start + 0x3c0a20;
_ZN8WebBlock11getClipAABBEPK10BlockStateP11LevelSourceRK8BlockPos = __main_start + 0x3c0a28;
_ZN8WebBlock12isCubeShapedEPK10BlockState = __main_start + 0x3c0a38;
_ZN8WebBlock11getResourceEPK10BlockStateP6Randomi = __main_start + 0x3c0a40;
_ZN8WebBlock15isSilkTouchableEv = __main_start + 0x3c0a50;
_ZN8WebBlock13playerDestroyEP5LevelSt10shared_ptrI6PlayerERK8BlockPosPK10BlockStateSt10shared_ptrI11BlockEntityE12not_null_ptrI12ItemInstanceE = __main_start + 0x3c0a58;
_ZN8WebBlock17getBlockFaceShapeEP11LevelSourcePK10BlockStateRK8BlockPosPK9Direction = __main_start + 0x3c0b90;
_ZN8WebBlock14getRenderLayerEv = __main_start + 0x3c0b98;
_ZN8WebBlock14getRenderShapeEPK10BlockState = __main_start + 0x3c0ba0;
_ZN26WeightedPressurePlateBlock12getTickDelayEP5Level = __main_start + 0x3c1508;
_ZN26WeightedPressurePlateBlock13getBlockStateEi = __main_start + 0x3c1510;
_ZN26WeightedPressurePlateBlock29convertBlockStateToLegacyDataEPK10BlockState = __main_start + 0x3c1540;
_ZN26WeightedPressurePlateBlock26createBlockStateDefinitionEv = __main_start + 0x3c1558;
_ZN5Witch10staticCtorEv = __main_start + 0x3c15cc;
_ZN5Witch14addDataWalkersEP14DataFixerUpper = __main_start + 0x3c167c;
_ZN10WitherBoss10staticCtorEv = __main_start + 0x3c26e8;
_ZN10WitherBoss14addDataWalkersEP14DataFixerUpper = __main_start + 0x3c3110;
_ZN14WitherSkeleton14addDataWalkersEP14DataFixerUpper = __main_start + 0x3c79e8;
_ZN11WitherSkull10staticCtorEv = __main_start + 0x3c7f18;
_ZN11WitherSkull14addDataWalkersEP14DataFixerUpper = __main_start + 0x3c8048;
_ZN4Wolf10staticCtorEv = __main_start + 0x3c8960;
_ZN4Wolf14addDataWalkersEP14DataFixerUpper = __main_start + 0x3c908c;
_ZN22WoodlandMansionFeature10staticCtorEv = __main_start + 0x3cb2a4;
_ZN22WoodlandMansionFeatureC1EP27GenericOverworldLevelSourceP15SuperflatConfig = __main_start + 0x3cb4c0;
_ZN27fjGetSuitableRandomRotationER6RandomP9LevelDataii = __main_start + 0x3cbb58;
_ZN13WoodSlabBlock11DerivedInitEv = __main_start + 0x3d1e84;
_ZN13WoodSlabBlock11getMapColorEPK10BlockStateP11LevelSourceRK8BlockPos = __main_start + 0x3d1f4c;
_ZN13WoodSlabBlock11getResourceEPK10BlockStateP6Randomi = __main_start + 0x3d1f74;
_ZN13WoodSlabBlock20getCloneItemInstanceEP5LevelRK8BlockPosPK10BlockState = __main_start + 0x3d1f84;
_ZN13WoodSlabBlock13getBlockStateEi = __main_start + 0x3d2068;
_ZN13WoodSlabBlock29convertBlockStateToLegacyDataEPK10BlockState = __main_start + 0x3d2114;
_ZN13WoodSlabBlock26createBlockStateDefinitionEv = __main_start + 0x3d21a0;
_ZN13WoodSlabBlock25getSpawnResourcesAuxValueEPK10BlockState = __main_start + 0x3d227c;
_ZN13WoodSlabBlock10getTextureEPK9DirectionPK10BlockState = __main_start + 0x3d22a4;
_ZN13WoodSlabBlock13registerIconsEP12IconRegister = __main_start + 0x3d2318;
_ZN13WoodSlabBlock16getDescriptionIdEi = __main_start + 0x3d231c;
_ZN15WoolCarpetBlock21hasInHandRenderOffsetEv = __main_start + 0x3d2464;
_ZN15WoolCarpetBlock16addCollisionAABBERK8BlockPosPK4AABBPSt6vectorIP4AABBSt9allocatorIP4AABBEEPK4AABB = __main_start + 0x3d246c;
_ZN15WoolCarpetBlock8getShapeEPK10BlockStateP11LevelSourceRK8BlockPos = __main_start + 0x3d24e8;
_ZN15WoolCarpetBlock11getMapColorEPK10BlockStateP11LevelSourceRK8BlockPos = __main_start + 0x3d24f8;
_ZNK15WoolCarpetBlock13isSolidRenderEPK10BlockState = __main_start + 0x3d2520;
_ZN15WoolCarpetBlock12isCubeShapedEPK10BlockState = __main_start + 0x3d2528;
_ZN15WoolCarpetBlock8mayPlaceEP5LevelRK8BlockPos = __main_start + 0x3d2530;
_ZN15WoolCarpetBlock15neighborChangedEPK10BlockStateP5LevelRK8BlockPosP5BlockRK8BlockPos = __main_start + 0x3d25c0;
_ZN15WoolCarpetBlock16shouldRenderFaceEPK10BlockStateP11LevelSourceRK8BlockPosPK9Direction = __main_start + 0x3d264c;
_ZN15WoolCarpetBlock25getSpawnResourcesAuxValueEPK10BlockState = __main_start + 0x3d2704;
_ZN15WoolCarpetBlock13getBlockStateEi = __main_start + 0x3d272c;
_ZN15WoolCarpetBlock29convertBlockStateToLegacyDataEPK10BlockState = __main_start + 0x3d2778;
_ZN15WoolCarpetBlock26createBlockStateDefinitionEv = __main_start + 0x3d27a0;
_ZN15WoolCarpetBlock17getBlockFaceShapeEP11LevelSourcePK10BlockStateRK8BlockPosPK9Direction = __main_start + 0x3d2814;
_ZN15WoolCarpetBlock10getTextureEPK9DirectionPK10BlockState = __main_start + 0x3d2830;
_ZN15WoolCarpetBlock13registerIconsEP12IconRegister = __main_start + 0x3d28a4;
_ZN11WorldBorderC1EP5Level = __main_start + 0x3d28a8;
_ZN11WorldBorderD2Ev = __main_start + 0x3d2900;
_ZN11WorldBorderD0Ev = __main_start + 0x3d294c;
_ZN11WorldBorder14isWithinBoundsERK8BlockPos = __main_start + 0x3d2970;
_ZN11WorldBorder7getMinXEv = __main_start + 0x3d2a18;
_ZN11WorldBorder7getMaxXEv = __main_start + 0x3d2a74;
_ZN11WorldBorder7getMinZEv = __main_start + 0x3d2ad0;
_ZN11WorldBorder7getMaxZEv = __main_start + 0x3d2b2c;
_ZN11WorldBorder14isWithinBoundsEP4AABB = __main_start + 0x3d2b88;
_ZN11WorldBorder19getDistanceToBorderESt10shared_ptrI6EntityE = __main_start + 0x3d2c04;
_ZN11WorldBorder19getDistanceToBorderEdd = __main_start + 0x3d2c14;
_ZN11WorldBorder9getStatusEv = __main_start + 0x3d2ca8;
_ZN11WorldBorder7getSizeEv = __main_start + 0x3d2cd8;
_ZN11WorldBorder10getCenterXEv = __main_start + 0x3d2d5c;
_ZN11WorldBorder10getCenterZEv = __main_start + 0x3d2d64;
_ZN11WorldBorder12getListenersEv = __main_start + 0x3d2de0;
_ZN11WorldBorder7setSizeEd = __main_start + 0x3d2de8;
_ZN11WorldBorder11addListenerEP20BorderChangeListener = __main_start + 0x3d2eec;
_ZN11WorldBorder17getDamageSafeZoneEv = __main_start + 0x3d2f3c;
_ZN11WorldBorder17getDamagePerBlockEv = __main_start + 0x3d2fac;
_ZN8XZPacketD2Ev = __main_start + 0x3d3cc0;
_ZN8XZPacketD0Ev = __main_start + 0x3d3ce8;
_ZN8XZPacketC1Ev = __main_start + 0x3d3d0c;
_ZN8XZPacketC1Ecii = __main_start + 0x3d3d48;
_ZN8XZPacket6handleEP14PacketListener = __main_start + 0x3d3d98;
_ZN8XZPacket4readEP15DataInputStream = __main_start + 0x3d3de8;
_ZN8XZPacket5writeEP16DataOutputStream = __main_start + 0x3d3e44;
_ZN8XZPacket16getEstimatedSizeEv = __main_start + 0x3d3e9c;
_ZN6Zombie10staticCtorEv = __main_start + 0x3d3ef0;
_ZN6Zombie14addDataWalkersEP14DataFixerUpper = __main_start + 0x3d5364;
_ZN11ZombieHorse14addDataWalkersEP14DataFixerUpper = __main_start + 0x3d62d0;
_ZN14ZombieVillager10staticCtorEv = __main_start + 0x3d69d4;
_ZN14ZombieVillager14addDataWalkersEP14DataFixerUpper = __main_start + 0x3d6b2c;
_ZN9ZoomLayerC1ExNSt3__110shared_ptrI5LayerEE = __main_start + 0x3d7a0c;
_ZN14FuzzyZoomLayer7getAreaEiiii = __main_start + 0x3d7a8c;
_ZN9ZoomLayer4zoomExNSt3__110shared_ptrI5LayerEEi = __main_start + 0x3d7da4;
_ZN3TagD0Ev = __main_start + 0x3d7e8c;
_ZN10SlimeBlockD0Ev = __main_start + 0x3d82d4;
_ZN4SlotD0Ev = __main_start + 0x3d82f8;
_ZN11SmoothLayerD0Ev = __main_start + 0x3d834c;
_ZN9SnowBlockD0Ev = __main_start + 0x3d83f8;
_ZN14SnowLayerBlockD0Ev = __main_start + 0x3d8440;
_ZN13SoulSandBlockD0Ev = __main_start + 0x3d8588;
_ZN11SpongeBlockD0Ev = __main_start + 0x3d8754;
_ZN13SpringFeatureD0Ev = __main_start + 0x3d8778;
_ZN17StainedGlassBlockD0Ev = __main_start + 0x3d8878;
_ZN14ThinFenceBlockD0Ev = __main_start + 0x3d889c;
_ZN14ThinFenceBlockD2Ev = __main_start + 0x3d88c0;
_ZN21StainedGlassPaneBlockD0Ev = __main_start + 0x3d8904;
_ZN24StainedHardenedClayBlockD0Ev = __main_start + 0x3d8928;
_ZN10StairBlockD0Ev = __main_start + 0x3d894c;
_ZN17StandingSignBlockD0Ev = __main_start + 0x3d8970;
_ZN17StaticLiquidBlockD0Ev = __main_start + 0x3d8a14;
_ZN9StemBlockD0Ev = __main_start + 0x3d8a38;
_ZN10StoneBlockD0Ev = __main_start + 0x3d8a5c;
_ZN15StoneBrickBlockD0Ev = __main_start + 0x3d8a80;
_ZN16StoneButtonBlockD0Ev = __main_start + 0x3d8aa4;
_ZN14StoneSlabBlockD0Ev = __main_start + 0x3d8ac8;
_ZN9StringTagD1Ev = __main_start + 0x3d8b2c;
_ZN9StringTagD0Ev = __main_start + 0x3d8b60;
_ZN14StructureBlockD0Ev = __main_start + 0x3d8e64;
_ZN18StructureVoidBlockD0Ev = __main_start + 0x3d8e88;
_ZN14TallGrassBlockD0Ev = __main_start + 0x3d907c;
_ZN30TextureAndGeometryChangePacketD2Ev = __main_start + 0x3d915c;
_ZN30TextureAndGeometryChangePacketD0Ev = __main_start + 0x3d91a0;
_ZN30TextureAndGeometryChangePacket11getPacketIdEv = __main_start + 0x3d91c4;
_ZN24TextureAndGeometryPacket11getPacketIdEv = __main_start + 0x3d91cc;
_ZN19TextureChangePacketD2Ev = __main_start + 0x3d91d4;
_ZN19TextureChangePacketD0Ev = __main_start + 0x3d9218;
_ZN19TextureChangePacket11getPacketIdEv = __main_start + 0x3d923c;
_ZN13TexturePacket11getPacketIdEv = __main_start + 0x3d9244;
_ZN8TntBlockD0Ev = __main_start + 0x3d9600;
_ZN10TorchBlockD0Ev = __main_start + 0x3d9648;
_ZN15TradeItemPacketD2Ev = __main_start + 0x3d966c;
_ZN15TradeItemPacketD0Ev = __main_start + 0x3d9694;
_ZN15TradeItemPacket11getPacketIdEv = __main_start + 0x3d96b8;
_ZN16TransparentBlockD0Ev = __main_start + 0x3d9724;
_ZN13TrapDoorBlockD0Ev = __main_start + 0x3d9748;
_ZN13TripWireBlockD0Ev = __main_start + 0x3d97e8;
_ZN17TripWireHookBlockD0Ev = __main_start + 0x3d980c;
_ZN28UpdateGameRuleProgressPacketD2Ev = __main_start + 0x3d9854;
_ZN28UpdateGameRuleProgressPacketD0Ev = __main_start + 0x3d9898;
_ZN28UpdateGameRuleProgressPacket11getPacketIdEv = __main_start + 0x3d98bc;
_ZN20UpdateProgressPacketD2Ev = __main_start + 0x3d98c4;
_ZN20UpdateProgressPacketD0Ev = __main_start + 0x3d98ec;
_ZN20UpdateProgressPacket11getPacketIdEv = __main_start + 0x3d9910;
_ZN9VineBlockD0Ev = __main_start + 0x3d9ef0;
_ZN11VoronoiZoomD0Ev = __main_start + 0x3d9f88;
_ZN10VotePacketD2Ev = __main_start + 0x3d9fac;
_ZN10VotePacketD0Ev = __main_start + 0x3d9fd4;
_ZN10VotePacket11getPacketIdEv = __main_start + 0x3d9ff8;
_ZN9WallBlockD0Ev = __main_start + 0x3da000;
_ZN13WallSignBlockD0Ev = __main_start + 0x3da024;
_ZN14WaterlilyBlockD0Ev = __main_start + 0x3da124;
_ZN16WaterlilyFeatureD0Ev = __main_start + 0x3da16c;
_ZN8WebBlockD0Ev = __main_start + 0x3da1d8;
_ZN26WeightedPressurePlateBlockD0Ev = __main_start + 0x3da1fc;
_ZN15WoodButtonBlockD0Ev = __main_start + 0x3da51c;
_ZN13WoodSlabBlockD0Ev = __main_start + 0x3da684;
_ZN15WoolCarpetBlockD0Ev = __main_start + 0x3da6a8;
_ZN8XZPacket11getPacketIdEv = __main_start + 0x3da714;
_ZN17YellowFlowerBlockD0Ev = __main_start + 0x3da71c;
_ZN9ZoomLayerD0Ev = __main_start + 0x3da800;
_ZNSt3__110shared_ptrI10VotePacketEC2IS1_EERKNS_8weak_ptrIT_EENS_9enable_ifIXsr14is_convertibleIPS5_PS1_EE5valueENS2_5__natEE4typeE = __main_start + 0x3ef738;
_ZNSt6vectorIP20BorderChangeListenerSaIS1_EE9push_backERKS1_ = __main_start + 0x3f17f8;
_ZNSt3__110shared_ptrI8XZPacketEC2IS1_EERKNS_8weak_ptrIT_EENS_9enable_ifIXsr14is_convertibleIPS5_PS1_EE5valueENS2_5__natEE4typeE = __main_start + 0x3f19c4;
_ZN11SoundEngineC1Ev = __main_start + 0x3f35f4;
_ZN11ColourTable10staticCtorEv = __main_start + 0x3faa70;
_ZN10DLCManagerC1Ev = __main_start + 0x3fca24;
_ZN10DLCManager15LanguageChangedEv = __main_start + 0x3fce1c;
_ZN7DLCPack9GetPackIdEv = __main_start + 0x3fd000;
_ZN7DLCPack16hasPurchasedPackEv = __main_start + 0x3fd234;
_ZN10FJ_FuiNode8getStageEv = __main_start + 0x400a80;
_ZN10FJ_FuiNode16addEventListenerE12eFJEventTypePS_PFvS1_P8FJ_EventEb = __main_start + 0x400a9c;
_ZN10FJ_FuiNode10getChildAtEi = __main_start + 0x400f58;
_ZN7FJ_Base16getObjListParentEv = __main_start + 0x401218;
_ZN7FJ_Base5getIdEv = __main_start + 0x401240;
_ZN7FJ_Base15getLabelTooWideEv = __main_start + 0x401250;
_ZN7FJ_Base11getOldWidthEv = __main_start + 0x401260;
_ZN10FJ_FuiNodeC1EP13fuiRenderNode = __main_start + 0x401364;
_ZN10FJ_FuiNode14getNumChildrenEv = __main_start + 0x401680;
_ZN7FJ_Base7getTypeEv = __main_start + 0x402d74;
_ZN10FJ_FuiNode13dispatchEventEP8FJ_Event = __main_start + 0x40310c;
_ZN15FJ_FuiNodeStage14getStageHeightEv = __main_start + 0x4038a0;
_ZN11FJ_Document8SetFocusEi = __main_start + 0x404560;
_ZN10FJ_FuiNode13asFJ_BaseEv = __main_start + 0x4046e8;
_ZN15FJ_FuiNodeStage8setFocusEP10FJ_FuiNode = __main_start + 0x404714;
_ZN10FJ_FuiNode11getTabIndexEv = __main_start + 0x4047b0;
_ZN15FJ_FuiNodeStage8getFocusEv = __main_start + 0x404d24;
_ZN8FJ_EventC1E12eFJEventTypebb = __main_start + 0x406414;
_ZN16FJ_KeyboardEventC1Ebibb = __main_start + 0x40642c;
_ZN17FJ_MouseMoveEventC1Effbb = __main_start + 0x406464;
_ZN15FJ_FuiNodeStage11removeFocusEP10FJ_FuiNode = __main_start + 0x4064c4;
_ZN10FJ_FuiNodeD0Ev = __main_start + 0x406520;
_ZN10FJ_FuiNode13ASConstructorEv = __main_start + 0x406544;
_ZN10FJ_FuiNode13asFJ_DocumentEv = __main_start + 0x406c74;
_ZN10FJ_FuiNode13isFJ_DocumentEv = __main_start + 0x406ca0;
_ZN10FJ_FuiNode4setXEf = __main_start + 0x406f2c;
_ZN10FJ_FuiNode4setYEf = __main_start + 0x406f8c;
_ZN10FJ_FuiNode9setHeightEf = __main_start + 0x406f9c;
_ZN10FJ_FuiNode10setVisibleEb = __main_start + 0x406ffc;
_ZN10FJ_FuiNode11eventListenEP8FJ_Eventb = __main_start + 0x407148;
_ZN10FJ_FuiNode7getTypeEv = __main_start + 0x407228;
_ZN10FJ_FuiNode16setCallbackSceneEP7UIScene = __main_start + 0x407230;
_ZN15FJ_FuiNodeStageC1EP13fuiRenderNode = __main_start + 0x407284;
_ZNSt3__1plIcNS_11char_traitsIcEENS_9allocatorIcEEEENS_12basic_stringIT_T0_T1_EERKS9_PKS6_ = __main_start + 0x40d280;
_ZN7FJ_BaseD0Ev = __main_start + 0x437900;
_ZN7FJ_BaseD2Ev = __main_start + 0x438244;
_ZN10FJ_FuiNodeD2Ev = __main_start + 0x43868c;
_ZN10DLCManager24IsDlcPackTemporarilyFreeEi = __main_start + 0x43c740;
_ZN13fuiRenderNode9setScaleXEf = __main_start + 0x442e84;
_ZN13fuiRenderNode9setScaleYEf = __main_start + 0x442ee0;
_ZN10FJ_Factory12createObjectEPKcP13fuiRenderNodebPKc = __main_start + 0x4439f8;
_ZN18FJ_DynamicHtmlText4InitEv = __main_start + 0x44a494;
_ZN18FJ_DynamicHtmlText15_keyDownHandlerEP10FJ_FuiNodeP8FJ_Event = __main_start + 0x44a858;
_ZN18FJ_DynamicHtmlText13_keyUpHandlerEP10FJ_FuiNodeP8FJ_Event = __main_start + 0x44a85c;
_ZN10FJ_Factory10initialiseEv = __main_start + 0x44c1cc;
_ZN13fuiRenderNode10asTimelineEv = __main_start + 0x486280;
_ZN3fuiC1Ev = __main_start + 0x487ad0;
_ZN3fui13setScreenSizeEff = __main_start + 0x487be4;
_ZN3fui4loadE15arrayWithLengthIhEbi = __main_start + 0x487c14;
_ZN7fuiFile4loadE15arrayWithLengthIhEi = __main_start + 0x487eec;
_ZN7fuiFile8setIndexEi = __main_start + 0x488120;
_ZN3fui26allocatePermanentFileIndexEi = __main_start + 0x488128;
_ZN7fuiFile17resolveReferencesEPS_ = __main_start + 0x4881a4;
_ZN18fuiRenderNodeStage8addChildEP13fuiRenderNode = __main_start + 0x4882ac;
_ZN3fui11unloadSceneEP7fuiFile = __main_start + 0x4882b4;
_ZN3fui13setResolutionEi = __main_start + 0x4883d8;
_ZN3fui13getResolutionEv = __main_start + 0x488408;
_ZN3fui4tickEv = __main_start + 0x488410;
_ZN3fui9preRenderEP7fuiFile = __main_start + 0x4887c4;
_ZN3fui21dispatchKeyboardEventEP7fuiFilebi = __main_start + 0x48882c;
_ZN3fui22dispatchMouseMoveEventEP7fuiFileff = __main_start + 0x488894;
_ZN3fui23dispatchEnterFrameEventEv = __main_start + 0x4888fc;
_ZN13fuiRenderNode11disableCtorEv = __main_start + 0x4889b8;
_ZN7fuiFile20createNodeFromSymbolEPKcP13fuiRenderNodei = __main_start + 0x4889c8;
fuiRenderNodeTimeline__addFrameAction = __main_start + 0x488b00;
_ZN3fui22addDirectEventListenerERK16FJ_EventListener = __main_start + 0x488c6c;
_ZN3fui25removeDirectEventListenerERK16FJ_EventListener = __main_start + 0x488cd8;
_ZN3fui26removeEventListenerForNodeEP10FJ_FuiNode = __main_start + 0x488da0;
fui__setCustomTextureFn = __main_start + 0x488e60;
_ZN3fui13manageTextureEP7fuiFileP9fuiBitmap = __main_start + 0x488ea8;
_ZN3fui20removeManagedTextureEP7fuiFileP9fuiBitmap = __main_start + 0x488f94;
_ZN17fuiTextureManager20removeManagedTextureEP7fuiFileP9fuiBitmap = __main_start + 0x488f9c;
_ZN3fui18setFontIndirectionEPKcS1_ = __main_start + 0x489294;
_ZN13fuiBitmapFontC1ER9SFontDatat = __main_start + 0x489694;
_ZN13fuiBitmapFont12registerFontEv = __main_start + 0x489854;
_ZN7fuiFileC1Ev = __main_start + 0x489f04;
_ZN7fuiFileD1Ev = __main_start + 0x489f18;
_ZN7fuiFile13addDataRegionEjjPPhPFvPvE = __main_start + 0x489fd8;
_ZN16fuiTimelineEventaSERK25fuiTimelineEvent_version0 = __main_start + 0x489ff8;
_ZN7fuiFile23initialiseRenderTextureEP9fuiBitmapb = __main_start + 0x48a07c;
_ZN7fuiFile11getRootNodeEv = __main_start + 0x48a2b0;
_ZN7fuiFile21setCustomDrawCallbackEPFvPvPKcP7fuiRectES0_ = __main_start + 0x48a2b8;
_ZN7fuiFile13getStageWidthEv = __main_start + 0x48a2c0;
_ZN7fuiFile14getStageHeightEv = __main_start + 0x48a2c8;
_ZN13fuiRenderNodeC1EPS_S0_P9fuiObjectj14eFuiObjectTypehP7fuiRGBAhbP7fuiFile = __main_start + 0x48a2d0;
_ZN13fuiRenderNodeD2Ev = __main_start + 0x48a3dc;
_ZN13fuiRenderNodeD0Ev = __main_start + 0x48a420;
_ZN13fuiRenderNode8shutdownEv = __main_start + 0x48a444;
_ZN13fuiRenderNode18handleAddedToStageEv = __main_start + 0x48a448;
_ZN13fuiRenderNode10pushMatrixEv = __main_start + 0x48a4b0;
_ZN9fuiMatrix3mulERKS_S1_RS_ = __main_start + 0x48a5a0;
_ZN13fuiRenderNode9pushColorEv = __main_start + 0x48a5a8;
_ZN13fuiRenderNode8popColorEv = __main_start + 0x48a674;
_ZN13fuiRenderNode15pushFilterFlagsEv = __main_start + 0x48a690;
_ZN13fuiRenderNode14popFilterFlagsEv = __main_start + 0x48a6cc;
_ZN13fuiRenderNode9popMatrixEv = __main_start + 0x48a6e8;
_ZN13fuiRenderNode13setVisibilityEb = __main_start + 0x48a718;
_ZN13fuiRenderNode9isVisibleEv = __main_start + 0x48a734;
_ZN13fuiRenderNode4setXEf = __main_start + 0x48a748;
_ZN13fuiRenderNode15progogateBoundsEv = __main_start + 0x48a778;
_ZN13fuiRenderNode4setYEf = __main_start + 0x48a79c;
_ZN13fuiRenderNode8setWidthEf = __main_start + 0x48a7cc;
_ZN13fuiRenderNode9getScaleXEv = __main_start + 0x48a858;
_ZN13fuiRenderNode9setHeightEf = __main_start + 0x48a8a4;
_ZN13fuiRenderNode9getScaleYEv = __main_start + 0x48a904;
_ZN13fuiRenderNode8getWidthEv = __main_start + 0x48a950;
_ZN13fuiRenderNode9getHeightEv = __main_start + 0x48a980;
_ZN13fuiRenderNode20getParentSpaceBoundsEP7fuiRect = __main_start + 0x48a9b0;
_ZN13fuiRenderNode8findNodeEPKc = __main_start + 0x48aa14;
_ZN13fuiRenderNode15getNodeFromPathEPKc = __main_start + 0x48aa40;
_ZN13fuiRenderNode20generateGlobalMatrixEv = __main_start + 0x48aa88;
_ZN21fuiRenderNodeTimeline24progogateBoundsFromChildEv = __main_start + 0x48aaf4;
_ZN19fuiRenderNodeBitmapC1EP13fuiRenderNodeS1_P9fuiObjectjhP7fuiRGBAhbP7fuiFile = __main_start + 0x48acf0;
_ZN19fuiRenderNodeBitmap6renderEP7fuiRectP9fuiMatrix = __main_start + 0x48ada4;
_ZN18fuiRenderNodeStageC1EP7fuiFile = __main_start + 0x48ef10;
_ZN21fuiRenderNodeTimelineC1EP13fuiRenderNodeS1_P9fuiObjectjhP7fuiRGBAhbP7fuiFile = __main_start + 0x48f040;
_ZN21fuiRenderNodeTimeline21expandBoundsFromChildER7fuiRect = __main_start + 0x490108;
_ZN21fuiRenderNodeTimeline17updateBoundsLocalEv = __main_start + 0x4918dc;
_ZN17fuiTextureManagerC1Ev = __main_start + 0x491974;
_ZN17fuiTextureManager10initialiseEv = __main_start + 0x4919a0;
_ZN14MasterGameMode16BlockDestroyedAtERK8BlockPos = __main_start + 0x495028;
_ZN20ClientMasterGameModeC1Ev = __main_start + 0x497a68;
_ZN11MiniGameDef21GetCustomGameModeByIdE11EMiniGameIdb = __main_start + 0x4992d4;
_ZNK20CommonMasterGameMode15GetNextGameModeEv = __main_start + 0x4992e8;
_ZN20ClientMasterGameMode13IsPlayerReadyEj = __main_start + 0x499968;
_ZNK20ClientMasterGameMode16IsWaitingToStartEv = __main_start + 0x49a230;
_ZNK20ClientMasterGameMode15IsRoundStartingEv = __main_start + 0x49a240;
_ZNK20ClientMasterGameMode16IsInScoringStateEv = __main_start + 0x49a280;
_ZN20ClientMasterGameMode21isWaitingToTransitionEv = __main_start + 0x49af9c;
_ZN20ClientMasterGameMode13popTransitionEv = __main_start + 0x49b014;
_ZN19_LoadingInputParams21_LoadingInputParams_2Ev = __main_start + 0x49bca0;
_ZN19GameModeConstraints14isInputAllowedEi = __main_start + 0x4a27b4;
_ZN15GhostController11GhostRecordD2Ev = __main_start + 0x4aadd0;
_ZN15GhostControllerD2Ev = __main_start + 0x4ab5bc;
_ZN15GhostController4tickEv = __main_start + 0x4abe64;
_ZN15GhostController12canBeDeletedEv = __main_start + 0x4ac064;
_ZN8GameModeD1Ev = __main_start + 0x4acf84;
_ZN13GhostGameModeD1Ev = __main_start + 0x4acf88;
_ZN13GhostGameModeD0Ev = __main_start + 0x4acf8c;
_ZN13GhostGameMode17startDestroyBlockERK8BlockPosPK9Direction = __main_start + 0x4acfb0;
_ZN13GhostGameMode4tickEv = __main_start + 0x4acfb8;
_ZN13GhostGameMode7useItemENSt3__110shared_ptrI6PlayerEEP5LevelN15InteractionHand16EInteractionHandEb = __main_start + 0x4acfbc;
_ZN13GhostGameMode11SetGameTypeEPK8GameType = __main_start + 0x4acfc4;
_ZN13GhostGameMode11GetGameTypeEv = __main_start + 0x4acfc8;
_ZN13GhostGameMode11GetMiniGameEv = __main_start + 0x4acfd0;
_ZN13GhostGameMode9GetPlayerEv = __main_start + 0x4acfe8;
_ZN13GhostGameMode8GetLevelEv = __main_start + 0x4ad068;
_ZN13GhostGameMode20RecordLastCheckpointEiibbb = __main_start + 0x4ad070;
_ZN13GhostGameMode18RecordLapCompletedEv = __main_start + 0x4ad094;
_ZN13GhostGameMode14RecordProgressEdddd = __main_start + 0x4ad0d0;
_ZN14MasterGameMode10StaticCtorEv = __main_start + 0x4b0bb0;
_ZN11MiniGameDef10StaticCtorEv = __main_start + 0x4c3858;
_ZN11MiniGameDefC1E11EMiniGameId = __main_start + 0x4c3ac8;
_ZN11MiniGameDef15LockedInventoryEv = __main_start + 0x4c917c;
_ZNK11MiniGameDef8CanCraftEv = __main_start + 0x4ca29c;
_ZN14MiniGameMedals10staticCtorEv = __main_start + 0x4cd854;
_ZN36CollisionExceptionGameRuleDefinition17ShouldCollideWithEP5Block = __main_start + 0x4d8c74;
_ZN8GameMode12RecordDamageENSt3__110shared_ptrI6EntityEEP11CombatEntryNS1_I21ClientboundChatPacketEE = __main_start + 0x4dae18;
_ZN8GameMode11RecordDeathENSt3__110shared_ptrI6EntityEE = __main_start + 0x4dae1c;
_ZN8GameMode10RecordItemE12not_null_ptrI12ItemInstanceE = __main_start + 0x4dae20;
_ZN8GameMode15RecordContainerEiiii = __main_start + 0x4dae24;
_ZN8GameMode10RecordWalkEibb = __main_start + 0x4dae28;
_ZN8GameMode10RecordSwimEib = __main_start + 0x4dae2c;
_ZN8GameMode11RecordClimbEi = __main_start + 0x4dae30;
_ZN8GameMode13RecordUseItemE12not_null_ptrI12ItemInstanceE = __main_start + 0x4dae34;
_ZN8GameMode10RecordJumpEv = __main_start + 0x4dae38;
_ZN8GameMode16RecordGainPointsEi = __main_start + 0x4dae3c;
_ZN8GameMode15ResetTempPointsEv = __main_start + 0x4dae40;
_ZN8GameMode28RecordSecondaryTargetReachedERKNSt3__112basic_stringIwNS0_11char_traitsIwEENS0_9allocatorIwEEEEiN18GlideRingGenerator14eGlideRingSizeE = __main_start + 0x4dae44;
_ZN8GameMode20RecordThermalEnteredEv = __main_start + 0x4dae4c;
_ZN8GameMode25RecordSpawnedAtCheckpointEi = __main_start + 0x4dae50;
_ZN8GameMode17RecordBlockPlacedERK8BlockPosi = __main_start + 0x4dae54;
_ZN8GameMode20RecordBlockDestroyedERK8BlockPosi = __main_start + 0x4dae58;
_ZN8GameMode18RecordBlockPresentERK8BlockPosi = __main_start + 0x4dae5c;
_ZN8GameMode15RecordLayerTimeEv = __main_start + 0x4dae60;
_ZN8GameMode17RecordSnowballHitEv = __main_start + 0x4dae64;
_ZN8GameMode19RecordHitBySnowballEv = __main_start + 0x4dae68;
_ZN8GameMode13RecordLandingERK8BlockPos = __main_start + 0x4dae6c;
_ZN8GameMode11OnMouseDownEv = __main_start + 0x4dae70;
_ZN7fuiFile24dumpUnresolvedReferencesEv = __main_start + 0x4e2978;
_ZN23NamedAreaRuleDefinition7getAreaEv = __main_start + 0x4ffea8;
._ZNSt3__110to_wstringEf = __main_start + 0x504864;
_ZN15GameRuleManager25getLevelGenerationOptionsEv = __main_start + 0x5079cc;
_ZN22LevelGenerationOptions20getRequiredGameRulesEv = __main_start + 0x508c70;
_ZN22LevelGenerationOptions16getBiomeOverrideEiPN5Biome9BlockPairES2_ = __main_start + 0x50eb18;
_ZN22LevelGenerationOptions14getFogDistanceEv = __main_start + 0x50f918;
_ZN12LevelRuleset11getRuleTypeEv = __main_start + 0x50fd60;
_ZN12LevelRuleset17ShouldCollideWithEP5Block = __main_start + 0x5114a8;
_ZN14InfoBarManager19StartTimingCategoryENS_15eTimingCagegoryE = __main_start + 0x5149ec;
_ZN14InfoBarManager17EndTimingCategoryENS_15eTimingCagegoryE = __main_start + 0x5149f0;
_ZN19CGameNetworkManager10InitialiseEv = __main_start + 0x515370;
_ZN19CGameNetworkManager6DoWorkEv = __main_start + 0x515464;
_ZN19CGameNetworkManager6IsHostEv = __main_start + 0x515580;
_ZN19CGameNetworkManager11IsInSessionEv = __main_start + 0x5162c0;
_ZN19ConsoleUIController15IsReloadingSkinEv = __main_start + 0x5163c8;
_ZN19ConsoleUIController17CleanUpSkinReloadEv = __main_start + 0x51644c;
_ZN19CGameNetworkManager14GetPlayerCountEv = __main_start + 0x5165b8;
_ZN19CGameNetworkManager11IsLocalGameEv = __main_start + 0x5165d0;
_ZN19CGameNetworkManager12SetLocalGameEb = __main_start + 0x5167a0;
_ZN19ConsoleUIController19RequestErrorMessageEiiPijjPFiPviN10C4JStorage14EMessageResultEES1_Pwb = __main_start + 0x516f30;
_ZN19ConsoleUIController14IsSceneInStackEi8EUIScene = __main_start + 0x517b00;
_ZN19ConsoleUIController15NavigateToSceneEi8EUIScenePv8EUILayer8EUIGroup = __main_start + 0x517ea4;
_ZN19ConsoleUIController4tickEv = __main_start + 0x519300;
_ZN19ConsoleUIController6renderEv = __main_start + 0x5195d0;
_ZN19ConsoleUIController16GetMenuDisplayedEi = __main_start + 0x51b064;
_ZN8TutorialC1EiP19GameModeConstraintsbb = __main_start + 0x51e798;
_ZN8Tutorial17setStateCompletedE15eTutorial_State = __main_start + 0x5209e4;
_ZN8Tutorial4tickEv = __main_start + 0x520c50;
_ZN8Tutorial10staticCtorEv = __main_start + 0x524554;
_ZN8Tutorial8AddHintsEv = __main_start + 0x52946c;
_ZN8TutorialD0Ev = __main_start + 0x52ff2c;
_ZN8Tutorial16isStateCompletedE15eTutorial_State = __main_start + 0x52ff50;
_ZN19ConsoleUIController20IsPauseMenuDisplayedEi = __main_start + 0x530174;
_ZN8Tutorial9useItemOnE12not_null_ptrI12ItemInstanceEb = __main_start + 0x530968;
_ZN8Tutorial8onLookAtEPK10BlockState = __main_start + 0x531314;
_ZN8Tutorial13onLookAtSkullEP5LevelRK8BlockPosPK10BlockState = __main_start + 0x5313e0;
_ZN8Tutorial16onGameModeChangeE18eTutorial_GameMode = __main_start + 0x5317e0;
_ZN8Tutorial19changeTutorialStateE15eTutorial_StateP7UIScene = __main_start + 0x531a44;
_ZN19ConsoleUIController9PlayUISFXEPK10SoundEvent = __main_start + 0x53546c;
_ZN19ConsoleUIController11SetTooltipsEjiiiiiiiiiiiiiiiibb = __main_start + 0x5354fc;
_ZN19ConsoleUIController12NavigateBackEib8EUIScene8EUILayer = __main_start + 0x5356bc;
_ZN7UISceneC2EiP7UILayer = __main_start + 0x544a5c;
_ZN7UIScene4tickEv = __main_start + 0x545370;
_ZN19ConsoleUIController15TouchBoxRebuildEP7UIScene = __main_start + 0x545fac;
_ZN16UIComponent_ChatC1EiP7UILayer = __main_start + 0x54b62c;
_ZN7UIScene15initialiseMovieEv = __main_start + 0x54b8dc;
_ZN15UIControl_Label4initE8UIString = __main_start + 0x54b924;
_ZN7UILayer11getViewportEv = __main_start + 0x54bab4;
_ZN7UIScene6renderEiiN9C4JRender13eViewportTypeE = __main_start + 0x54bf60;
_ZN26UIComponent_DebugUIConsoleC1EiP7UILayer = __main_start + 0x54bfe4;
_ZN33UIComponent_DebugUIMarketingGuideC1EiP7UILayer = __main_start + 0x54c19c;
_ZN16UIComponent_LogoC1EiP7UILayer = __main_start + 0x54c214;
_ZN26UIComponent_MenuBackgroundC1EiP7UILayer = __main_start + 0x54c2f8;
_ZN20UIComponent_PanoramaC1EiP7UILayer = __main_start + 0x54c540;
_ZN28UIComponent_PressStartToPlayC1EiP7UILayer = __main_start + 0x54c91c;
_ZN28UIComponent_PressStartToPlay10handleHoldEiibbbRb = __main_start + 0x54d67c;
_ZN28UIComponent_PressStartToPlay31GetHoldToShowAchievementsActiveEb = __main_start + 0x54d788;
_ZN19ConsoleUIController21CloseAllPlayersScenesEb = __main_start + 0x54d7d8;
_ZN20UIComponent_TooltipsC1EiP7UILayer = __main_start + 0x54db94;
_ZN7UIScene16sendInputToMovieEibbb = __main_start + 0x54f940;
_ZN25UIComponent_TutorialPopupC1EiP7UILayer = __main_start + 0x54f9a8;
_ZN9UIControlC1Ev = __main_start + 0x553084;
_ZN9UIControl7getXPosEv = __main_start + 0x553244;
_ZN9UIControl7getYPosEv = __main_start + 0x55324c;
_ZN19ConsoleUIController4initEii = __main_start + 0x553380;
_ZN19ConsoleUIController7preInitEii = __main_start + 0x5533ec;
_ZN19ConsoleUIController8postInitEv = __main_start + 0x553408;
ConsoleUIController__TextureSubstitutionCreateCallbackFui = __main_start + 0x553aa8;
_ZN19ConsoleUIController37TextureSubstitutionDestroyCallbackFuiEi = __main_start + 0x553ba8;
_ZN19ConsoleUIController9SetupFontEv = __main_start + 0x553bd0;
_ZN19ConsoleUIController9loadSkinsEv = __main_start + 0x553e84;
_ZN19ConsoleUIController18getFontForLanguageEi = __main_start + 0x554688;
_ZN19ConsoleUIController10createFontEN19ConsoleUIController5EFontE = __main_start + 0x5546cc;
_ZN19ConsoleUIController17updateCurrentFontEv = __main_start + 0x554a44;
_ZN19ConsoleUIController18getCleanupOnReloadEv = __main_start + 0x554ab8;
_ZN7UIGroup14closeAllScenesEv = __main_start + 0x554ae4;
_ZN7UIGroup13ClearTooltipsEv = __main_start + 0x554b7c;
_ZN19ConsoleUIController9tickInputEv = __main_start + 0x554c08;
_ZN7UIGroup4tickEv = __main_start + 0x554c50;
_ZN7UIGroup15ReloadAllLayersEv = __main_start + 0x554dd8;
ConsoleUIController__getMovieData = __main_start + 0x555278;
_ZN19ConsoleUIController11handleInputEv = __main_start + 0x555634;
_ZN19ConsoleUIController14handleKeyPressEjj = __main_start + 0x555a4c;
_ZN7UIGroup15getCurrentSceneEi = __main_start + 0x555fb4;
_ZN19ConsoleUIController11TouchBoxHitEP7UISceneii = __main_start + 0x55605c;
_ZN19ConsoleUIController16HandleTouchInputEjjbbb = __main_start + 0x5561c8;
_ZN7UIGroup11handleInputEiibbbRb = __main_start + 0x556d04;
_ZN19ConsoleUIController19setupRenderPositionEN9C4JRender13eViewportTypeE = __main_start + 0x557044;
_ZN19ConsoleUIController16SetMenuDisplayedEib = __main_start + 0x5576c0;
_ZN7UIGroup15NavigateToSceneEi8EUIScenePv8EUILayer = __main_start + 0x557898;
_ZN19ConsoleUIController8GetGroupEi = __main_start + 0x557c34;
_ZN7UIGroup14IsSceneInStackE8EUIScene = __main_start + 0x55812c;
_ZN19ConsoleUIController18CheckMenuDisplayedEv = __main_start + 0x5581d0;
_ZN19ConsoleUIController15AnimateKeyPressEiibbb = __main_start + 0x558558;
_ZN19ConsoleUIController10GetHotBarXEj = __main_start + 0x558a90;
_ZN19ConsoleUIController10GetHotBarYEj = __main_start + 0x558b3c;
_ZN19ConsoleUIController14GetHotBarWidthEj = __main_start + 0x558be8;
_ZN19ConsoleUIController15GetHotBarHeightEj = __main_start + 0x558c94;
_ZN19ConsoleUIController21GetQuickSelectVisibleEj = __main_start + 0x558d40;
_ZN19ConsoleUIController21HideAllGameUIElementsEv = __main_start + 0x5595d4;
_ZN19ConsoleUIController25ShowOtherPlayersBaseSceneEjb = __main_start + 0x55961c;
_ZN19ConsoleUIController14ShowTrialTimerEb = __main_start + 0x559620;
_ZN19ConsoleUIController16UpdateTrialTimerEj = __main_start + 0x55966c;
_ZN19ConsoleUIController26GetAchievementToastShowingEi = __main_start + 0x559d30;
_ZN19ConsoleUIController31GetHoldToShowAchievementsActiveEb = __main_start + 0x559d60;
_ZN19ConsoleUIController22GetHoldActionCancelledEi = __main_start + 0x559d90;
_ZN19ConsoleUIController25updateViewportTouchOffsetEN9C4JRender13eViewportTypeE = __main_start + 0x55a4b4;
_ZN7UIScene21getCachedSlotDrawDataEv = __main_start + 0x55a844;
_ZN25UIControl_TexturePackList13SetTouchFocusEiib = __main_start + 0x55ab44;
_ZN16UIControl_ButtonC1Ev = __main_start + 0x55b324;
_ZN16UIControl_Button4initE8UIStringi = __main_start + 0x55b3a8;
_ZN22UIControl_DynamicLabelC1Ev = __main_start + 0x55bdec;
_ZN15UIControl_LabelC1Ev = __main_start + 0x55be1c;
_ZN7UIGroupC1E8EUIGroupi = __main_start + 0x561930;
_ZN7UILayer12addComponentEi8EUIScenePv = __main_start + 0x561af8;
_ZN7UILayer9ReloadAllEb = __main_start + 0x561e20;
_ZN7UILayer15NavigateToSceneEi8EUIScenePv = __main_start + 0x562384;
_ZN7UILayer14IsSceneInStackE8EUIScene = __main_start + 0x563174;
_ZN7UILayer11handleInputEiibbbRb = __main_start + 0x563258;
_ZN7UILayer15removeComponentE8EUIScene = __main_start + 0x5634e8;
_ZN7UILayer16updateFocusStateEb = __main_start + 0x563810;
_ZN7UILayerC1EP7UIGroup = __main_start + 0x563aec;
_ZN7UILayer19getRenderDimensionsERiS0_ = __main_start + 0x563bc0;
_ZN20UIScene_CreativeMenuC1EiPvP7UILayer = __main_start + 0x563bc8;
_ZN21UIScene_ContainerMenuC1EiPvP7UILayer = __main_start + 0x563fac;
_ZN24UIScene_BrewingStandMenuC1EiPvP7UILayer = __main_start + 0x5644bc;
_ZN21UIScene_DispenserMenuC1EiPvP7UILayer = __main_start + 0x5648a4;
_ZN22UIScene_EnchantingMenuC1EiPvP7UILayer = __main_start + 0x564bac;
_ZN19UIScene_FurnaceMenuC1EiPvP7UILayer = __main_start + 0x564e7c;
_ZN17UIScene_AnvilMenuC1EiPvP7UILayer = __main_start + 0x5652b4;
_ZN18UIScene_HopperMenuC1EiPvP7UILayer = __main_start + 0x56580c;
_ZN18UIScene_BeaconMenuC1EiPvP7UILayer = __main_start + 0x565b58;
_ZN26UIScene_HorseInventoryMenuC1EiPvP7UILayer = __main_start + 0x565eb8;
_ZN27UIScene_ClassicCraftingMenuC1EiPvP7UILayer = __main_start + 0x56630c;
_ZN23UIScene_CreateWorldMenuC1EiPvP7UILayer = __main_start + 0x5665d0;
_ZN7UIScene12setBackSceneEP7UIScene = __main_start + 0x566a0c;
_ZN7UISceneD0Ev = __main_start + 0x5670d8;
_ZNK7UIScene15getSubSceneTypeEv = __main_start + 0x5670fc;
_ZN7UIScene11reloadMovieEb = __main_start + 0x567104;
_ZN7UIScene13needsReloadedEv = __main_start + 0x56726c;
_ZN7UIScene8hasMovieEv = __main_start + 0x5672c0;
_ZN7UIScene21getSafeZoneHalfHeightEv = __main_start + 0x5672d0;
_ZN7UIScene20getSafeZoneHalfWidthEv = __main_start + 0x5672f0;
_ZN7UIScene14updateSafeZoneEv = __main_start + 0x567310;
_ZN7UIScene9loadMovieEv = __main_start + 0x567520;
_ZN7UIScene17SetFocusToElementEi = __main_start + 0x567690;
_ZN7UIScene19mapElementsAndNamesEv = __main_start + 0x56771c;
_ZN7UIScene13customDrawFuiEPvPKcP7fuiRect = __main_start + 0x567724;
_ZN7UIScene10tickTimersEv = __main_start + 0x567730;
_ZN7UIScene12GetMainPanelEv = __main_start + 0x5677bc;
_ZN7UIScene10customDrawEPKcP7fuiRect = __main_start + 0x567b64;
_ZN7UIScene15handleGainFocusEb = __main_start + 0x567b68;
_ZN7UIScene14updateTooltipsEv = __main_start + 0x567b6c;
_ZN7UIScene29convertGameActionToFuiKeycodeEi = __main_start + 0x567bf8;
_ZN7UIScene11allowRepeatEi = __main_start + 0x567c18;
_ZN7UIScene25updateViewportTouchOffsetEv = __main_start + 0x568004;
_ZN7UIScene13HandleMessageE10EUIMessagePv = __main_start + 0x56802c;
_ZN7UIScene15isReadyToDeleteEv = __main_start + 0x568068;
_ZN7UIScene21handleCheckboxToggledEib = __main_start + 0x568070;
_ZN24UIScene_AchievementsMenuC1EiPvP7UILayer = __main_start + 0x569130;
_ZN21UIScene_BedrockUpsellC1EiPvP7UILayer = __main_start + 0x56c840;
_ZN24UIScene_BiomePreviewMenuC1EiPvP7UILayer = __main_start + 0x56cd00;
_ZN24UIScene_BiomePreviewMenu4tickEv = __main_start + 0x56d458;
_ZN24UIScene_BiomePreviewMenu11onMouseTickEv = __main_start + 0x56d570;
_ZN24UIScene_BiomePreviewMenu18UpdatePreviewImageERK15arrayWithLengthIhEb = __main_start + 0x56d6f8;
_ZN26UIScene_ConnectingProgressC1EiPvP7UILayer = __main_start + 0x56f3f0;
_ZN7UIScene12handleReloadEv = __main_start + 0x56fa28;
_ZN20UIScene_ControlsMenuC1EiPvP7UILayer = __main_start + 0x57048c;
_ZN20UIScene_CraftingMenuC1EiPvP7UILayer = __main_start + 0x5749e8;
_ZN20UIScene_CreativeMenu10staticCtorEv = __main_start + 0x577878;
_ZN15UIScene_CreditsC1EiPvP7UILayer = __main_start + 0x57f480;
_ZN17UIScene_DeathMenuC1EiPvP7UILayer = __main_start + 0x5802d0;
_ZN19UIScene_DLCMainMenuC1EiPvP7UILayer = __main_start + 0x580fdc;
_ZN21UIScene_DLCOffersMenuC1EiPvP7UILayer = __main_start + 0x581668;
_ZN15UIScene_EndPoemC1EiPvP7UILayer = __main_start + 0x5831cc;
_ZN12UIScene_EULAC1EiPvP7UILayer = __main_start + 0x583ed8;
_ZN26UIScene_FullscreenProgressC1EiPvP7UILayer = __main_start + 0x58459c;
_ZN30UIScene_GameModeScoreboardMenuC1EiPvP7UILayer = __main_start + 0x585de0;
_ZN26UIScene_HelpAndOptionsMenuC1EiPvP7UILayer = __main_start + 0x5885b4;
_ZN17UIScene_HowToPlayC1EiPvP7UILayer = __main_start + 0x58a3cc;
_ZN21UIScene_HowToPlayMenuC1EiPvP7UILayer = __main_start + 0x58d974;
_ZN11UIScene_HUDC1EiP7UILayer = __main_start + 0x58ddb0;
_ZN29UIScene_InGameHostOptionsMenuC1EiPvP7UILayer = __main_start + 0x593e04;
_ZN22UIScene_InGameInfoMenuC1EiPvP7UILayer = __main_start + 0x595084;
_ZN8TutorialD1Ev = __main_start + 0x596d28;
_ZN7UIScene11stealsFocusEv = __main_start + 0x597744;
_ZN7UIScene8hasFocusEi = __main_start + 0x59774c;
_ZN7UIScene16updateComponentsEv = __main_start + 0x59776c;
_ZN7UIScene15handleLoseFocusEv = __main_start + 0x597770;
_ZN7UIScene16hidesLowerScenesEv = __main_start + 0x597774;
_ZN7UIScene11blocksInputEv = __main_start + 0x59777c;
_ZN7UIScene11handleInputEiibbbKb = __main_start + 0x597784;
_ZN7UIScene13handleDestroyEv = __main_start + 0x597788;
_ZN7UIScene24handlePreUnloadForReloadEv = __main_start + 0x59778c;
_ZN7UIScene15handlePreReloadEv = __main_start + 0x597790;
_ZN7UIScene11handlePressEii = __main_start + 0x597794;
_ZN7UIScene17handleFocusChangeEii = __main_start + 0x597798;
_ZN7UIScene15handleInitFocusEii = __main_start + 0x59779c;
_ZN7UIScene28handleCheckboxElementToggledEiib = __main_start + 0x5977a0;
_ZN7UIScene23handleSliderElementMoveEiii = __main_start + 0x5977a4;
_ZN7UIScene18handleAnimationEndEv = __main_start + 0x5977a8;
_ZN7UIScene21handleRequestMoreDataEib = __main_start + 0x5977ac;
_ZN7UIScene18HandleDLCInstalledEv = __main_start + 0x5977b0;
_ZN7UIScene22HandleDLCLicenseChangeEv = __main_start + 0x5977b4;
_ZN7UIScene25HandleTMSBanFileRetrievedEv = __main_start + 0x5977b8;
_ZN7UIScene23HandleSaveDeviceRemovedEi = __main_start + 0x5977bc;
_ZN7UIScene23handleUnlockFullVersionEv = __main_start + 0x5977c0;
_ZN7UIScene16handleTouchInputEjiiibbb = __main_start + 0x5977c4;
_ZN7UIScene16handleSliderMoveEii = __main_start + 0x598680;
_ZN7UIScene22handleSelectionChangedEi = __main_start + 0x598684;
_ZN7UIScene21handleTouchBoxRebuildEv = __main_start + 0x598688;
_ZN7UIScene25HandleDLCMountingCompleteEv = __main_start + 0x59868c;
_ZN7UIScene19handleTimerCompleteEi = __main_start + 0x598c90;
_ZN7UISceneD2Ev = __main_start + 0x598cac;
_ZN14UIControl_BaseD1Ev = __main_start + 0x59a008;
_ZN8GameMode18RecordLapCompletedEv = __main_start + 0x5a4ccc;
_ZN8GameMode14RecordProgressEdddd = __main_start + 0x5a4cd4;
_ZN31UIScene_InGamePlayerOptionsMenuC1EiPvP7UILayer = __main_start + 0x5bd1d4;
_ZN13CMinecraftApp17GetGameHostOptionE15eGameHostOption = __main_start + 0x5bdbdc;
_ZN4L10N9GetStringEi = __main_start + 0x5bdbec;
CMinecraftApp__GetPlayerGameType = __main_start + 0x5bdc14;
_ZN13CMinecraftApp19GetLocalPlayerCountEv = __main_start + 0x5be004;
_ZN20ClientPacketListener4sendESt10shared_ptrI6PacketE = __main_start + 0x5bf198;
_ZN32UIScene_InGameSaveManagementMenuC1EiPvP7UILayer = __main_start + 0x5bf524;
_ZN30UIScene_InGameSettingsListMenuC1EiPvP7UILayer = __main_start + 0x5c060c;
_ZN13UIScene_IntroC1EiPvP7UILayer = __main_start + 0x5c64c4;
_ZN12GameSettings15GetGameSettingsEi12eGameSetting = __main_start + 0x5c66d4;
_ZN21UIScene_InventoryMenuC1EiPvP7UILayer = __main_start + 0x5c70c0;
_ZN16UIScene_JoinMenuC1EiPvP7UILayer = __main_start + 0x5c7fec;
_ZN13CMinecraftApp17SetGameHostOptionE15eGameHostOptionj = __main_start + 0x5c9564;
_ZN13CMinecraftApp17GetGameHostOptionEj15eGameHostOption = __main_start + 0x5c9584;
_ZN16UIScene_KeyboardC1EiPvP7UILayer = __main_start + 0x5c9770;
_ZN24UIScene_LanguageSelectorC1EiPvP7UILayer = __main_start + 0x5c9c0c;
_ZN12GameSettings24CheckGameSettingsChangedEbi = __main_start + 0x5ca004;
_ZN29UIScene_LaunchMoreOptionsMenuC1EiPvP7UILayer = __main_start + 0x5ca33c;
_GLOBAL__sub_I_UnityClient9.cpp = __main_start + 0x5cf7d8;
_ZN24UIScene_LeaderboardsMenu10staticCtorEv = __main_start + 0x5cf94c;
_ZN24UIScene_LeaderboardsMenuC1EiPvP7UILayer = __main_start + 0x5d0018;
_ZN13CMinecraftApp14GetGameStartedEv = __main_start + 0x5d0808;
_ZN26UIScene_LoadCreateJoinMenuC1EiPvP7UILayer = __main_start + 0x5d24a8;
_ZN26UIScene_LoadCreateJoinMenu4tickEv = __main_start + 0x5d3530;
_ZN12GameSettings15SetGameSettingsEi12eGameSettingh = __main_start + 0x5d3bfc;
_ZN26UIScene_LoadCreateJoinMenu16handleTouchInputEjiiibbb = __main_start + 0x5d40f4;
_ZN26UIScene_LoadCreateJoinMenu12GetMainPanelEv = __main_start + 0x5d4194;
_ZN20CConsoleMinecraftApp19GetCommerceInstanceEv = __main_start + 0x5d4750;
_ZN16UIScene_LoadMenuC1EiPvP7UILayer = __main_start + 0x5d6350;
_ZN16UIScene_MainMenuC1EiPvP7UILayer = __main_start + 0x5d8954;
CMinecraftApp__hasArchiveFile = __main_start + 0x5d8ecc;
CMinecraftApp__getArchiveFile = __main_start + 0x5d8f7c;
_ZN20CConsoleMinecraftApp8ExitGameEv = __main_start + 0x5dafc0;
_ZN20CConsoleMinecraftApp20ReleaseSaveThumbnailEv = __main_start + 0x5dafc4;
_ZN12GameSettings24ApplyGameSettingsChangedEi = __main_start + 0x5db06c;
_ZN13CMinecraftApp20SetAutosaveTimerTimeEv = __main_start + 0x5db754;
_ZN21UIScene_MapSelectMenuC1EiPvP7UILayer = __main_start + 0x5db7e0;
_ZN19UIScene_MapVoteMenuC1EiPvP7UILayer = __main_start + 0x5dcef4;
_ZN18UIScene_MessageBoxC1EiPvP7UILayer = __main_start + 0x5de18c;
_ZN24UIScene_NewUpdateMessageC1EiPvP7UILayer = __main_start + 0x5de838;
_ZN24UIScene_NewUpdateMessageD2Ev = __main_start + 0x5debcc;
_ZN24UIScene_NewUpdateMessageD0Ev = __main_start + 0x5dec24;
_ZN24UIScene_NewUpdateMessage12getMoviePathEv = __main_start + 0x5dec48;
_ZN24UIScene_NewUpdateMessage14updateTooltipsEv = __main_start + 0x5dec88;
_ZN24UIScene_NewUpdateMessage11handleInputEiibbbKb = __main_start + 0x5decfc;
_ZN24UIScene_NewUpdateMessage11handlePressEii = __main_start + 0x5dee24;
_ZN17UIScene_PauseMenuC1EiPvP7UILayer = __main_start + 0x5deec4;
_ZN13CMinecraftApp9SetActionEi10eXuiActionPv = __main_start + 0x5e0c40;
_ZN17UIScene_PauseMenu19SaveWorldThreadProcEPv = __main_start + 0x5e1018;
_ZN13CMinecraftApp22GetChangingSessionTypeEv = __main_start + 0x5e11a0;
_ZN22UIScene_QuadrantSigninC1EiPvP7UILayer = __main_start + 0x5e17d8;
_ZN21UIScene_ReinstallMenuC1EiPvP7UILayer = __main_start + 0x5e2334;
_ZN19UIScene_SaveMessageC1EiPvP7UILayer = __main_start + 0x5e25b4;
_ZN24UIScene_SettingsListMenuC1EiPvP7UILayer = __main_start + 0x5e2aac;
_ZN20UIScene_SettingsMenuC1EiPvP7UILayer = __main_start + 0x5e41a4;
_ZN12GameSettings21SetDefaultGameOptionsEPN10C4JStorage15PROFILESETTINGSEib = __main_start + 0x5e49f4;
_ZN21UIScene_SignEntryMenuC1EiPvP7UILayer = __main_start + 0x5e4da8;
_ZN13CMinecraftApp21IsConsoleChatCensoredEv = __main_start + 0x5e5418;
_ZN22UIScene_SkinSelectMenuC1EiPvP7UILayer = __main_start + 0x5e580c;
_ZN26UIScene_SuperFlatEditLayerC1EiPvP7UILayer = __main_start + 0x5ea3cc;
_ZN21UIScene_SuperFlatMenuC1EiPvP7UILayer = __main_start + 0x5ec1dc;
_ZN24UIScene_SuperFlatPresetsC1EiPvP7UILayer = __main_start + 0x5eeb9c;
_ZN20UIScene_TeleportMenuC1EiPvP7UILayer = __main_start + 0x5ef758;
_ZN13UIScene_TimerC1EiPvP7UILayer = __main_start + 0x5f04d0;
_ZN19UIScene_TradingMenuC1EiPvP7UILayer = __main_start + 0x5f058c;
_ZN20CConsoleMinecraftApp22SetRichPresenceContextEii = __main_start + 0x5f099c;
_ZN23UIScene_TrialExitUpsellC1EiPvP7UILayer = __main_start + 0x5f23e8;
_ZN24UIScene_WritableBookMenuC1EiPvP7UILayer = __main_start + 0x5f2624;
_ZN8UIString18setCurrentLanguageEv = __main_start + 0x5f4a80;
_ZN8UIString18getCurrentLanguageEv = __main_start + 0x5f4b8c;
_ZN8UIStringC1EPKw = __main_start + 0x5f538c;
_ZN8UIStringD0Ev = __main_start + 0x5f5434;
_Z11CreateFileAPKcjjPvjji = __main_start + 0x5f5a08;
_Z12GetLastErrorv = __main_start + 0x5f5ba0;
_Z11GetFileSizeiPj = __main_start + 0x5f5ba8;
_Z8ReadFileiPvjPjP11_OVERLAPPED = __main_start + 0x5f5be8;
_ZN20CConsoleMinecraftApp14FatalLoadErrorEPKwz = __main_start + 0x5f5c90;
_Z11CloseHandlei = __main_start + 0x5f5d2c;
_ZN9UITTFFont11getFontNameEv = __main_start + 0x5f5d88;
_ZN13CMinecraftAppC2Ev = __main_start + 0x5f7b1c;
_ZN13CMinecraftApp15SetBanListCheckEii = __main_start + 0x5f8054;
_Z25InitializeCriticalSectionPN2nn2os9MutexTypeE = __main_start + 0x5f8064;
_ZN13CMinecraftApp21LocaleAndLanguageInitEv = __main_start + 0x5f8098;
_ZN13CMinecraftApp12GetXuiActionEi = __main_start + 0x5fabdc;
_ZN13CMinecraftApp17SetActionInternalEi10eXuiActionPv = __main_start + 0x5fabe8;
_ZN13CMinecraftApp10StaticCtorEv = __main_start + 0x5faf28;
_ZN13CMinecraftApp11IsAppPausedEv = __main_start + 0x5faf2c;
_ZN13CMinecraftApp12SetAppPausedEb = __main_start + 0x5fafb0;
_ZN13CMinecraftApp17LoadInventoryMenuEiN3std10shared_ptrI11LocalPlayerEEb = __main_start + 0x5fb374;
_ZN13CMinecraftApp16LoadCreativeMenuEiN3std10shared_ptrI11LocalPlayerEEb = __main_start + 0x5fb444;
_ZN13CMinecraftApp19LoadCrafting2x2MenuEiN3std10shared_ptrI11LocalPlayerEE = __main_start + 0x5fb50c;
_ZN13CMinecraftApp11IsUUIDLocalERKSt12basic_stringIwSt11char_traitsIwESt9allocatorIwEE = __main_start + 0x5fc544;
_ZN13CMinecraftApp16InitGameSettingsEv = __main_start + 0x5fc660;
_ZN12GameSettings16InitGameSettingsEv = __main_start + 0x5fc674;
_ZN13CMinecraftApp21SetDefaultHostOptionsEv = __main_start + 0x5fc78c;
_ZN13CMinecraftApp16HandleXuiActionsEv = __main_start + 0x5fc864;
_ZN13CMinecraftApp18GetGlobalXuiActionEv = __main_start + 0x5feec4;
_ZN13CMinecraftApp18SetGlobalXuiActionE10eXuiAction = __main_start + 0x5feecc;
_ZN13CMinecraftApp22UpsellReturnedCallbackEPv11eUpsellType15eUpsellResponsei = __main_start + 0x600d88;
_ZN13CMinecraftApp8InitTimeEv = __main_start + 0x6019ec;
_Z25QueryPerformanceFrequencyP14_LARGE_INTEGER = __main_start + 0x601a34;
_Z23QueryPerformanceCounterP14_LARGE_INTEGER = __main_start + 0x601a48;
_ZN13CMinecraftApp10UpdateTimeEv = __main_start + 0x601a80;
_ZN13CMinecraftApp15StoreLaunchDataEv = __main_start + 0x602054;
_ZN13CMinecraftApp8ExitGameEv = __main_start + 0x602058;
_ZN13CMinecraftApp14FatalLoadErrorEPKwz = __main_start + 0x6021a0;
_ZN13CMinecraftApp14InitialiseTipsEv = __main_start + 0x6022b0;
_ZN13CMinecraftApp17processSchematicsEP10LevelChunk = __main_start + 0x603840;
_ZN13CMinecraftApp20loadDefaultGameRulesEv = __main_start + 0x603850;
_ZN13CMinecraftApp25getLevelGenerationOptionsEv = __main_start + 0x603868;
_ZN13CMinecraftApp17ShouldCollideWithEP5Block = __main_start + 0x603870;
_Z12GetTickCountv = __main_start + 0x605280;
_ZN13CMinecraftApp28GetReallyChangingSessionTypeEv = __main_start + 0x605ac4;
_ZN13CMinecraftApp16TickOpacityTimerEi = __main_start + 0x605ae8;
_ZN13CMinecraftApp22UpdateTrialPausedTimerEv = __main_start + 0x605b54;
_ZN13CMinecraftApp15GetBanListCheckEi = __main_start + 0x605b68;
_ZN13CMinecraftApp24GetTMSGlobalFileListReadEv = __main_start + 0x605bcc;
_ZN13CMinecraftApp17GetTMSDLCInfoReadEv = __main_start + 0x605bd4;
_ZN13CMinecraftApp19GetTMSXUIDsFileReadEv = __main_start + 0x605bdc;
_ZN13CMinecraftApp14GetFileFromTPDE12eTPDFileTypePhjPS1_Pj = __main_start + 0x605bec;
_ZN13CMinecraftApp20GetFirstMiniGameTypeEv = __main_start + 0x605bf8;
_ZN9CustomSetEv = __main_start + 0x605c4c;
malloc = __main_start + 0x605c94;
free = __main_start + 0x605d1c;
_ZN9CustomSet4findERK8ChunkPos = __main_start + 0x605d38;
_ZN9CustomSet6insertERK8ChunkPos = __main_start + 0x605db4;
_ZN9CustomSet6resizeEv = __main_start + 0x605e54;
realloc = __main_start + 0x605ee4;
_ZN12GameSettings18SetDefaultControlsEPN10C4JStorage15PROFILESETTINGSEib = __main_start + 0x605f18;
_ZN12GameSettings28ClearGameSettingsChangedFlagEi = __main_start + 0x606f94;
_ZN4L10N15loadStringTableEv = __main_start + 0x607078;
_Z23TryEnterCriticalSectionPN2nn2os9MutexTypeE = __main_start + 0x607fa4;
_Z16CreateDirectoryAPKcPv = __main_start + 0x608024;
_Z18GetFileAttributesAPKc = __main_start + 0x6081f8;
_Z9MoveFileAPKcS0_ = __main_start + 0x608360;
_Z14FindFirstFileAPKcP17_WIN32_FIND_DATAA = __main_start + 0x60851c;
_Z13FindNextFileAiP17_WIN32_FIND_DATAA = __main_start + 0x608548;
_ZN11TlsSetValueEjPv = __main_start + 0x6086b0;
_ZN13CMinecraftAppD2Ev = __main_start + 0x60895c;
_ZN20CConsoleMinecraftAppC1Ev = __main_start + 0x608a34;
createNXProductCodes = __main_start + 0x608a84;
_ZN20CConsoleMinecraftApp15StoreLaunchDataEv = __main_start + 0x608ccc;
_ZN20CConsoleMinecraftApp20CaptureSaveThumbnailEv = __main_start + 0x608d00;
_ZN20CConsoleMinecraftApp16GetSaveThumbnailEPPhPj = __main_start + 0x608d20;
_ZN20CConsoleMinecraftApp13GetScreenshotEiPPhPj = __main_start + 0x608e44;
_ZN20CConsoleMinecraftApp20GetLocalTMSFileIndexEPwb18eFileExtensionType = __main_start + 0x608e48;
_ZN20CConsoleMinecraftApp16LoadLocalTMSFileEPw = __main_start + 0x608e50;
_ZN20CConsoleMinecraftApp16LoadLocalTMSFileEPw18eFileExtensionType = __main_start + 0x608e58;
_ZN20CConsoleMinecraftApp17FreeLocalTMSFilesE12eTMSFileType = __main_start + 0x608e60;
_ZN20CConsoleMinecraftApp24TemporaryCreateGameStartEv = __main_start + 0x608e64;
_ZN20CConsoleMinecraftApp12CommerceInitEv = __main_start + 0x608e68;
_ZN20CConsoleMinecraftApp27Callback_SaveGameIncompleteEPvN10C4JStorage19ESaveIncompleteTypeE = __main_start + 0x608f04;
_Z7MemSecti = __main_start + 0x609ed0;
calloc = __main_start + 0x60a234;
aligned_alloc = __main_start + 0x60a294;
nninitStartup = __main_start + 0x60a2a8;
nnMain = __main_start + 0x60a3e4;
_ZN11LocalPlayer10isPickableEv = __main_start + 0x60b9bc;
_ZN11LocalPlayer10isCreativeEv = __main_start + 0x60ba44;
_ZN11ArchiveFile11_readHeaderEP15DataInputStream = __main_start + 0x60e95c;
_ZN11ArchiveFileC1E4File = __main_start + 0x60ee08;
_ZN13BufferBuilder5beginEv = __main_start + 0x610924;
_ZN13BufferBuilder8vertexUVEfffff = __main_start + 0x610984;
_ZN13BufferBuilder3endEv = __main_start + 0x6109d8;
_ZN13BufferBuilder5beginEi = __main_start + 0x610e50;
_ZN19BlockEntityRenderer11bindTextureEP16ResourceLocation = __main_start + 0x611628;
_ZN14BeaconRenderer16renderBeaconBeamEddddddii15arrayWithLengthIKfE = __main_start + 0x612ce0;
_ZN14BeaconRenderer16renderBeaconBeamEddddddii15arrayWithLengthIKfEdd = __main_start + 0x612ce4;
_ZN13BufferBuilder5colorEffff = __main_start + 0x6134b8;
_ZN11BlockColors13createDefaultEv = __main_start + 0x614d1c;
_ZN11BlockColors8getColorEPK10BlockStateP11LevelSourcePK8BlockPosi = __main_start + 0x615608;
_ZN27BlockEntityRenderDispatcher10staticCtorEv = __main_start + 0x615d0c;
_ZN21BlockRenderDispatcherC1EP11BlockColors = __main_start + 0x616d20;
_ZN13BlockRenderer18getShadeBrightnessEP5BlockP11LevelSourceRK8BlockPos = __main_start + 0x618878;
_ZN13BlockRenderer53tesselateBlockInWorldWithAmbienceOcclusionTexLightingEPK10BlockStateRK8BlockPosfffib = __main_start + 0x629804;
_ZN17BossHealthOverlayC1EP9Minecraft = __main_start + 0x637140;
_ZN13BufferBuilderC1Ei = __main_start + 0x638220;
_ZN13BufferBuilder15finaliseShadersEv = __main_start + 0x638310;
_ZN13BufferBuilder5clearEv = __main_start + 0x6383a4;
_ZN13BufferBuilder19useProjectedTextureEb = __main_start + 0x6383d8;
_ZN13BufferBuilder3texEff = __main_start + 0x6383f0;
_ZN13BufferBuilder5colorEiiii = __main_start + 0x63840c;
_ZN13BufferBuilder6vertexEfff = __main_start + 0x638480;
_ZN13BufferBuilder6Bounds7addVertEfff = __main_start + 0x6388a8;
_ZN13BufferBuilder12vertexDoubleEddd = __main_start + 0x63890c;
_ZN13BufferBuilder14vertexNoBoundsEfff = __main_start + 0x63891c;
_ZN13BufferedImageC1Eiii = __main_start + 0x638dac;
BufferedImage__BufferedImage = __main_start + 0x638e24;
_ZN13BufferedImageD2Ev = __main_start + 0x639710;
_ZN13BufferedImage8getWidthEv = __main_start + 0x6397ac;
_ZN13BufferedImage9getHeightEv = __main_start + 0x6397b4;
_ZN13BufferedImage6getRGBEiiii15arrayWithLengthIiEiii = __main_start + 0x6397bc;
_ZN13BufferedImage7getDataEv = __main_start + 0x63989c;
_ZN20ClientPacketListener10staticCtorEv = __main_start + 0x6413f4;
_ZN20ClientPacketListenerD2Ev = __main_start + 0x641400;
_ZN20ClientPacketListenerD0Ev = __main_start + 0x641474;
_ZN20CConsoleMinecraftApp14ReadBannedListEi10eTMSActionb = __main_start + 0x642530;
_ZN20ClientPacketListener12onDisconnectEN16DisconnectPacket17eDisconnectReasonEPv = __main_start + 0x647858;
_ZN20ClientPacketListener21canHandleAsyncPacketsEv = __main_start + 0x64e54c;
_ZN20ClientPacketListener22isServerPacketListenerEv = __main_start + 0x64f3bc;
_ZN16ClientScoreboard13GetWinnerNameEi = __main_start + 0x6537cc;
_ZN17CreateWorldScreen6renderEiif = __main_start + 0x655c4c;
_ZN7EditBox6renderEv = __main_start + 0x655fcc;
_ZN10DataFixers9addFixersEP14DataFixerUpper = __main_start + 0x658378;
_ZN10DataFixers16createFixerUpperEv = __main_start + 0x658f30;
_ZN14DataFixerUpperC1Ei = __main_start + 0x659374;
_ZN19DefaultVertexFormat10staticCtorEv = __main_start + 0x65a0c8;
_ZN18DispenserBootstrap10StaticCtorEv = __main_start + 0x65a928;
_ZN13CMinecraftAppD0Ev = __main_start + 0x6626d4;
_ZN13CMinecraftApp17CaptureScreenshotEi = __main_start + 0x6626f8;
_ZN13CMinecraftApp8RunFrameEv = __main_start + 0x6626fc;
_ZN26UIScene_LoadCreateJoinMenu12getSceneTypeEv = __main_start + 0x664ac4;
_ZNK26UIScene_LoadCreateJoinMenu15getSubSceneTypeEv = __main_start + 0x664acc;
_ZN24UIScene_NewUpdateMessage19mapElementsAndNamesEv = __main_start + 0x665f54;
_ZNK24UIScene_NewUpdateMessage12getSceneTypeEv = __main_start + 0x666094;
_ZN24UIScene_NewUpdateMessage8hasFocusEi = __main_start + 0x66609c;
_ZN20CConsoleMinecraftAppD0Ev = __main_start + 0x66a414;
_ZN14EntityRenderer12SetItemFrameEb = __main_start + 0x66a508;
_ZN14EntityRendererD1Ev = __main_start + 0x66a6ac;
_ZN14EntityRenderer8getModelEv = __main_start + 0x66a6d4;
_ZN20LivingEntityRendererD1Ev = __main_start + 0x66a950;
_ZN6ScreenD2Ev = __main_start + 0x66b00c;
_ZN14PacketListenerC2Ev = __main_start + 0x66c280;
_ZN9Minecraft11GetInstanceEv = __main_start + 0x67db90;
_ZN9Minecraft11GetMiniGameEv = __main_start + 0x67dba0;
_ZN14GlStateManager10AlphaState14createInstanceEv = __main_start + 0x680024;
_ZN14GlStateManager18ColorMaterialState14createInstanceEv = __main_start + 0x680090;
_ZN14GlStateManager10BlendState14createInstanceEv = __main_start + 0x6800c4;
_ZN14GlStateManager10DepthState14createInstanceEv = __main_start + 0x6800f8;
_ZN14GlStateManager8FogState14createInstanceEv = __main_start + 0x68012c;
_ZN14GlStateManager9CullState14createInstanceEv = __main_start + 0x680160;
_ZN14GlStateManager18PolygonOffsetState14createInstanceEv = __main_start + 0x680194;
_ZN14GlStateManager15ColorLogicState14createInstanceEv = __main_start + 0x6801c8;
_ZN14GlStateManager11TexGenState14createInstanceEv = __main_start + 0x6801fc;
_ZN14GlStateManager10ClearState14createInstanceEv = __main_start + 0x680230;
_ZN14GlStateManager12StencilState14createInstanceEv = __main_start + 0x680264;
_ZN14GlStateManager9ColorMask14createInstanceEv = __main_start + 0x680308;
_ZN14GlStateManager5Color14createInstanceEv = __main_start + 0x68033c;
Options__create = __main_start + 0x681300;
_ZN14GlStateManager10pushMatrixEv = __main_start + 0x6824c4;
_ZN14GlStateManager10translatefEfff = __main_start + 0x6824dc;
_ZN14GlStateManager7rotatefEffff = __main_start + 0x6824f4;
_ZN14GlStateManager10enableCullEv = __main_start + 0x682518;
_ZN14GlStateManager9popMatrixEv = __main_start + 0x68252c;
_ZN14GlStateManager10matrixModeEi = __main_start + 0x682798;
_ZN14GlStateManager6scalefEfff = __main_start + 0x6827b8;
_ZN14GlStateManager19enableRescaleNormalEv = __main_start + 0x6827d0;
_ZN14GlStateManager7color4fEffff = __main_start + 0x6827e0;
_ZN14GlStateManager20disableRescaleNormalEv = __main_start + 0x682818;
_ZN14EntityRendererC1EP22EntityRenderDispatcher = __main_start + 0x682dd0;
_ZN14GlStateManager19enableColorMaterialEv = __main_start + 0x683038;
_ZN14GlStateManager20disableColorMaterialEv = __main_start + 0x68305c;
_ZN14EntityRenderer6renderERNSt3__110shared_ptrI6EntityEEdddff = __main_start + 0x68335c;
_ZN14EntityRenderer12shouldRenderERNSt3__110shared_ptrI6EntityEEP6Cullerddd = __main_start + 0x6833e8;
_ZN14EntityRenderer12shouldRenderERNSt3__110shared_ptrI6EntityEEP6Cullerd = __main_start + 0x683578;
_ZN8Lighting7turnOffEv = __main_start + 0x683a6c;
_ZN14GlStateManager14disableTextureEv = __main_start + 0x683a90;
_ZN14GlStateManager10shadeModelEi = __main_start + 0x683ab0;
_ZN14GlStateManager11enableBlendEv = __main_start + 0x683acc;
_ZN14GlStateManager9blendFuncEii = __main_start + 0x683ae0;
_ZN14GlStateManager16disableAlphaTestEv = __main_start + 0x683b18;
_ZN14GlStateManager9depthMaskEb = __main_start + 0x683b2c;
_ZN14GlStateManager11disableCullEv = __main_start + 0x683b58;
_ZN14GlStateManager12disableBlendEv = __main_start + 0x683b6c;
_ZN14GlStateManager13enableTextureEv = __main_start + 0x683b80;
_ZN14GlStateManager15enableAlphaTestEv = __main_start + 0x683ba0;
_ZN8Lighting6turnOnEv = __main_start + 0x683bb4;
_ZN14GlStateManager15disableLightingEv = __main_start + 0x683f08;
_ZN14GlStateManager9depthFuncEi = __main_start + 0x683f18;
_ZN14GlStateManager14enableLightingEv = __main_start + 0x683f48;
_ZN14GlStateManager9alphaFuncEif = __main_start + 0x68448c;
_ZN20LivingEntityRenderer19setupForTexturePackEP11TexturePack = __main_start + 0x6847a4;
_ZN19EntityBlockRendererC1Ev = __main_start + 0x68757c;
_ZN22EntityRenderDispatcherC1EP8TexturesP12ItemRenderer = __main_start + 0x689064;
_ZN14EntityRenderer6renderEP4AABBddd = __main_start + 0x68b698;
_ZN14EntityRenderer10renderNameERNSt3__110shared_ptrI6EntityEEddd = __main_start + 0x68b73c;
_ZN14EntityRenderer14shouldShowNameERNSt3__110shared_ptrI6EntityEE = __main_start + 0x68b788;
_ZN14EntityRenderer14renderNameTagsERNSt3__110shared_ptrI6EntityEEdddRKNS0_12basic_stringIwNS0_11char_traitsIwEENS0_9allocatorIwEEEEdi = __main_start + 0x68b7a0;
_ZN14EntityRenderer11bindTextureERNSt3__110shared_ptrI6EntityEE = __main_start + 0x68b7f0;
_ZN14EntityRenderer11bindTextureEPK16ResourceLocation = __main_start + 0x68b7fc;
_ZN14GlStateManager11bindTextureEi = __main_start + 0x68b840;
_ZN14EntityRenderer11bindTextureERKNSt3__112basic_stringIwNS0_11char_traitsIwEENS0_9allocatorIwEEEEi = __main_start + 0x68b87c;
_ZN14EntityRenderer18getTextureLocationERNSt3__110shared_ptrI6EntityEE = __main_start + 0x68b8c0;
_ZN14EntityRenderer11renderFlameERNSt3__110shared_ptrI6EntityEEdddf = __main_start + 0x68bbd0;
_ZN14EntityRenderer12renderShadowERNSt3__110shared_ptrI6EntityEEdddff = __main_start + 0x68bf7c;
_ZN14EntityRenderer8getLevelEv = __main_start + 0x68bf88;
_ZN14EntityRenderer17renderBlockShadowEPK10BlockStatedddRK8BlockPosffddd = __main_start + 0x68c26c;
_ZN14EntityRenderer10postRenderERNSt3__110shared_ptrI6EntityEEdddffb = __main_start + 0x68c63c;
_ZN14EntityRenderer7getFontEv = __main_start + 0x68c7c4;
_ZN14EntityRenderer11bindTextureERKNSt3__112basic_stringIwNS0_11char_traitsIwEENS0_9allocatorIwEEEES8_ = __main_start + 0x68c7cc;
_ZN14EntityRenderer13renderNameTagERNSt3__110shared_ptrI6EntityEERKNS0_12basic_stringIwNS0_11char_traitsIwEENS0_9allocatorIwEEEEdddii = __main_start + 0x68c7d4;
GameRenderer__renderNameTagInWorld = __main_start + 0x68ca74;
_ZN9Minecraft10InMiniGameE11EMiniGameIdb = __main_start + 0x68cfb4;
_ZN14EntityRenderer13hasSecondPassEv = __main_start + 0x68d048;
_ZN14EntityRenderer16renderSecondPassERNSt3__110shared_ptrI6EntityEEdddff = __main_start + 0x68d050;
_ZN14EntityRenderer19setupForTexturePackEP11TexturePack = __main_start + 0x68d054;
_ZN14EntityRenderer12getModelNameEv = __main_start + 0x68d1ec;
_ZN14EntityRenderer11createModelERK15ModelDefinition = __main_start + 0x68d22c;
_ZN13EntityTrackerC1EP11ServerLevel = __main_start + 0x68dd8c;
_ZN15MinecraftServer10getPlayersEv = __main_start + 0x68dde4;
_ZN12GuiComponent18drawCenteredStringEP4FontRKNSt3__112basic_stringIwNS2_11char_traitsIwEENS2_9allocatorIwEEEEiii = __main_start + 0x68fdd0;
_Z18PIXBeginNamedEventfPKcz = __main_start + 0x69109c;
_ZN16PIXEndNamedEventEv = __main_start + 0x6910c8;
_Z10XMemSet128Pvij = __main_start + 0x691100;
_Z14XPhysicalAllocmmmj = __main_start + 0x691104;
_Z13XPhysicalFreePv = __main_start + 0x691108;
_ZN8FaceInfo10staticCtorEv = __main_start + 0x69113c;
_ZN9Minecraft16getBlockRendererEv = __main_start + 0x6915a8;
_ZN9Minecraft15getCameraEntityEv = __main_start + 0x6931f8;
_ZN4FontC1EP7OptionsRKNSt3__112basic_stringIwNS2_11char_traitsIwEENS2_9allocatorIwEEEEP8TexturesbP16ResourceLocationiiiiPt = __main_start + 0x694684;
_ZN4Font14cacheCharacterEi = __main_start + 0x694a34;
_ZN4Font15renderCharacterEwP13BufferBuilder = __main_start + 0x694b24;
_ZN4Font10drawShadowERKNSt3__112basic_stringIwNS0_11char_traitsIwEENS0_9allocatorIwEEEEiii = __main_start + 0x694c0c;
_ZN4Font4drawERKNSt3__112basic_stringIwNS0_11char_traitsIwEENS0_9allocatorIwEEEEiiibb = __main_start + 0x694c78;
_ZN4Font8sanitizeERKNSt3__112basic_stringIwNS0_11char_traitsIwEENS0_9allocatorIwEEEEb = __main_start + 0x695448;
_ZN4Font5widthERKNSt3__112basic_stringIwNS0_11char_traitsIwEENS0_9allocatorIwEEEE = __main_start + 0x69576c;
_ZN14GlStateManager9getMatrixEiP11FloatBuffer = __main_start + 0x697144;
_ZN8GameModeC2Ev = __main_start + 0x697548;
_ZN8GameMode11isSpectatorEv = __main_start + 0x697624;
_ZN8GameMode29CanRecordStatsAndAchievementsEv = __main_start + 0x69765c;
_ZN8GameMode10MayDestroyERK8BlockPos = __main_start + 0x69769c;
_ZN8GameMode8MayPlaceERK8BlockPosP9BlockItem = __main_start + 0x6979f0;
_ZN8GameMode6MayUseERK8BlockPosP4Item = __main_start + 0x697af8;
_ZN8GameMode15handleCraftItemEiiNSt3__110shared_ptrI6PlayerEE = __main_start + 0x697c08;
_ZN8GameMode22handleStackedCraftItemERNSt3__16vectorINS0_4pairIiiEENS0_9allocatorIS3_EEEEiNS0_10shared_ptrI6PlayerEE = __main_start + 0x6980ac;
_ZN8GameMode21handleCustomCraftItemERNSt3__16vectorIiNS0_9allocatorIiEEEENS0_10shared_ptrI6PlayerEE = __main_start + 0x698750;
_ZN12GameRendererC1EP9MinecraftP15ResourceManager = __main_start + 0x698da4;
_ZN9Minecraft21getItemInHandRendererEv = __main_start + 0x6992d8;
_ZN12GameRenderer4tickEb = __main_start + 0x6996ec;
_ZN12GameRenderer4pickEf = __main_start + 0x69a1c0;
_ZN12GameRenderer11setupCameraEfi = __main_start + 0x69b82c;
_ZN14GlStateManager12loadIdentityEv = __main_start + 0x69bb4c;
_ZN12GameRenderer15getLightTextureEiP5Level = __main_start + 0x69c630;
_ZN12GameRenderer18updateLightTextureEf = __main_start + 0x69c654;
_ZN12GameRenderer6renderEfxb = __main_start + 0x69cbf0;
_ZN12GameRenderer11fjGetFpsCapEi = __main_start + 0x69ce18;
_ZN9Minecraft13getAverageFpsEv = __main_start + 0x69ce38;
_ZN12GameRenderer11renderLevelEfx = __main_start + 0x69ce48;
_ZN3Gui6renderEfbii = __main_start + 0x69cf5c;
_ZN12GameRenderer14setupGuiScreenEi = __main_start + 0x69daa8;
_ZN14GlStateManager5clearEi = __main_start + 0x69db38;
_ZN14GlStateManager10disableFogEv = __main_start + 0x69f97c;
_ZN14GlStateManager9enableFogEv = __main_start + 0x69fa88;
_ZN9Minecraft25getEntityRenderDispatcherEv = __main_start + 0x6a010c;
_ZN14GlStateManager8cullFaceEi = __main_start + 0x6a0270;
_ZN14GlStateManager15enableDepthTestEv = __main_start + 0x6a0ba4;
_ZN14GlStateManager9colorMaskEbbbb = __main_start + 0x6a0bb8;
_ZN12GameRenderer13renderEyePassEifxb = __main_start + 0x6a0c14;
_ZN12GameRenderer15setupClearColorEf = __main_start + 0x6a1544;
_ZN14GlStateManager5orthoEdddddd = __main_start + 0x6a5b10;
_ZN12GameRenderer13resetFogColorEb = __main_start + 0x6a5bb0;
_ZN14GlStateManager16disableDepthTestEv = __main_start + 0x6a5d68;
_ZN12GameRenderer29renderItemActivationAnimationEiif = __main_start + 0x6a5e10;
_ZN9Minecraft15getItemRendererEv = __main_start + 0x6a60a4;
_ZN14GlStateManager12BooleanStateC2Ei = __main_start + 0x6a72f8;
_ZN14GlStateManager11enableStateEi = __main_start + 0x6a732c;
_ZN14GlStateManager12disableStateEi = __main_start + 0x6a7438;
_ZN14GlStateManager9ColorMaskC1Ev = __main_start + 0x6a7560;
_ZN14GlStateManager5ColorC1Ev = __main_start + 0x6a756c;
_ZN14GlStateManager12TextureStateC2Ev = __main_start + 0x6a758c;
_ZN14GlStateManager10AlphaStateC1Ev = __main_start + 0x6a75c4;
_ZN14GlStateManager18ColorMaterialStateC1Ev = __main_start + 0x6a7600;
_ZN14GlStateManager10BlendStateC1Ev = __main_start + 0x6a7638;
_ZN14GlStateManager10DepthStateC1Ev = __main_start + 0x6a7678;
_ZN14GlStateManager8FogStateC1Ev = __main_start + 0x6a76bc;
_ZN14GlStateManager9CullStateC1Ev = __main_start + 0x6a7704;
_ZN14GlStateManager18PolygonOffsetStateC1Ev = __main_start + 0x6a7740;
_ZN14GlStateManager15ColorLogicStateC1Ev = __main_start + 0x6a778c;
_ZN14GlStateManager10ClearStateC1Ev = __main_start + 0x6a77c4;
_ZN14GlStateManager11StencilFuncC1Ev = __main_start + 0x6a7810;
_ZN14GlStateManager12StencilStateC1Ev = __main_start + 0x6a7824;
_ZN14GlStateManager11TexGenStateC1Ev = __main_start + 0x6a78a8;
_ZN14GlStateManager12disableLightEi = __main_start + 0x6a7948;
_ZN14GlStateManager12enableTexGenEN14GlStateManager6TexGenE = __main_start + 0x6a7a78;
_ZN14GlStateManager13disableTexGenEN14GlStateManager6TexGenE = __main_start + 0x6a7b00;
_ZN14GlStateManager10texGenModeEN14GlStateManager6TexGenEi = __main_start + 0x6a7b18;
_ZN14GlStateManager11texGenParamEN14GlStateManager6TexGenEiP11FloatBuffer = __main_start + 0x6a7b48;
_ZN14GlStateManager13activeTextureEi = __main_start + 0x6a7bc0;
_ZN14GlStateManager10clearDepthEd = __main_start + 0x6a7d30;
_ZN14GlStateManager8callListEi = __main_start + 0x6a7dec;
_ZN14GlStateManager10staticCtorEv = __main_start + 0x6a7e98;
_ZN14GlStateManager18disableClientStateEi = __main_start + 0x6a8020;
_ZN3GuiC1EP9Minecraft = __main_start + 0x6a9b8c;
_ZN12GuiComponentC2Ev = __main_start + 0x6a9d74;
_ZN9Minecraft16useFancyGraphicsEv = __main_start + 0x6a9d7c;
_ZN3Gui13renderPumpkinEii = __main_start + 0x6a9ddc;
